
Thermostaat_new.elf:     file format elf32-avr

Sections:
Idx Name          Size      VMA       LMA       File off  Algn
  0 .data         000000aa  00800100  000051a0  00005234  2**0
                  CONTENTS, ALLOC, LOAD, DATA
  1 .text         000051a0  00000000  00000000  00000094  2**1
                  CONTENTS, ALLOC, LOAD, READONLY, CODE
  2 .bss          000000cf  008001aa  008001aa  000052de  2**0
                  ALLOC
  3 .stab         00002994  00000000  00000000  000052e0  2**2
                  CONTENTS, READONLY, DEBUGGING
  4 .stabstr      00000a25  00000000  00000000  00007c74  2**0
                  CONTENTS, READONLY, DEBUGGING
  5 .debug_aranges 000001e0  00000000  00000000  00008699  2**0
                  CONTENTS, READONLY, DEBUGGING
  6 .debug_pubnames 00000aac  00000000  00000000  00008879  2**0
                  CONTENTS, READONLY, DEBUGGING
  7 .debug_info   00004dba  00000000  00000000  00009325  2**0
                  CONTENTS, READONLY, DEBUGGING
  8 .debug_abbrev 000016de  00000000  00000000  0000e0df  2**0
                  CONTENTS, READONLY, DEBUGGING
  9 .debug_line   00005143  00000000  00000000  0000f7bd  2**0
                  CONTENTS, READONLY, DEBUGGING
 10 .debug_frame  000006c0  00000000  00000000  00014900  2**2
                  CONTENTS, READONLY, DEBUGGING
 11 .debug_str    00000ec7  00000000  00000000  00014fc0  2**0
                  CONTENTS, READONLY, DEBUGGING
 12 .debug_loc    00002ab2  00000000  00000000  00015e87  2**0
                  CONTENTS, READONLY, DEBUGGING
 13 .debug_pubtypes 000004ca  00000000  00000000  00018939  2**0
                  CONTENTS, READONLY, DEBUGGING
 14 .debug_ranges 00000120  00000000  00000000  00018e03  2**0
                  CONTENTS, READONLY, DEBUGGING

Disassembly of section .text:

00000000 <__vectors>:
       0:	0c 94 1d 08 	jmp	0x103a	; 0x103a <__ctors_end>
       4:	0c 94 3a 08 	jmp	0x1074	; 0x1074 <__bad_interrupt>
       8:	0c 94 3a 08 	jmp	0x1074	; 0x1074 <__bad_interrupt>
       c:	0c 94 3a 08 	jmp	0x1074	; 0x1074 <__bad_interrupt>
      10:	0c 94 3a 08 	jmp	0x1074	; 0x1074 <__bad_interrupt>
      14:	0c 94 3a 08 	jmp	0x1074	; 0x1074 <__bad_interrupt>
      18:	0c 94 9d 1e 	jmp	0x3d3a	; 0x3d3a <__vector_6>
      1c:	0c 94 3a 08 	jmp	0x1074	; 0x1074 <__bad_interrupt>
      20:	0c 94 3a 08 	jmp	0x1074	; 0x1074 <__bad_interrupt>
      24:	0c 94 3a 08 	jmp	0x1074	; 0x1074 <__bad_interrupt>
      28:	0c 94 3a 08 	jmp	0x1074	; 0x1074 <__bad_interrupt>
      2c:	0c 94 3a 08 	jmp	0x1074	; 0x1074 <__bad_interrupt>
      30:	0c 94 3a 08 	jmp	0x1074	; 0x1074 <__bad_interrupt>
      34:	0c 94 3a 08 	jmp	0x1074	; 0x1074 <__bad_interrupt>
      38:	0c 94 3a 08 	jmp	0x1074	; 0x1074 <__bad_interrupt>
      3c:	0c 94 bc 22 	jmp	0x4578	; 0x4578 <__vector_15>
      40:	0c 94 3a 08 	jmp	0x1074	; 0x1074 <__bad_interrupt>
      44:	0c 94 3a 08 	jmp	0x1074	; 0x1074 <__bad_interrupt>
      48:	0c 94 3a 08 	jmp	0x1074	; 0x1074 <__bad_interrupt>
      4c:	0c 94 3a 08 	jmp	0x1074	; 0x1074 <__bad_interrupt>
      50:	0c 94 5a 23 	jmp	0x46b4	; 0x46b4 <__vector_20>
      54:	0c 94 3a 08 	jmp	0x1074	; 0x1074 <__bad_interrupt>
      58:	0c 94 3a 08 	jmp	0x1074	; 0x1074 <__bad_interrupt>
      5c:	0c 94 3a 08 	jmp	0x1074	; 0x1074 <__bad_interrupt>
      60:	0c 94 3a 08 	jmp	0x1074	; 0x1074 <__bad_interrupt>
      64:	0c 94 3a 08 	jmp	0x1074	; 0x1074 <__bad_interrupt>
      68:	0c 94 3a 08 	jmp	0x1074	; 0x1074 <__bad_interrupt>
      6c:	0c 94 3a 08 	jmp	0x1074	; 0x1074 <__bad_interrupt>

00000070 <sun>:
      70:	09 09 10 92 7c 7c ff 7c 7c 92 10 00 00 00 00 01     ....||.||.......
      80:	00 00 00 00                                         ....

00000084 <Moon>:
      84:	09 09 00 7c fe ee 83 01 01 00 00 00 00 00 00 01     ...|............
      94:	01 01 00 00                                         ....

00000098 <ubuntu_bold_26>:
      98:	11 78 0a 19 2a 10 0b 0e 05 08 05 0b 0d 09 0d 0c     .x..*...........
      a8:	0d 0c 0d 0d 0d 0d 40 f0 e0 e0 dc fc dc e0 e0 f0     ......@.........
      b8:	40 00 02 06 0f 07 01 07 0f 06 02 00 00 00 00 00     @...............
	...
      dc:	00 00 00 c0 c0 c0 c0 00 00 00 00 00 38 38 38 38     ............8888
      ec:	38 ff ff ff ff 38 38 38 38 38 00 00 00 00 00 07     8....88888......
      fc:	07 07 07 00 00 00 00 00 00 00 00 00 00 00 00 00     ................
	...
     11c:	40 ff ff 7f 0f 00 00 00 00 00 00 00 00 00 00 00     @...............
     12c:	00 00 3c 3c 3c 3c 3c 3c 3c 3c 00 00 00 00 00 00     ..<<<<<<<<......
	...
     14c:	80 80 80 00 07 0f 0f 0f 07 00 00 00 00 00 00 00     ................
     15c:	00 00 00 80 f0 fe ff 7f 0f 00 00 80 f0 fe ff ff     ................
     16c:	1f 03 00 00 e0 fc ff ff 1f 03 00 00 00 00 00 80     ................
     17c:	80 80 00 00 00 00 00 00 00 00 80 e0 f0 f8 7c 1c     ..............|.
     18c:	1c 1c 7c f8 f8 e0 80 7f ff ff ff 80 00 00 00 80     ..|.............
     19c:	ff ff ff 7f 00 01 07 07 0f 0e 0e 0e 0f 07 07 01     ................
	...
     1b8:	00 00 c0 e0 e0 f0 78 f8 fc fc fc 00 01 00 00 00     ......x.........
     1c8:	ff ff ff ff 00 00 00 00 00 0f 0f 0f 0f 00 00 00     ................
     1d8:	00 00 00 00 00 00 10 38 38 3c 1c 1c 1c 3c fc f8     .......88<...<..
     1e8:	f8 e0 00 00 c0 e0 f0 f0 f8 7c 3e 1f 0f 07 01 00     .........|>.....
     1f8:	0f 0f 0f 0f 0f 0e 0e 0e 0e 0e 0e 0e 0e 00 00 00     ................
	...
     210:	00 00 18 38 3c 1c 1c 1c 3c fc f8 f8 e0 00 00 00     ...8<...<.......
     220:	00 0e 0e 0e 0f 1f ff fb f1 e0 06 0f 0e 0e 0e 0e     ................
     230:	0e 0f 07 07 03 01 00 00 00 00 00 00 00 00 00 00     ................
     240:	00 00 00 00 00 80 e0 f0 f8 fc fc fc fc 00 00 f0     ................
     250:	fc fe ff e7 e1 e0 ff ff ff ff e0 e0 00 00 00 00     ................
     260:	00 00 00 0f 0f 0f 0f 00 00 00 00 00 00 00 00 00     ................
     270:	00 00 00 00 00 00 00 80 fc fc fc 1c 1c 1c 1c 1c     ................
     280:	1c 00 00 07 07 07 07 07 0f 1f fe fe fc f0 06 0f     ................
     290:	0e 0e 0e 0e 0e 0f 07 07 03 01 00 00 00 00 00 00     ................
     2a0:	00 00 00 00 00 00 00 80 e0 f0 f0 78 38 38 1c 1c     ...........x88..
     2b0:	1c 1c 00 fe ff ff ff 87 07 07 07 0f ff fe fc f8     ................
     2c0:	00 03 07 07 0f 0e 0e 0e 0f 07 07 03 00 00 00 00     ................
	...
     2d8:	00 00 1c 1c 1c 1c 1c 1c 1c dc fc fc fc 7c 1c 00     .............|..
     2e8:	00 00 00 e0 fc ff ff 1f 07 01 00 00 00 00 00 0e     ................
     2f8:	0f 0f 0f 01 00 00 00 00 00 00 00 00 00 00 00 00     ................
     308:	00 00 00 00 00 00 e0 f0 f8 f8 3c 1c 1c 1c 3c fc     ..........<...<.
     318:	f8 f0 e0 f1 fb ff ff 1f 0e 0e 1e 3f ff ff fb f1     ...........?....
     328:	01 03 07 0f 0f 0e 0e 0e 0f 0f 07 03 01 00 00 00     ................
	...
     340:	00 00 e0 f0 f8 f8 3c 1c 1c 1c 3c f8 f8 f0 c0 03     ......<...<.....
     350:	0f 0f 1f 1e 1c 1c 9c fc ff ff ff 3f 00 00 0e 0e     ...........?....
     360:	0e 0f 07 07 07 03 01 00 00 00 00 00 00 00 00 00     ................
     370:	00 00 00 00 00 00                                   ......

00000376 <internalTemp>:
     376:	08 08 fc 82 81 92 38 54 10 10                       ......8T..

00000380 <Ubuntu_bold_14>:
     380:	20 f0 0a 0e 20 60 00 02 05 09 06 0c 09 02 04 04      ... `..........
     390:	05 06 03 04 03 06 06 05 06 06 07 06 06 06 06 06     ................
     3a0:	03 04 06 07 06 06 0c 09 07 07 08 06 07 08 08 02     ................
     3b0:	06 09 07 0b 08 09 07 09 08 06 08 08 09 0d 09 08     ................
     3c0:	07 04 06 04 07 07 02 06 06 05 06 06 05 06 06 02     ................
     3d0:	03 07 03 0a 06 07 06 06 05 05 05 06 07 0b 08 07     ................
     3e0:	05 04 02 04 07 05 7e 7e 1c 1c 0f 0f 00 0f 0f 00     ......~~........
     3f0:	00 00 00 00 98 98 f8 fe 9e f8 fe 9e 98 04 1c 1c     ................
     400:	04 1c 1c 04 04 04 38 7c 6f cf cc 8c 18 18 78 78     ......8|o.....xx
     410:	1c 0c 1c 3e 22 22 be fc f8 dc 4e 42 c0 80 00 00     ...>""....NB....
     420:	10 1c 0c 04 0c 1c 10 10 1c 0c c0 fc 7e 66 fe 9c     ............~f..
     430:	c0 c0 00 0c 1c 18 18 1c 0c 1c 18 10 0f 0f 00 00     ................
     440:	f8 fe 0f 02 1c 7c f0 40 02 0f fe f8 40 f0 7c 1c     .....|.@....@.|.
     450:	2c 78 1e 78 2c 00 00 00 00 00 c0 c0 f0 f0 c0 c0     ,x.x,...........
     460:	00 00 0c 0c 00 00 00 00 00 40 78 38 c0 c0 c0 c0     .........@x8....
     470:	00 00 00 00 00 00 00 1c 1c 1c 00 00 e0 fc 1f 03     ................
     480:	c0 f8 3c 04 00 00 f8 fc 06 06 fc f8 04 0c 18 18     ..<.............
     490:	0c 04 08 1c 0c fe fe 00 00 00 1c 1c 04 8e c6 e6     ................
     4a0:	7e 1c 1c 1c 1c 18 18 18 04 06 66 66 fe dc 18 18     ~.........ff....
     4b0:	18 18 1c 0c c0 f0 b8 8c fe fe 80 04 04 04 04 1c     ................
     4c0:	1c 04 60 7e 7e 66 e6 c6 18 18 18 18 1c 0c f0 fc     ..`~~f..........
     4d0:	7c 66 e6 c0 04 1c 18 18 1c 0c 06 06 c6 f6 1e 06     |f..............
     4e0:	00 1c 1c 00 00 00 dc fe 66 66 fe dc 0c 1c 18 18     ........ff......
     4f0:	1c 0c 3c 7e 66 66 fe f8 00 18 18 0c 0c 00 38 38     ..<~ff........88
     500:	38 1c 1c 1c 00 38 38 38 40 78 38 00 e0 e0 b0 b0     8....888@x8.....
     510:	b0 18 00 00 04 04 04 0c b0 b0 b0 b0 b0 b0 b0 04     ................
     520:	04 04 04 04 04 04 18 b0 b0 b0 e0 e0 0c 04 04 04     ................
     530:	00 00 03 03 63 73 1f 0e 00 1c 1c 1c 00 00 e0 f8     ....cs..........
     540:	1c ec f6 36 f6 f6 0e 0c f8 f0 04 1c 38 34 6c 6c     ...6........84ll
     550:	6c 6c 6c 0c 04 00 00 c0 f8 be 86 be f8 c0 00 18     lll.............
     560:	1c 0c 04 04 04 0c 1c 18 fe fe 66 66 66 fe dc 1c     ..........fff...
     570:	1c 18 18 18 1c 0c f0 fc 0e 06 06 06 06 04 0c 1c     ................
     580:	18 18 18 18 fe fe 06 06 06 0c fc f8 1c 1c 18 18     ................
     590:	18 0c 0c 00 fe fe 66 66 66 06 1c 1c 18 18 18 18     ......fff.......
     5a0:	fe fe 66 66 66 66 66 1c 1c 00 00 00 00 00 f0 fc     ..fffff.........
     5b0:	0c 06 06 06 c6 c6 00 0c 1c 18 18 18 1c 1c fe fe     ................
     5c0:	60 60 60 60 fe fe 1c 1c 00 00 00 00 1c 1c fe fe     ````............
     5d0:	1c 1c 00 00 00 00 fe fe 18 18 18 18 1c 0c fe fe     ................
     5e0:	30 f0 d8 8c 06 02 00 1c 1c 00 00 04 0c 1c 18 10     0...............
     5f0:	fe fe 00 00 00 00 00 1c 1c 18 18 18 18 18 e0 fe     ................
     600:	1e 78 e0 80 e0 78 1e fe e0 1c 1c 00 00 0c 0c 04     .x...x..........
     610:	00 00 1c 1c fe fe 1c 38 e0 c0 fe fe 1c 1c 00 00     .......8........
     620:	00 0c 1c 1c f0 fc 0e 06 06 06 0e fc f0 00 0c 1c     ................
     630:	18 18 18 1c 0c 04 fe fe c6 c6 c6 7c 3c 1c 1c 00     ...........|<...
     640:	00 00 00 00 f0 fc 0e 06 06 06 0e fc f0 00 0c 1c     ................
     650:	18 38 78 dc cc 04 fe fe c6 c6 c6 7c 38 00 1c 1c     .8x........|8...
     660:	00 00 0c 1c 18 10 1c 3e 66 66 c6 c6 18 18 18 18     .......>ff......
     670:	1c 0c 06 06 06 fe fe 06 06 06 00 00 00 1c 1c 00     ................
     680:	00 00 fe fe 00 00 00 00 fe fe 04 0c 1c 18 18 1c     ................
     690:	0c 04 06 3e fc e0 00 e0 fc 3e 06 00 00 04 1c 1c     ...>.....>......
     6a0:	1c 04 00 00 0e fe f8 00 e0 fc 1c fc e0 00 f8 fe     ................
     6b0:	0e 00 00 1c 1c 1c 00 00 00 1c 1c 1c 00 00 02 06     ................
     6c0:	9e f8 f0 f8 9e 06 02 10 18 1c 04 00 04 1c 18 10     ................
     6d0:	02 0e 3c f0 f0 3c 0e 02 00 00 00 1c 1c 00 00 00     ..<..<..........
     6e0:	06 86 c6 f6 3e 1e 06 18 1c 1c 18 18 18 18 ff ff     ....>...........
     6f0:	03 03 fc fc c0 c0 03 1f fc e0 00 00 00 00 04 3c     ...............<
     700:	f8 c0 03 03 ff ff c0 c0 fc fc 20 70 1c 06 1c 70     .......... p...p
     710:	20 00 00 00 00 00 00 00 00 00 00 00 00 00 00 c0      ...............
     720:	c0 c0 c0 c0 c0 c0 03 06 00 00 00 b0 b0 b0 f0 e0     ................
     730:	0c 1c 18 18 1c 1c ff ff 30 30 f0 e0 1c 1c 18 18     ........00......
     740:	1c 0c e0 e0 30 30 30 0c 1c 18 18 18 e0 f0 30 30     ....000.......00
     750:	ff ff 0c 1c 18 18 1c 1c c0 f0 b0 b0 f0 e0 0c 1c     ................
     760:	18 18 18 18 fe ff 33 33 33 1c 1c 00 00 00 c0 f0     ......333.......
     770:	30 30 f0 f0 8c dc d8 d8 fc 7c ff ff 30 30 f0 e0     00.......|..00..
     780:	1c 1c 00 00 1c 1c f3 f3 1c 1c 00 f3 f3 c0 fc 7c     ...............|
     790:	ff ff 80 e0 70 30 10 1c 1c 00 04 1c 18 10 ff ff     ....p0..........
     7a0:	00 0c 1c 18 f0 f0 30 30 f0 f0 30 30 f0 e0 1c 1c     ......00..00....
     7b0:	00 00 1c 1c 00 00 1c 1c f0 f0 30 30 f0 e0 1c 1c     ..........00....
     7c0:	00 00 1c 1c c0 e0 30 30 30 e0 c0 04 0c 18 18 18     ......000.......
     7d0:	0c 04 f0 f0 30 30 f0 e0 fc fc 18 18 1c 0c c0 f0     ....00..........
     7e0:	30 30 f0 f0 0c 1c 18 18 fc fc f0 f0 30 30 30 1c     00..........000.
     7f0:	1c 00 00 00 e0 f0 b0 b0 90 18 18 18 1c 0c fc fc     ................
     800:	30 30 30 0c 1c 18 18 18 f0 f0 00 00 f0 f0 0c 1c     000.............
     810:	18 18 1c 1c 30 f0 c0 00 c0 f0 30 00 04 1c 18 1c     ....0.....0.....
     820:	04 00 30 f0 c0 00 e0 70 e0 00 c0 f0 30 00 00 1c     ..0....p....0...
     830:	18 0c 00 0c 18 1c 00 00 10 30 70 c0 c0 70 30 10     .........0p..p0.
     840:	10 18 1c 0c 04 1c 18 10 30 f0 c0 00 c0 f0 30 c0     ........0.....0.
     850:	cc fc 78 3c 04 00 30 b0 f0 f0 30 18 1c 1c 18 18     ..x<..0...0.....
     860:	c0 fe ff 03 00 7c fc c0 ff ff fc fc 03 ff fe c0     .....|..........
     870:	c0 fc 7c 00 c0 e0 60 e0 c0 e0 60 00 00 00 00 00     ..|...`...`.....
     880:	00 00 ff 01 01 01 ff 1c 10 10 10 1c                 ............

0000088c <externalTemp>:
     88c:	08 08 fc 82 81 92 10 54 38 10                       .......T8.

00000896 <Ubuntu_9>:
     896:	0d 17 0a 09 20 60 00 01 03 05 04 07 05 01 03 03     .... `..........
     8a6:	03 05 02 02 01 03 04 02 04 04 04 04 04 03 04 04     ................
     8b6:	01 02 04 04 04 03 08 05 05 05 05 04 04 04 05 01     ................
     8c6:	03 05 04 07 05 06 04 06 05 04 05 05 05 09 05 05     ................
     8d6:	04 02 03 02 05 04 02 04 04 03 04 04 02 04 04 01     ................
     8e6:	02 04 02 07 04 04 04 04 02 03 03 04 03 05 04 05     ................
     8f6:	03 03 01 03 04 03 5e 00 03 00 03 00 00 00 28 78     ......^.......(x
     906:	2e 78 2e 00 00 00 00 00 44 4a d3 22 00 00 00 00     .x......DJ."....
     916:	04 4a 24 18 24 52 20 00 00 00 00 00 00 00 3c 52     .J$.$R .......<R
     926:	6c 60 10 00 00 00 00 00 03 00 7c 82 01 00 00 80     l`........|.....
     936:	01 82 7c 80 00 00 0c 06 0c 00 00 00 10 10 7c 10     ..|...........|.
     946:	10 00 00 00 00 00 80 40 00 00 10 10 00 00 40 00     .......@......@.
     956:	80 f0 1e 80 00 00 3c 42 42 3c 00 00 00 00 04 7e     ......<BB<.....~
     966:	00 00 44 62 52 4c 00 00 00 00 42 4a 4a 34 00 00     ..DbRL....BJJ4..
     976:	00 00 18 14 7e 10 00 00 00 00 40 4e 4a 32 00 00     ....~.....@NJ2..
     986:	00 00 38 4c 4a 32 00 00 00 00 02 72 0e 00 00 00     ..8LJ2.....r....
     996:	34 4a 4a 34 00 00 00 00 4c 52 32 1c 00 00 00 00     4JJ4....LR2.....
     9a6:	44 00 80 44 00 00 10 28 28 44 00 00 00 00 28 28     D..D...((D....((
     9b6:	28 28 00 00 00 00 44 28 28 10 00 00 00 00 02 52     ((....D((......R
     9c6:	0c 00 00 00 7c c2 39 45 45 3d 42 3c 00 00 80 80     ....|.9EE=B<....
     9d6:	80 80 00 00 60 3c 22 3c 60 00 00 00 00 00 7e 4a     ....`<"<`.....~J
     9e6:	4a 4a 34 00 00 00 00 00 3c 42 42 42 42 00 00 00     JJ4.....<BBBB...
     9f6:	00 00 7e 42 42 42 3c 00 00 00 00 00 7e 4a 4a 42     ..~BBB<.....~JJB
     a06:	00 00 00 00 7e 0a 0a 02 00 00 00 00 3c 42 42 72     ....~.......<BBr
     a16:	00 00 00 00 7e 08 08 08 7e 00 00 00 00 00 7e 00     ....~...~.....~.
     a26:	40 40 3e 00 00 00 7e 08 14 22 40 00 00 00 00 00     @@>...~.."@.....
     a36:	7e 40 40 40 00 00 00 00 7e 04 18 20 18 04 7e 00     ~@@@....~.. ..~.
     a46:	00 00 00 00 00 00 7e 04 08 30 7e 00 00 00 00 00     ......~..0~.....
     a56:	3c 42 42 42 42 3c 00 00 00 00 00 00 7e 12 12 0c     <BBBB<......~...
     a66:	00 00 00 00 3c 42 42 c2 42 3c 00 00 00 00 80 00     ....<BB.B<......
     a76:	7e 12 12 32 4c 00 00 00 00 00 44 4a 52 22 00 00     ~..2L.....DJR"..
     a86:	00 00 02 02 7e 02 02 00 00 00 00 00 3e 40 40 40     ....~.......>@@@
     a96:	3e 00 00 00 00 00 06 38 40 38 06 00 00 00 00 00     >......8@8......
     aa6:	06 38 40 38 04 38 40 38 06 00 00 00 00 00 00 00     .8@8.8@8........
     ab6:	00 00 42 24 18 24 42 00 00 00 00 00 02 0c 70 0c     ..B$.$B.......p.
     ac6:	02 00 00 00 00 00 62 52 4a 46 00 00 00 00 ff 01     ......bRJF......
     ad6:	80 80 03 1c 60 00 00 00 01 ff 80 80 08 04 02 04     ....`...........
     ae6:	08 00 00 00 00 00 00 00 00 00 80 80 80 80 01 02     ................
     af6:	00 00 24 54 54 78 00 00 00 00 7f 44 44 38 00 00     ..$TTx.....DD8..
     b06:	00 00 38 44 44 00 00 00 38 44 44 7f 00 00 00 00     ..8DD...8DD.....
     b16:	38 54 54 58 00 00 00 00 7f 05 00 00 38 44 44 fc     8TTX........8DD.
     b26:	80 80 80 00 7f 04 04 78 00 00 00 00 7d 00 00 fd     .......x....}...
     b36:	80 00 7f 10 28 44 00 00 00 00 3f 40 00 00 7c 04     ....(D....?@..|.
     b46:	04 78 04 04 78 00 00 00 00 00 00 00 7c 04 04 78     .x..x.......|..x
     b56:	00 00 00 00 38 44 44 38 00 00 00 00 fc 44 44 38     ....8DD8.....DD8
     b66:	80 00 00 00 38 44 44 fc 00 00 00 80 7c 04 00 00     ....8DD.....|...
     b76:	58 54 34 00 00 00 3e 44 44 00 00 00 3c 40 40 7c     XT4...>DD...<@@|
     b86:	00 00 00 00 0c 70 1c 00 00 00 1c 60 1c 60 1c 00     .....p.....`.`..
     b96:	00 00 00 00 44 38 28 44 00 00 00 00 04 38 c0 38     ....D8(D.....8.8
     ba6:	04 80 80 00 00 00 64 54 4c 00 00 00 10 ee 01 00     ......dTL.......
     bb6:	00 80 ff 80 01 ee 10 80 00 00 10 08 10 08 00 00     ................
     bc6:	00 00 7f 41 7f 00 00 00                             ...A....

00000bce <flame>:
     bce:	07 09 70 f8 8c 07 9e f8 60 00 00 01 01 01 00 00     ..p.....`.......

00000bde <batteryIndicator>:
     bde:	18 0a ff 01 fd 95 95 69 01 c1 79 45 79 c1 01 05     .......i..yEy...
     bee:	fd 04 01 05 fd 05 01 bd 01 ff 03 02 02 02 02 02     ................
     bfe:	02 02 02 02 02 02 02 02 02 02 02 02 02 02 02 02     ................
     c0e:	02 03                                               ..

00000c10 <logo>:
     c10:	80 40 ff 01 01 01 01 01 01 01 01 01 01 01 01 01     .@..............
     c20:	01 81 81 81 81 81 01 01 01 01 01 01 01 01 01 01     ................
     c30:	01 01 01 01 01 01 01 01 f9 f9 f9 f9 39 39 39 39     ............9999
     c40:	01 01 01 81 81 81 81 01 01 01 01 01 01 01 81 81     ................
     c50:	81 81 81 01 01 01 01 01 01 01 01 01 01 01 01 01     ................
     c60:	01 01 01 01 01 01 01 01 81 81 81 81 81 01 01 01     ................
     c70:	01 01 01 81 81 81 81 01 01 01 01 01 01 01 01 81     ................
     c80:	81 81 81 01 01 01 39 39 39 39 f9 f9 f9 f9 01 01     ......9999......
     c90:	01 ff ff 00 00 00 00 00 00 00 00 00 00 00 00 00     ................
     ca0:	00 ff 00 00 24 ff 00 00 00 00 00 00 00 00 00 00     ....$...........
	...
     cb8:	ff ff ff ff 00 00 00 00 00 00 00 ff ff ff ff 80     ................
     cc8:	c0 e0 f0 f8 3e 1f 1f 0f 07 03 01 00 00 00 00 00     ....>...........
	...
     ce0:	00 00 80 c0 f0 f8 fc 7e 1f ff ff ff ff 00 00 00     .......~........
     cf0:	00 00 00 ff ff ff ff 00 00 00 00 00 00 00 00 ff     ................
     d00:	ff ff ff 00 00 00 00 00 00 00 ff ff ff ff 00 00     ................
     d10:	00 ff ff 00 00 00 00 00 00 00 00 00 00 00 00 00     ................
     d20:	e0 1f 08 08 09 1f e0 00 00 00 00 00 00 00 00 00     ................
	...
     d38:	ff ff ff ff 00 00 00 00 00 00 00 ff ff ff ff 0f     ................
     d48:	1f 3f 7f fc f8 f0 e0 c0 80 00 00 00 00 1c 1c 1c     .?..............
     d58:	1c 1c 1c 1c 1c 00 00 f0 fc fe ff ff e7 e1 e0 e0     ................
     d68:	e0 ff ff ff ff e0 e0 00 00 00 00 ff ff ff ff c0     ................
     d78:	00 00 00 00 00 00 c0 ff ff ff ff 00 00 00 00 00     ................
     d88:	00 00 ff ff ff ff 00 00 00 ff ff 00 00 00 00 00     ................
     d98:	c0 c0 c0 c0 00 00 00 00 00 01 02 02 02 01 00 00     ................
     da8:	00 80 80 00 00 00 00 00 00 00 00 00 00 00 00 00     ................
     db8:	ff ff ff ff c0 c0 c0 c0 00 00 00 1f 1f 1f 1f 00     ................
     dc8:	00 00 00 00 01 03 0f 1f 1f 1f 1c 18 00 00 00 00     ................
	...
     de8:	00 1f 1f 1f 1f 00 00 00 00 00 00 00 03 07 0f 1f     ................
     df8:	1f 1e 1e 1e 1e 1f 1f 0f 07 03 00 00 00 00 c0 c0     ................
     e08:	c0 c0 ff ff ff ff 00 00 00 ff ff 00 00 00 00 00     ................
     e18:	ff ff 00 00 00 00 06 06 06 06 fe fe 06 06 06 06     ................
     e28:	00 ff ff 30 30 30 30 70 e0 c0 00 00 80 e0 60 30     ...0000p......`0
     e38:	31 31 71 e1 c1 01 01 f1 f0 30 30 30 30 00 f0 f0     11q......0000...
     e48:	30 30 30 70 e0 e0 30 30 30 70 e0 c0 00 00 80 e0     000p..000p......
     e58:	70 30 30 30 70 e0 80 00 00 00 00 00 00 00 00 00     p000p...........
	...
     e84:	00 00 01 01 01 01 01 01 01 01 00 00 00 ff ff 00     ................
     e94:	00 00 00 00 ff ff 80 80 00 00 00 00 00 00 3f 3f     ..............??
     ea4:	00 00 00 00 00 3f 3f 00 00 00 00 00 3f 3f 00 00     .....??.....??..
     eb4:	0f 1f 3b 33 33 33 33 33 03 00 00 3f 3f 00 00 00     ..;33333...??...
     ec4:	00 00 3f 3f 00 00 00 00 3f 3f 00 00 00 00 3f 3f     ..??....??....??
     ed4:	00 00 07 1f 38 30 30 30 38 1f 07 00 00 00 00 00     ....80008.......
     ee4:	00 00 00 00 e0 e0 00 00 00 00 00 00 00 00 00 00     ................
	...
     f00:	00 0c 0c fc fc 00 00 00 00 00 00 00 00 00 00 00     ................
     f10:	00 ff ff 00 00 00 00 00 01 01 01 01 00 00 00 00     ................
	...
     f38:	00 00 00 ff ff 03 03 03 07 fe fe 03 03 03 07 fe     ................
     f48:	fc 00 00 f8 fe b6 33 33 33 37 3e 3c 00 00 e0 f3     ......3337><....
     f58:	1b 1b 1b 1b fe fc 00 00 1e 1f 33 33 e3 e0 00 00     ..........33....
     f68:	ff ff 03 03 03 03 00 00 ff ff 03 03 03 03 00 78     ...............x
     f78:	fe 87 03 03 03 87 fe 78 00 00 00 ff ff 00 00 00     .......x........
	...
     f90:	00 ff ff 80 80 80 80 80 80 80 80 80 80 80 80 80     ................
     fa0:	80 80 80 80 80 80 80 80 80 80 80 80 80 80 80 80     ................
     fb0:	80 80 80 80 80 80 80 80 80 80 80 83 83 80 80 80     ................
     fc0:	80 83 83 80 80 80 80 83 83 80 80 80 81 83 83 83     ................
     fd0:	83 83 83 80 80 80 80 81 83 83 83 83 83 83 80 80     ................
     fe0:	83 83 83 83 83 81 80 80 81 83 83 83 83 83 80 80     ................
     ff0:	83 83 80 80 80 80 80 80 81 83 83 83 83 83 81 80     ................
    1000:	80 98 98 9f 9f 80 80 80 80 80 80 80 80 80 80 80     ................
    1010:	80 ff                                               ..

00001012 <sun>:
    1012:	09 09 10 92 7c 7c ff 7c 7c 92 10 00 00 00 00 01     ....||.||.......
    1022:	00 00 00 00                                         ....

00001026 <Moon>:
    1026:	09 09 00 7c fe ee 83 01 01 00 00 00 00 00 00 01     ...|............
    1036:	01 01 00 00                                         ....

0000103a <__ctors_end>:
    103a:	11 24       	eor	r1, r1
    103c:	1f be       	out	0x3f, r1	; 63
    103e:	cf ef       	ldi	r28, 0xFF	; 255
    1040:	d0 e1       	ldi	r29, 0x10	; 16
    1042:	de bf       	out	0x3e, r29	; 62
    1044:	cd bf       	out	0x3d, r28	; 61

00001046 <__do_copy_data>:
    1046:	11 e0       	ldi	r17, 0x01	; 1
    1048:	a0 e0       	ldi	r26, 0x00	; 0
    104a:	b1 e0       	ldi	r27, 0x01	; 1
    104c:	e0 ea       	ldi	r30, 0xA0	; 160
    104e:	f1 e5       	ldi	r31, 0x51	; 81
    1050:	02 c0       	rjmp	.+4      	; 0x1056 <__do_copy_data+0x10>
    1052:	05 90       	lpm	r0, Z+
    1054:	0d 92       	st	X+, r0
    1056:	aa 3a       	cpi	r26, 0xAA	; 170
    1058:	b1 07       	cpc	r27, r17
    105a:	d9 f7       	brne	.-10     	; 0x1052 <__do_copy_data+0xc>

0000105c <__do_clear_bss>:
    105c:	12 e0       	ldi	r17, 0x02	; 2
    105e:	aa ea       	ldi	r26, 0xAA	; 170
    1060:	b1 e0       	ldi	r27, 0x01	; 1
    1062:	01 c0       	rjmp	.+2      	; 0x1066 <.do_clear_bss_start>

00001064 <.do_clear_bss_loop>:
    1064:	1d 92       	st	X+, r1

00001066 <.do_clear_bss_start>:
    1066:	a9 37       	cpi	r26, 0x79	; 121
    1068:	b1 07       	cpc	r27, r17
    106a:	e1 f7       	brne	.-8      	; 0x1064 <.do_clear_bss_loop>
    106c:	0e 94 be 1e 	call	0x3d7c	; 0x3d7c <main>
    1070:	0c 94 ce 28 	jmp	0x519c	; 0x519c <_exit>

00001074 <__bad_interrupt>:
    1074:	0c 94 00 00 	jmp	0	; 0x0 <__vectors>

00001078 <init_adc>:
 */ 
#include <avr/io.h>


void init_adc(){
	ADCSRA |= (1 << ADPS2) | (1 << ADPS1) | (0 << ADPS0);
    1078:	ea e7       	ldi	r30, 0x7A	; 122
    107a:	f0 e0       	ldi	r31, 0x00	; 0
    107c:	80 81       	ld	r24, Z
    107e:	86 60       	ori	r24, 0x06	; 6
    1080:	80 83       	st	Z, r24

	ADMUX |= (0 << REFS0); 
    1082:	ac e7       	ldi	r26, 0x7C	; 124
    1084:	b0 e0       	ldi	r27, 0x00	; 0
    1086:	8c 91       	ld	r24, X
    1088:	8c 93       	st	X, r24
	ADMUX |= (1 << ADLAR); // Left adjust ADC result to allow easy 8 bit reading
    108a:	8c 91       	ld	r24, X
    108c:	80 62       	ori	r24, 0x20	; 32
    108e:	8c 93       	st	X, r24

	ADCSRA |= (1 << ADEN);  // Enable ADC
    1090:	80 81       	ld	r24, Z
    1092:	80 68       	ori	r24, 0x80	; 128
    1094:	80 83       	st	Z, r24
	ADCSRA |= (1 << ADSC);  // Start A2D Conversions
    1096:	80 81       	ld	r24, Z
    1098:	80 64       	ori	r24, 0x40	; 64
    109a:	80 83       	st	Z, r24
}
    109c:	08 95       	ret

0000109e <read_adc>:

uint8_t read_adc(const uint8_t adc_input){
	//Set ADC off
	ADCSRA &= ~(1<<ADEN)|~(1<<ADSC);
    109e:	aa e7       	ldi	r26, 0x7A	; 122
    10a0:	b0 e0       	ldi	r27, 0x00	; 0
    10a2:	9c 91       	ld	r25, X
    10a4:	9c 93       	st	X, r25

	ADMUX = (0 << REFS0); // Set ADC reference to AVREF
    10a6:	ec e7       	ldi	r30, 0x7C	; 124
    10a8:	f0 e0       	ldi	r31, 0x00	; 0
    10aa:	10 82       	st	Z, r1
	ADMUX |= (1 << ADLAR); // Left adjust ADC result to allow easy 8 bit reading
    10ac:	90 81       	ld	r25, Z
    10ae:	90 62       	ori	r25, 0x20	; 32
    10b0:	90 83       	st	Z, r25
	ADMUX |= adc_input;
    10b2:	90 81       	ld	r25, Z
    10b4:	89 2b       	or	r24, r25
    10b6:	80 83       	st	Z, r24

	ADCSRA |= (1<<ADEN)|(1<<ADSC);
    10b8:	8c 91       	ld	r24, X
    10ba:	80 6c       	ori	r24, 0xC0	; 192
    10bc:	8c 93       	st	X, r24
	while ((ADCSRA & 0x10)==0);
    10be:	ea e7       	ldi	r30, 0x7A	; 122
    10c0:	f0 e0       	ldi	r31, 0x00	; 0
    10c2:	80 81       	ld	r24, Z
    10c4:	84 ff       	sbrs	r24, 4
    10c6:	fd cf       	rjmp	.-6      	; 0x10c2 <read_adc+0x24>
	ADCSRA|=0x10;
    10c8:	ea e7       	ldi	r30, 0x7A	; 122
    10ca:	f0 e0       	ldi	r31, 0x00	; 0
    10cc:	80 81       	ld	r24, Z
    10ce:	80 61       	ori	r24, 0x10	; 16
    10d0:	80 83       	st	Z, r24

	return ADCH;
    10d2:	80 91 79 00 	lds	r24, 0x0079
}
    10d6:	08 95       	ret

000010d8 <read_adc_16>:


uint16_t read_adc_16(const uint8_t adc_input){
	//Set ADC off
	ADCSRA &= ~(1<<ADEN)|~(1<<ADSC);
    10d8:	aa e7       	ldi	r26, 0x7A	; 122
    10da:	b0 e0       	ldi	r27, 0x00	; 0
    10dc:	9c 91       	ld	r25, X
    10de:	9c 93       	st	X, r25

	ADMUX = (0 << REFS0); // Set ADC reference to AVREF
    10e0:	ec e7       	ldi	r30, 0x7C	; 124
    10e2:	f0 e0       	ldi	r31, 0x00	; 0
    10e4:	10 82       	st	Z, r1
	ADMUX &= ~(1 << ADLAR); // Left adjust ADC result to allow easy 8 bit reading
    10e6:	90 81       	ld	r25, Z
    10e8:	9f 7d       	andi	r25, 0xDF	; 223
    10ea:	90 83       	st	Z, r25
	ADMUX |= adc_input;
    10ec:	90 81       	ld	r25, Z
    10ee:	89 2b       	or	r24, r25
    10f0:	80 83       	st	Z, r24

	ADCSRA |= (1<<ADEN)|(1<<ADSC);
    10f2:	8c 91       	ld	r24, X
    10f4:	80 6c       	ori	r24, 0xC0	; 192
    10f6:	8c 93       	st	X, r24
	while ((ADCSRA & 0x10)==0);
    10f8:	ea e7       	ldi	r30, 0x7A	; 122
    10fa:	f0 e0       	ldi	r31, 0x00	; 0
    10fc:	80 81       	ld	r24, Z
    10fe:	84 ff       	sbrs	r24, 4
    1100:	fd cf       	rjmp	.-6      	; 0x10fc <read_adc_16+0x24>
	ADCSRA|=0x10;
    1102:	ea e7       	ldi	r30, 0x7A	; 122
    1104:	f0 e0       	ldi	r31, 0x00	; 0
    1106:	80 81       	ld	r24, Z
    1108:	80 61       	ori	r24, 0x10	; 16
    110a:	80 83       	st	Z, r24

	return ADC;
    110c:	20 91 78 00 	lds	r18, 0x0078
    1110:	30 91 79 00 	lds	r19, 0x0079
    1114:	82 2f       	mov	r24, r18
    1116:	93 2f       	mov	r25, r19
    1118:	08 95       	ret

0000111a <displayReadFontData>:
//
// Font Functions
//

uint8_t displayReadFontData(const uint8_t* ptr) {
	return pgm_read_byte(ptr);
    111a:	fc 01       	movw	r30, r24
    111c:	84 91       	lpm	r24, Z+
}
    111e:	08 95       	ret

00001120 <displaySelectFont>:

void displaySelectFont(const uint8_t* font, displayFontCallback callback, uint8_t color) {
	displayFont = font;
    1120:	90 93 ac 01 	sts	0x01AC, r25
    1124:	80 93 ab 01 	sts	0x01AB, r24
	displayFontRead = callback;
    1128:	70 93 ae 01 	sts	0x01AE, r23
    112c:	60 93 ad 01 	sts	0x01AD, r22
	displayFontColor = color;
    1130:	40 93 b2 01 	sts	0x01B2, r20
}
    1134:	08 95       	ret

00001136 <displayCharWidth>:
		}
		str++;
	}
}

uint8_t displayCharWidth(char c) {
    1136:	0f 93       	push	r16
    1138:	1f 93       	push	r17
    113a:	18 2f       	mov	r17, r24
	uint8_t width = 0;
	uint8_t firstChar = displayFontRead(displayFont+FONT_FIRST_CHAR);
    113c:	80 91 ab 01 	lds	r24, 0x01AB
    1140:	90 91 ac 01 	lds	r25, 0x01AC
    1144:	e0 91 ad 01 	lds	r30, 0x01AD
    1148:	f0 91 ae 01 	lds	r31, 0x01AE
    114c:	04 96       	adiw	r24, 0x04	; 4
    114e:	09 95       	icall
    1150:	08 2f       	mov	r16, r24
	uint8_t charCount = displayFontRead(displayFont+FONT_CHAR_COUNT);
    1152:	80 91 ab 01 	lds	r24, 0x01AB
    1156:	90 91 ac 01 	lds	r25, 0x01AC
    115a:	e0 91 ad 01 	lds	r30, 0x01AD
    115e:	f0 91 ae 01 	lds	r31, 0x01AE
    1162:	05 96       	adiw	r24, 0x05	; 5
    1164:	09 95       	icall
	
	// read width data
	if(c >= firstChar && c < (firstChar+charCount)) {
    1166:	10 17       	cp	r17, r16
    1168:	d8 f0       	brcs	.+54     	; 0x11a0 <displayCharWidth+0x6a>
    116a:	21 2f       	mov	r18, r17
    116c:	30 e0       	ldi	r19, 0x00	; 0
    116e:	40 2f       	mov	r20, r16
    1170:	50 e0       	ldi	r21, 0x00	; 0
    1172:	ba 01       	movw	r22, r20
    1174:	68 0f       	add	r22, r24
    1176:	71 1d       	adc	r23, r1
    1178:	26 17       	cp	r18, r22
    117a:	37 07       	cpc	r19, r23
    117c:	9c f4       	brge	.+38     	; 0x11a4 <displayCharWidth+0x6e>
		c -= firstChar;
    117e:	10 1b       	sub	r17, r16
		width = displayFontRead(displayFont+FONT_WIDTH_TABLE+c)+1;
    1180:	81 2f       	mov	r24, r17
    1182:	90 e0       	ldi	r25, 0x00	; 0
    1184:	06 96       	adiw	r24, 0x06	; 6
    1186:	20 91 ab 01 	lds	r18, 0x01AB
    118a:	30 91 ac 01 	lds	r19, 0x01AC
    118e:	e0 91 ad 01 	lds	r30, 0x01AD
    1192:	f0 91 ae 01 	lds	r31, 0x01AE
    1196:	82 0f       	add	r24, r18
    1198:	93 1f       	adc	r25, r19
    119a:	09 95       	icall
    119c:	8f 5f       	subi	r24, 0xFF	; 255
    119e:	03 c0       	rjmp	.+6      	; 0x11a6 <displayCharWidth+0x70>
		str++;
	}
}

uint8_t displayCharWidth(char c) {
	uint8_t width = 0;
    11a0:	80 e0       	ldi	r24, 0x00	; 0
    11a2:	01 c0       	rjmp	.+2      	; 0x11a6 <displayCharWidth+0x70>
    11a4:	80 e0       	ldi	r24, 0x00	; 0
		c -= firstChar;
		width = displayFontRead(displayFont+FONT_WIDTH_TABLE+c)+1;
	}
	
	return width;
}
    11a6:	1f 91       	pop	r17
    11a8:	0f 91       	pop	r16
    11aa:	08 95       	ret

000011ac <displayStringWidth>:

uint16_t displayStringWidth(char* str) {
    11ac:	ef 92       	push	r14
    11ae:	ff 92       	push	r15
    11b0:	0f 93       	push	r16
    11b2:	1f 93       	push	r17
    11b4:	cf 93       	push	r28
    11b6:	df 93       	push	r29
    11b8:	fc 01       	movw	r30, r24
	uint16_t width = 0;
	
	while(*str != 0) {
    11ba:	80 81       	ld	r24, Z
    11bc:	88 23       	and	r24, r24
    11be:	79 f0       	breq	.+30     	; 0x11de <displayStringWidth+0x32>
	}
	
	return width;
}

uint16_t displayStringWidth(char* str) {
    11c0:	8f 01       	movw	r16, r30
    11c2:	0f 5f       	subi	r16, 0xFF	; 255
    11c4:	1f 4f       	sbci	r17, 0xFF	; 255
	uint16_t width = 0;
    11c6:	c0 e0       	ldi	r28, 0x00	; 0
    11c8:	d0 e0       	ldi	r29, 0x00	; 0
	
	while(*str != 0) {
		width += displayCharWidth(*str++);
    11ca:	0e 94 9b 08 	call	0x1136	; 0x1136 <displayCharWidth>
    11ce:	c8 0f       	add	r28, r24
    11d0:	d1 1d       	adc	r29, r1
}

uint16_t displayStringWidth(char* str) {
	uint16_t width = 0;
	
	while(*str != 0) {
    11d2:	f8 01       	movw	r30, r16
    11d4:	81 91       	ld	r24, Z+
    11d6:	8f 01       	movw	r16, r30
    11d8:	88 23       	and	r24, r24
    11da:	b9 f7       	brne	.-18     	; 0x11ca <displayStringWidth+0x1e>
    11dc:	02 c0       	rjmp	.+4      	; 0x11e2 <displayStringWidth+0x36>
	
	return width;
}

uint16_t displayStringWidth(char* str) {
	uint16_t width = 0;
    11de:	c0 e0       	ldi	r28, 0x00	; 0
    11e0:	d0 e0       	ldi	r29, 0x00	; 0
	while(*str != 0) {
		width += displayCharWidth(*str++);
	}
	
	return width;
}
    11e2:	7e 01       	movw	r14, r28
    11e4:	8c 2f       	mov	r24, r28
    11e6:	9f 2d       	mov	r25, r15
    11e8:	df 91       	pop	r29
    11ea:	cf 91       	pop	r28
    11ec:	1f 91       	pop	r17
    11ee:	0f 91       	pop	r16
    11f0:	ff 90       	pop	r15
    11f2:	ef 90       	pop	r14
    11f4:	08 95       	ret

000011f6 <displayStringWidth_P>:

uint16_t displayStringWidth_P(PGM_P str) {
    11f6:	0f 93       	push	r16
    11f8:	1f 93       	push	r17
    11fa:	cf 93       	push	r28
    11fc:	df 93       	push	r29
    11fe:	ec 01       	movw	r28, r24
	uint16_t width = 0;
	
	while(pgm_read_byte(str) != 0) {
    1200:	fe 01       	movw	r30, r28
    1202:	24 91       	lpm	r18, Z+
    1204:	22 23       	and	r18, r18
    1206:	79 f0       	breq	.+30     	; 0x1226 <displayStringWidth_P+0x30>
	
	return width;
}

uint16_t displayStringWidth_P(PGM_P str) {
	uint16_t width = 0;
    1208:	00 e0       	ldi	r16, 0x00	; 0
    120a:	10 e0       	ldi	r17, 0x00	; 0
	
	while(pgm_read_byte(str) != 0) {
		width += displayCharWidth(pgm_read_byte(str++));
    120c:	21 96       	adiw	r28, 0x01	; 1
    120e:	fc 01       	movw	r30, r24
    1210:	84 91       	lpm	r24, Z+
    1212:	0e 94 9b 08 	call	0x1136	; 0x1136 <displayCharWidth>
    1216:	08 0f       	add	r16, r24
    1218:	11 1d       	adc	r17, r1
    121a:	ce 01       	movw	r24, r28
}

uint16_t displayStringWidth_P(PGM_P str) {
	uint16_t width = 0;
	
	while(pgm_read_byte(str) != 0) {
    121c:	fe 01       	movw	r30, r28
    121e:	24 91       	lpm	r18, Z+
    1220:	22 23       	and	r18, r18
    1222:	a1 f7       	brne	.-24     	; 0x120c <displayStringWidth_P+0x16>
    1224:	02 c0       	rjmp	.+4      	; 0x122a <displayStringWidth_P+0x34>
	
	return width;
}

uint16_t displayStringWidth_P(PGM_P str) {
	uint16_t width = 0;
    1226:	00 e0       	ldi	r16, 0x00	; 0
    1228:	10 e0       	ldi	r17, 0x00	; 0
	while(pgm_read_byte(str) != 0) {
		width += displayCharWidth(pgm_read_byte(str++));
	}
	
	return width;
}
    122a:	80 2f       	mov	r24, r16
    122c:	91 2f       	mov	r25, r17
    122e:	df 91       	pop	r29
    1230:	cf 91       	pop	r28
    1232:	1f 91       	pop	r17
    1234:	0f 91       	pop	r16
    1236:	08 95       	ret

00001238 <displayWriteCommand>:
uint8_t displayReadData(void) {
	displayDoReadData(1);							// dummy read
	return displayDoReadData(0);						// "real" read
}

void displayWriteCommand(uint8_t cmd, uint8_t chip) {
    1238:	df 93       	push	r29
    123a:	cf 93       	push	r28
    123c:	0f 92       	push	r0
    123e:	cd b7       	in	r28, 0x3d	; 61
    1240:	de b7       	in	r29, 0x3e	; 62
	if(chip == CHIP1) {
    1242:	66 23       	and	r22, r22
    1244:	19 f4       	brne	.+6      	; 0x124c <displayWriteCommand+0x14>
		LCD_CMD_PORT &= ~(0x01 << CSEL2);			// deselect chip 2
    1246:	5a 98       	cbi	0x0b, 2	; 11
		LCD_CMD_PORT |= 0x01 << CSEL1;				// select chip 1
    1248:	5b 9a       	sbi	0x0b, 3	; 11
    124a:	04 c0       	rjmp	.+8      	; 0x1254 <displayWriteCommand+0x1c>
	} else if(chip == CHIP2) {
    124c:	61 30       	cpi	r22, 0x01	; 1
    124e:	11 f4       	brne	.+4      	; 0x1254 <displayWriteCommand+0x1c>
		LCD_CMD_PORT &= ~(0x01 << CSEL1);			// deselect chip 1
    1250:	5b 98       	cbi	0x0b, 3	; 11
		LCD_CMD_PORT |= 0x01 << CSEL2;				// select chip 2
    1252:	5a 9a       	sbi	0x0b, 2	; 11
	}
	
	LCD_CMD_PORT &= ~(0x01 << D_I);					// D/I = 0
    1254:	5c 98       	cbi	0x0b, 4	; 11
	LCD_CMD_PORT &= ~(0x01 << R_W);					// R/W = 0
    1256:	5d 98       	cbi	0x0b, 5	; 11
	LCD_DATA_DIR = 0xFF;							// data port is output
    1258:	9f ef       	ldi	r25, 0xFF	; 255
    125a:	94 b9       	out	0x04, r25	; 4
	LCD_DATA_OUT = cmd;								// write command
    125c:	85 b9       	out	0x05, r24	; 5
}



inline void displayEnable(void) {
	LCD_CMD_PORT |= 0x01 << EN;						// EN high level width: min. 450ns
    125e:	5e 9a       	sbi	0x0b, 6	; 11
	...
	asm volatile("nop\n\t"
    1278:	00 00       	nop
				 "nop\n\t"
				 "nop\n\t"
				 "nop\n\t"
				 "nop\n\t"
				 ::);
	LCD_CMD_PORT &= ~(0x01 << EN);
    127a:	5e 98       	cbi	0x0b, 6	; 11
	for(volatile uint8_t i=0; i<30; i++);			// a little delay loop (faster than reading the busy flag)
    127c:	19 82       	std	Y+1, r1	; 0x01
    127e:	89 81       	ldd	r24, Y+1	; 0x01
    1280:	8e 31       	cpi	r24, 0x1E	; 30
    1282:	30 f4       	brcc	.+12     	; 0x1290 <displayWriteCommand+0x58>
    1284:	89 81       	ldd	r24, Y+1	; 0x01
    1286:	8f 5f       	subi	r24, 0xFF	; 255
    1288:	89 83       	std	Y+1, r24	; 0x01
    128a:	89 81       	ldd	r24, Y+1	; 0x01
    128c:	8e 31       	cpi	r24, 0x1E	; 30
    128e:	d0 f3       	brcs	.-12     	; 0x1284 <displayWriteCommand+0x4c>
	LCD_CMD_PORT &= ~(0x01 << D_I);					// D/I = 0
	LCD_CMD_PORT &= ~(0x01 << R_W);					// R/W = 0
	LCD_DATA_DIR = 0xFF;							// data port is output
	LCD_DATA_OUT = cmd;								// write command
	displayEnable();									// enable
	LCD_DATA_OUT = 0x00;
    1290:	15 b8       	out	0x05, r1	; 5
}
    1292:	0f 90       	pop	r0
    1294:	cf 91       	pop	r28
    1296:	df 91       	pop	r29
    1298:	08 95       	ret

0000129a <displayGotoXY>:
	}
	
	return width;
}

void displayGotoXY(uint8_t x, uint8_t y) {
    129a:	1f 93       	push	r17
	uint8_t chip = CHIP1, cmd;
	
	if(x > 127) x = 0;								// ensure that coordinates are legal
    129c:	88 23       	and	r24, r24
    129e:	0c f4       	brge	.+2      	; 0x12a2 <displayGotoXY+0x8>
    12a0:	80 e0       	ldi	r24, 0x00	; 0
	if(y > 63)  y = 0;
    12a2:	60 34       	cpi	r22, 0x40	; 64
    12a4:	08 f0       	brcs	.+2      	; 0x12a8 <displayGotoXY+0xe>
    12a6:	60 e0       	ldi	r22, 0x00	; 0
	
	displayCoord.x = x;								// save new coordinates
    12a8:	80 93 af 01 	sts	0x01AF, r24
	displayCoord.y = y;
    12ac:	60 93 b0 01 	sts	0x01B0, r22
	displayCoord.page = y/8;
    12b0:	66 95       	lsr	r22
    12b2:	66 95       	lsr	r22
    12b4:	66 95       	lsr	r22
    12b6:	60 93 b1 01 	sts	0x01B1, r22
	
	if(x >= 64) {									// select the right chip
    12ba:	80 34       	cpi	r24, 0x40	; 64
    12bc:	18 f0       	brcs	.+6      	; 0x12c4 <displayGotoXY+0x2a>
		x -= 64;
    12be:	80 54       	subi	r24, 0x40	; 64
		chip = CHIP2;
    12c0:	61 e0       	ldi	r22, 0x01	; 1
    12c2:	01 c0       	rjmp	.+2      	; 0x12c6 <displayGotoXY+0x2c>
	
	return width;
}

void displayGotoXY(uint8_t x, uint8_t y) {
	uint8_t chip = CHIP1, cmd;
    12c4:	60 e0       	ldi	r22, 0x00	; 0
	if(x >= 64) {									// select the right chip
		x -= 64;
		chip = CHIP2;
	}
	cmd = LCD_SET_ADD | x;
	displayWriteCommand(cmd, chip);					// set x address on active chip
    12c6:	80 64       	ori	r24, 0x40	; 64
    12c8:	0e 94 1c 09 	call	0x1238	; 0x1238 <displayWriteCommand>
	
	cmd = LCD_SET_PAGE | displayCoord.page;			// set y address on both chips
    12cc:	10 91 b1 01 	lds	r17, 0x01B1
    12d0:	18 6b       	ori	r17, 0xB8	; 184
	displayWriteCommand(cmd, CHIP1);
    12d2:	81 2f       	mov	r24, r17
    12d4:	60 e0       	ldi	r22, 0x00	; 0
    12d6:	0e 94 1c 09 	call	0x1238	; 0x1238 <displayWriteCommand>
	displayWriteCommand(cmd, CHIP2);
    12da:	81 2f       	mov	r24, r17
    12dc:	61 e0       	ldi	r22, 0x01	; 1
    12de:	0e 94 1c 09 	call	0x1238	; 0x1238 <displayWriteCommand>
}
    12e2:	1f 91       	pop	r17
    12e4:	08 95       	ret

000012e6 <displayDoReadData>:
				 ::);
	LCD_CMD_PORT &= ~(0x01 << EN);
	for(volatile uint8_t i=0; i<30; i++);			// a little delay loop (faster than reading the busy flag)
}

uint8_t displayDoReadData(uint8_t first) {
    12e6:	1f 93       	push	r17
    12e8:	df 93       	push	r29
    12ea:	cf 93       	push	r28
    12ec:	0f 92       	push	r0
    12ee:	cd b7       	in	r28, 0x3d	; 61
    12f0:	de b7       	in	r29, 0x3e	; 62
	uint8_t data;
	volatile uint8_t i;
	
	LCD_DATA_OUT = 0x00;
    12f2:	15 b8       	out	0x05, r1	; 5
	LCD_DATA_DIR = 0x00;							// data port is input
    12f4:	14 b8       	out	0x04, r1	; 4
	
	if(displayCoord.x < 64) {
    12f6:	90 91 af 01 	lds	r25, 0x01AF
    12fa:	90 34       	cpi	r25, 0x40	; 64
    12fc:	18 f4       	brcc	.+6      	; 0x1304 <displayDoReadData+0x1e>
		LCD_CMD_PORT &= ~(0x01 << CSEL2);			// deselect chip 2
    12fe:	5a 98       	cbi	0x0b, 2	; 11
		LCD_CMD_PORT |= 0x01 << CSEL1;				// select chip 1
    1300:	5b 9a       	sbi	0x0b, 3	; 11
    1302:	02 c0       	rjmp	.+4      	; 0x1308 <displayDoReadData+0x22>
	} else if(displayCoord.x >= 64) {
		LCD_CMD_PORT &= ~(0x01 << CSEL1);			// deselect chip 1
    1304:	5b 98       	cbi	0x0b, 3	; 11
		LCD_CMD_PORT |= 0x01 << CSEL2;				// select chip 2
    1306:	5a 9a       	sbi	0x0b, 2	; 11
	}
	if(displayCoord.x == 64 && first) {				// chip2 X-address = 0
    1308:	90 91 af 01 	lds	r25, 0x01AF
    130c:	90 34       	cpi	r25, 0x40	; 64
    130e:	31 f4       	brne	.+12     	; 0x131c <displayDoReadData+0x36>
    1310:	88 23       	and	r24, r24
    1312:	21 f0       	breq	.+8      	; 0x131c <displayDoReadData+0x36>
		displayWriteCommand(LCD_SET_ADD, CHIP2); 	// wuff wuff
    1314:	80 e4       	ldi	r24, 0x40	; 64
    1316:	61 e0       	ldi	r22, 0x01	; 1
    1318:	0e 94 1c 09 	call	0x1238	; 0x1238 <displayWriteCommand>
	}
	
	LCD_CMD_PORT |= 0x01 << D_I;					// D/I = 1
    131c:	5c 9a       	sbi	0x0b, 4	; 11
	LCD_CMD_PORT |= 0x01 << R_W;					// R/W = 1
    131e:	5d 9a       	sbi	0x0b, 5	; 11
	
	LCD_CMD_PORT |= 0x01 << EN;						// EN high level width: min. 450ns
    1320:	5e 9a       	sbi	0x0b, 6	; 11
	asm volatile("nop\n\t"
    1322:	00 00       	nop
    1324:	00 00       	nop
    1326:	00 00       	nop
				 "nop\n\t"
				 "nop\n\t"
				 ::);
	
	data = LCD_DATA_IN;								// read Data			 
    1328:	13 b1       	in	r17, 0x03	; 3
	
	LCD_CMD_PORT &= ~(0x01 << EN);
    132a:	5e 98       	cbi	0x0b, 6	; 11
	for(i=0; i<8; i++);								// a little delay loop (faster than reading the busy flag)
    132c:	19 82       	std	Y+1, r1	; 0x01
    132e:	89 81       	ldd	r24, Y+1	; 0x01
    1330:	88 30       	cpi	r24, 0x08	; 8
    1332:	30 f4       	brcc	.+12     	; 0x1340 <displayDoReadData+0x5a>
    1334:	89 81       	ldd	r24, Y+1	; 0x01
    1336:	8f 5f       	subi	r24, 0xFF	; 255
    1338:	89 83       	std	Y+1, r24	; 0x01
    133a:	89 81       	ldd	r24, Y+1	; 0x01
    133c:	88 30       	cpi	r24, 0x08	; 8
    133e:	d0 f3       	brcs	.-12     	; 0x1334 <displayDoReadData+0x4e>
	
	LCD_DATA_DIR = 0xFF;
    1340:	8f ef       	ldi	r24, 0xFF	; 255
    1342:	84 b9       	out	0x04, r24	; 4
	
	displayGotoXY(displayCoord.x, displayCoord.y);
    1344:	80 91 af 01 	lds	r24, 0x01AF
    1348:	60 91 b0 01 	lds	r22, 0x01B0
    134c:	0e 94 4d 09 	call	0x129a	; 0x129a <displayGotoXY>
	
	if(displayInverted)
    1350:	80 91 aa 01 	lds	r24, 0x01AA
    1354:	81 11       	cpse	r24, r1
		data = ~data;
    1356:	10 95       	com	r17
	return data;
}
    1358:	81 2f       	mov	r24, r17
    135a:	0f 90       	pop	r0
    135c:	cf 91       	pop	r28
    135e:	df 91       	pop	r29
    1360:	1f 91       	pop	r17
    1362:	08 95       	ret

00001364 <displayReadData>:

uint8_t displayReadData(void) {
	displayDoReadData(1);							// dummy read
    1364:	81 e0       	ldi	r24, 0x01	; 1
    1366:	0e 94 73 09 	call	0x12e6	; 0x12e6 <displayDoReadData>
	return displayDoReadData(0);						// "real" read
    136a:	80 e0       	ldi	r24, 0x00	; 0
    136c:	0e 94 73 09 	call	0x12e6	; 0x12e6 <displayDoReadData>
}
    1370:	08 95       	ret

00001372 <displayWriteData>:
	LCD_DATA_OUT = cmd;								// write command
	displayEnable();									// enable
	LCD_DATA_OUT = 0x00;
}

void displayWriteData(uint8_t data) {
    1372:	cf 92       	push	r12
    1374:	df 92       	push	r13
    1376:	ef 92       	push	r14
    1378:	ff 92       	push	r15
    137a:	0f 93       	push	r16
    137c:	1f 93       	push	r17
    137e:	df 93       	push	r29
    1380:	cf 93       	push	r28
    1382:	0f 92       	push	r0
    1384:	cd b7       	in	r28, 0x3d	; 61
    1386:	de b7       	in	r29, 0x3e	; 62
    1388:	08 2f       	mov	r16, r24
#ifdef DEBUG
	volatile uint16_t i;
	for(i=0; i<5000; i++);
#endif

	if(displayCoord.x >= 128)
    138a:	80 91 af 01 	lds	r24, 0x01AF
    138e:	88 23       	and	r24, r24
    1390:	0c f4       	brge	.+2      	; 0x1394 <displayWriteData+0x22>
    1392:	aa c0       	rjmp	.+340    	; 0x14e8 <displayWriteData+0x176>
		return;

	if(displayCoord.x < 64) {
    1394:	80 34       	cpi	r24, 0x40	; 64
    1396:	18 f4       	brcc	.+6      	; 0x139e <displayWriteData+0x2c>
		LCD_CMD_PORT &= ~(0x01 << CSEL2);			// deselect chip 2
    1398:	5a 98       	cbi	0x0b, 2	; 11
		LCD_CMD_PORT |= 0x01 << CSEL1;				// select chip 1
    139a:	5b 9a       	sbi	0x0b, 3	; 11
    139c:	02 c0       	rjmp	.+4      	; 0x13a2 <displayWriteData+0x30>
	} else if(displayCoord.x >= 64) {
		LCD_CMD_PORT &= ~(0x01 << CSEL1);			// deselect chip 1
    139e:	5b 98       	cbi	0x0b, 3	; 11
		LCD_CMD_PORT |= 0x01 << CSEL2;				// select chip 2
    13a0:	5a 9a       	sbi	0x0b, 2	; 11
	}
	if(displayCoord.x == 64)							// chip2 X-address = 0
    13a2:	80 91 af 01 	lds	r24, 0x01AF
    13a6:	80 34       	cpi	r24, 0x40	; 64
    13a8:	19 f4       	brne	.+6      	; 0x13b0 <displayWriteData+0x3e>
		displayWriteCommand(LCD_SET_ADD, CHIP2);
    13aa:	61 e0       	ldi	r22, 0x01	; 1
    13ac:	0e 94 1c 09 	call	0x1238	; 0x1238 <displayWriteCommand>
	
	LCD_CMD_PORT |= 0x01 << D_I;					// D/I = 1
    13b0:	5c 9a       	sbi	0x0b, 4	; 11
	LCD_CMD_PORT &= ~(0x01 << R_W);					// R/W = 0
    13b2:	5d 98       	cbi	0x0b, 5	; 11
	LCD_DATA_DIR = 0xFF;							// data port is output
    13b4:	8f ef       	ldi	r24, 0xFF	; 255
    13b6:	84 b9       	out	0x04, r24	; 4
	
	
	yOffset = displayCoord.y%8;
    13b8:	80 91 b0 01 	lds	r24, 0x01B0
    13bc:	0f 2e       	mov	r0, r31
    13be:	f7 e0       	ldi	r31, 0x07	; 7
    13c0:	ff 2e       	mov	r15, r31
    13c2:	f0 2d       	mov	r31, r0
    13c4:	f8 22       	and	r15, r24
	if(yOffset != 0) {
    13c6:	09 f4       	brne	.+2      	; 0x13ca <displayWriteData+0x58>
    13c8:	6b c0       	rjmp	.+214    	; 0x14a0 <displayWriteData+0x12e>
		// first page
		cmdPort = LCD_CMD_PORT;						// save command port
    13ca:	eb b0       	in	r14, 0x0b	; 11
		displayData = displayReadData();
    13cc:	0e 94 b2 09 	call	0x1364	; 0x1364 <displayReadData>
		
		LCD_CMD_PORT = cmdPort;						// restore command port
    13d0:	eb b8       	out	0x0b, r14	; 11
		LCD_DATA_DIR = 0xFF;						// data port is output
    13d2:	9f ef       	ldi	r25, 0xFF	; 255
    13d4:	94 b9       	out	0x04, r25	; 4
		
		displayData |= data << yOffset;
    13d6:	10 e0       	ldi	r17, 0x00	; 0
    13d8:	cf 2c       	mov	r12, r15
    13da:	dd 24       	eor	r13, r13
    13dc:	98 01       	movw	r18, r16
    13de:	02 c0       	rjmp	.+4      	; 0x13e4 <displayWriteData+0x72>
    13e0:	22 0f       	add	r18, r18
    13e2:	33 1f       	adc	r19, r19
    13e4:	fa 94       	dec	r15
    13e6:	e2 f7       	brpl	.-8      	; 0x13e0 <displayWriteData+0x6e>
    13e8:	82 2b       	or	r24, r18
		if(displayInverted)
    13ea:	90 91 aa 01 	lds	r25, 0x01AA
    13ee:	91 11       	cpse	r25, r1
			displayData = ~displayData;
    13f0:	80 95       	com	r24
		LCD_DATA_OUT = displayData;					// write data
    13f2:	85 b9       	out	0x05, r24	; 5
}



inline void displayEnable(void) {
	LCD_CMD_PORT |= 0x01 << EN;						// EN high level width: min. 450ns
    13f4:	5e 9a       	sbi	0x0b, 6	; 11
	...
	asm volatile("nop\n\t"
    140e:	00 00       	nop
				 "nop\n\t"
				 "nop\n\t"
				 "nop\n\t"
				 "nop\n\t"
				 ::);
	LCD_CMD_PORT &= ~(0x01 << EN);
    1410:	5e 98       	cbi	0x0b, 6	; 11
	for(volatile uint8_t i=0; i<30; i++);			// a little delay loop (faster than reading the busy flag)
    1412:	19 82       	std	Y+1, r1	; 0x01
    1414:	89 81       	ldd	r24, Y+1	; 0x01
    1416:	8e 31       	cpi	r24, 0x1E	; 30
    1418:	30 f4       	brcc	.+12     	; 0x1426 <displayWriteData+0xb4>
    141a:	89 81       	ldd	r24, Y+1	; 0x01
    141c:	8f 5f       	subi	r24, 0xFF	; 255
    141e:	89 83       	std	Y+1, r24	; 0x01
    1420:	89 81       	ldd	r24, Y+1	; 0x01
    1422:	8e 31       	cpi	r24, 0x1E	; 30
    1424:	d0 f3       	brcs	.-12     	; 0x141a <displayWriteData+0xa8>
			displayData = ~displayData;
		LCD_DATA_OUT = displayData;					// write data
		displayEnable();								// enable
		
		// second page
		displayGotoXY(displayCoord.x, displayCoord.y+8);
    1426:	60 91 b0 01 	lds	r22, 0x01B0
    142a:	68 5f       	subi	r22, 0xF8	; 248
    142c:	80 91 af 01 	lds	r24, 0x01AF
    1430:	0e 94 4d 09 	call	0x129a	; 0x129a <displayGotoXY>
		
		displayData = displayReadData();
    1434:	0e 94 b2 09 	call	0x1364	; 0x1364 <displayReadData>
		
		LCD_CMD_PORT = cmdPort;						// restore command port
    1438:	eb b8       	out	0x0b, r14	; 11
		LCD_DATA_DIR = 0xFF;						// data port is output
    143a:	9f ef       	ldi	r25, 0xFF	; 255
    143c:	94 b9       	out	0x04, r25	; 4
		
		displayData |= data >> (8-yOffset);
    143e:	28 e0       	ldi	r18, 0x08	; 8
    1440:	30 e0       	ldi	r19, 0x00	; 0
    1442:	2c 19       	sub	r18, r12
    1444:	3d 09       	sbc	r19, r13
    1446:	02 c0       	rjmp	.+4      	; 0x144c <displayWriteData+0xda>
    1448:	15 95       	asr	r17
    144a:	07 95       	ror	r16
    144c:	2a 95       	dec	r18
    144e:	e2 f7       	brpl	.-8      	; 0x1448 <displayWriteData+0xd6>
    1450:	08 2b       	or	r16, r24
		if(displayInverted)
    1452:	80 91 aa 01 	lds	r24, 0x01AA
    1456:	81 11       	cpse	r24, r1
			displayData = ~displayData;
    1458:	00 95       	com	r16
		LCD_DATA_OUT = displayData;					// write data
    145a:	05 b9       	out	0x05, r16	; 5
}



inline void displayEnable(void) {
	LCD_CMD_PORT |= 0x01 << EN;						// EN high level width: min. 450ns
    145c:	5e 9a       	sbi	0x0b, 6	; 11
	...
	asm volatile("nop\n\t"
    1476:	00 00       	nop
				 "nop\n\t"
				 "nop\n\t"
				 "nop\n\t"
				 "nop\n\t"
				 ::);
	LCD_CMD_PORT &= ~(0x01 << EN);
    1478:	5e 98       	cbi	0x0b, 6	; 11
	for(volatile uint8_t i=0; i<30; i++);			// a little delay loop (faster than reading the busy flag)
    147a:	19 82       	std	Y+1, r1	; 0x01
    147c:	89 81       	ldd	r24, Y+1	; 0x01
    147e:	8e 31       	cpi	r24, 0x1E	; 30
    1480:	30 f4       	brcc	.+12     	; 0x148e <displayWriteData+0x11c>
    1482:	89 81       	ldd	r24, Y+1	; 0x01
    1484:	8f 5f       	subi	r24, 0xFF	; 255
    1486:	89 83       	std	Y+1, r24	; 0x01
    1488:	89 81       	ldd	r24, Y+1	; 0x01
    148a:	8e 31       	cpi	r24, 0x1E	; 30
    148c:	d0 f3       	brcs	.-12     	; 0x1482 <displayWriteData+0x110>
		if(displayInverted)
			displayData = ~displayData;
		LCD_DATA_OUT = displayData;					// write data
		displayEnable();								// enable
		
		displayGotoXY(displayCoord.x+1, displayCoord.y-8);
    148e:	80 91 af 01 	lds	r24, 0x01AF
    1492:	60 91 b0 01 	lds	r22, 0x01B0
    1496:	68 50       	subi	r22, 0x08	; 8
    1498:	8f 5f       	subi	r24, 0xFF	; 255
    149a:	0e 94 4d 09 	call	0x129a	; 0x129a <displayGotoXY>
    149e:	23 c0       	rjmp	.+70     	; 0x14e6 <displayWriteData+0x174>
	} else {
		if(displayInverted)
    14a0:	80 91 aa 01 	lds	r24, 0x01AA
    14a4:	81 11       	cpse	r24, r1
			data = ~data;
    14a6:	00 95       	com	r16
		LCD_DATA_OUT = data;						// write data
    14a8:	05 b9       	out	0x05, r16	; 5
}



inline void displayEnable(void) {
	LCD_CMD_PORT |= 0x01 << EN;						// EN high level width: min. 450ns
    14aa:	5e 9a       	sbi	0x0b, 6	; 11
	...
	asm volatile("nop\n\t"
    14c4:	00 00       	nop
				 "nop\n\t"
				 "nop\n\t"
				 "nop\n\t"
				 "nop\n\t"
				 ::);
	LCD_CMD_PORT &= ~(0x01 << EN);
    14c6:	5e 98       	cbi	0x0b, 6	; 11
	for(volatile uint8_t i=0; i<30; i++);			// a little delay loop (faster than reading the busy flag)
    14c8:	19 82       	std	Y+1, r1	; 0x01
    14ca:	89 81       	ldd	r24, Y+1	; 0x01
    14cc:	8e 31       	cpi	r24, 0x1E	; 30
    14ce:	30 f4       	brcc	.+12     	; 0x14dc <displayWriteData+0x16a>
    14d0:	89 81       	ldd	r24, Y+1	; 0x01
    14d2:	8f 5f       	subi	r24, 0xFF	; 255
    14d4:	89 83       	std	Y+1, r24	; 0x01
    14d6:	89 81       	ldd	r24, Y+1	; 0x01
    14d8:	8e 31       	cpi	r24, 0x1E	; 30
    14da:	d0 f3       	brcs	.-12     	; 0x14d0 <displayWriteData+0x15e>
	} else {
		if(displayInverted)
			data = ~data;
		LCD_DATA_OUT = data;						// write data
		displayEnable();								// enable
		displayCoord.x++;
    14dc:	80 91 af 01 	lds	r24, 0x01AF
    14e0:	8f 5f       	subi	r24, 0xFF	; 255
    14e2:	80 93 af 01 	sts	0x01AF, r24
	}
	LCD_DATA_OUT = 0x00;
    14e6:	15 b8       	out	0x05, r1	; 5
}
    14e8:	0f 90       	pop	r0
    14ea:	cf 91       	pop	r28
    14ec:	df 91       	pop	r29
    14ee:	1f 91       	pop	r17
    14f0:	0f 91       	pop	r16
    14f2:	ff 90       	pop	r15
    14f4:	ef 90       	pop	r14
    14f6:	df 90       	pop	r13
    14f8:	cf 90       	pop	r12
    14fa:	08 95       	ret

000014fc <displayPutChar>:
	displayFont = font;
	displayFontRead = callback;
	displayFontColor = color;
}

int displayPutChar(unsigned char c) {
    14fc:	2f 92       	push	r2
    14fe:	3f 92       	push	r3
    1500:	4f 92       	push	r4
    1502:	5f 92       	push	r5
    1504:	6f 92       	push	r6
    1506:	7f 92       	push	r7
    1508:	8f 92       	push	r8
    150a:	9f 92       	push	r9
    150c:	af 92       	push	r10
    150e:	bf 92       	push	r11
    1510:	cf 92       	push	r12
    1512:	df 92       	push	r13
    1514:	ef 92       	push	r14
    1516:	ff 92       	push	r15
    1518:	0f 93       	push	r16
    151a:	1f 93       	push	r17
    151c:	df 93       	push	r29
    151e:	cf 93       	push	r28
    1520:	00 d0       	rcall	.+0      	; 0x1522 <displayPutChar+0x26>
    1522:	00 d0       	rcall	.+0      	; 0x1524 <displayPutChar+0x28>
    1524:	00 d0       	rcall	.+0      	; 0x1526 <displayPutChar+0x2a>
    1526:	cd b7       	in	r28, 0x3d	; 61
    1528:	de b7       	in	r29, 0x3e	; 62
    152a:	e8 2e       	mov	r14, r24
       uint8_t width = 0;
       uint8_t height = displayFontRead(displayFont+FONT_HEIGHT);
    152c:	80 91 ab 01 	lds	r24, 0x01AB
    1530:	90 91 ac 01 	lds	r25, 0x01AC
    1534:	e0 91 ad 01 	lds	r30, 0x01AD
    1538:	f0 91 ae 01 	lds	r31, 0x01AE
    153c:	03 96       	adiw	r24, 0x03	; 3
    153e:	09 95       	icall
    1540:	c8 2e       	mov	r12, r24
       uint8_t bytes = (height+7)/8;
       uint8_t tooMuch = height % 8;
    1542:	28 2f       	mov	r18, r24
    1544:	27 70       	andi	r18, 0x07	; 7
    1546:	29 83       	std	Y+1, r18	; 0x01
       
       uint8_t firstChar = displayFontRead(displayFont+FONT_FIRST_CHAR);
    1548:	80 91 ab 01 	lds	r24, 0x01AB
    154c:	90 91 ac 01 	lds	r25, 0x01AC
    1550:	e0 91 ad 01 	lds	r30, 0x01AD
    1554:	f0 91 ae 01 	lds	r31, 0x01AE
    1558:	04 96       	adiw	r24, 0x04	; 4
    155a:	09 95       	icall
    155c:	18 2f       	mov	r17, r24
       uint8_t charCount = displayFontRead(displayFont+FONT_CHAR_COUNT);
    155e:	80 91 ab 01 	lds	r24, 0x01AB
    1562:	90 91 ac 01 	lds	r25, 0x01AC
    1566:	e0 91 ad 01 	lds	r30, 0x01AD
    156a:	f0 91 ae 01 	lds	r31, 0x01AE
    156e:	05 96       	adiw	r24, 0x05	; 5
    1570:	09 95       	icall
    1572:	a8 2e       	mov	r10, r24
       
       uint16_t index = 0;
       uint8_t x = displayCoord.x, y = displayCoord.y;
    1574:	30 91 af 01 	lds	r19, 0x01AF
    1578:	3b 83       	std	Y+3, r19	; 0x03
    157a:	80 91 b0 01 	lds	r24, 0x01B0
    157e:	8c 83       	std	Y+4, r24	; 0x04
       
       if(c < firstChar || c >= (firstChar+charCount)) {
    1580:	e1 16       	cp	r14, r17
    1582:	08 f4       	brcc	.+2      	; 0x1586 <displayPutChar+0x8a>
    1584:	df c0       	rjmp	.+446    	; 0x1744 <displayPutChar+0x248>
    1586:	2e 2d       	mov	r18, r14
    1588:	30 e0       	ldi	r19, 0x00	; 0
    158a:	81 2f       	mov	r24, r17
    158c:	90 e0       	ldi	r25, 0x00	; 0
    158e:	8a 0d       	add	r24, r10
    1590:	91 1d       	adc	r25, r1
    1592:	28 17       	cp	r18, r24
    1594:	39 07       	cpc	r19, r25
    1596:	0c f0       	brlt	.+2      	; 0x159a <displayPutChar+0x9e>
    1598:	d8 c0       	rjmp	.+432    	; 0x174a <displayPutChar+0x24e>
               return 1;
       }
       c-= firstChar;
    159a:	e1 1a       	sub	r14, r17
       
       // read width data, to get the index
       for(uint8_t i=0; i<c; i++)
    159c:	e1 f0       	breq	.+56     	; 0x15d6 <displayPutChar+0xda>
    159e:	0f 2e       	mov	r0, r31
    15a0:	f6 e0       	ldi	r31, 0x06	; 6
    15a2:	8f 2e       	mov	r8, r31
    15a4:	99 24       	eor	r9, r9
    15a6:	f0 2d       	mov	r31, r0
       uint8_t tooMuch = height % 8;
       
       uint8_t firstChar = displayFontRead(displayFont+FONT_FIRST_CHAR);
       uint8_t charCount = displayFontRead(displayFont+FONT_CHAR_COUNT);
       
       uint16_t index = 0;
    15a8:	00 e0       	ldi	r16, 0x00	; 0
    15aa:	10 e0       	ldi	r17, 0x00	; 0
       }
       c-= firstChar;
       
       // read width data, to get the index
       for(uint8_t i=0; i<c; i++)
               index += displayFontRead(displayFont+FONT_WIDTH_TABLE+i);
    15ac:	80 91 ab 01 	lds	r24, 0x01AB
    15b0:	90 91 ac 01 	lds	r25, 0x01AC
    15b4:	e0 91 ad 01 	lds	r30, 0x01AD
    15b8:	f0 91 ae 01 	lds	r31, 0x01AE
    15bc:	88 0d       	add	r24, r8
    15be:	99 1d       	adc	r25, r9
    15c0:	09 95       	icall
    15c2:	08 0f       	add	r16, r24
    15c4:	11 1d       	adc	r17, r1
    15c6:	08 94       	sec
    15c8:	81 1c       	adc	r8, r1
    15ca:	91 1c       	adc	r9, r1
               return 1;
       }
       c-= firstChar;
       
       // read width data, to get the index
       for(uint8_t i=0; i<c; i++)
    15cc:	88 2d       	mov	r24, r8
    15ce:	86 50       	subi	r24, 0x06	; 6
    15d0:	8e 15       	cp	r24, r14
    15d2:	60 f3       	brcs	.-40     	; 0x15ac <displayPutChar+0xb0>
    15d4:	02 c0       	rjmp	.+4      	; 0x15da <displayPutChar+0xde>
       uint8_t tooMuch = height % 8;
       
       uint8_t firstChar = displayFontRead(displayFont+FONT_FIRST_CHAR);
       uint8_t charCount = displayFontRead(displayFont+FONT_CHAR_COUNT);
       
       uint16_t index = 0;
    15d6:	00 e0       	ldi	r16, 0x00	; 0
    15d8:	10 e0       	ldi	r17, 0x00	; 0
}

int displayPutChar(unsigned char c) {
       uint8_t width = 0;
       uint8_t height = displayFontRead(displayFont+FONT_HEIGHT);
       uint8_t bytes = (height+7)/8;
    15da:	8c 2d       	mov	r24, r12
    15dc:	90 e0       	ldi	r25, 0x00	; 0
    15de:	07 96       	adiw	r24, 0x07	; 7
    15e0:	95 95       	asr	r25
    15e2:	87 95       	ror	r24
    15e4:	95 95       	asr	r25
    15e6:	87 95       	ror	r24
    15e8:	95 95       	asr	r25
    15ea:	87 95       	ror	r24
    15ec:	8a 83       	std	Y+2, r24	; 0x02
       c-= firstChar;
       
       // read width data, to get the index
       for(uint8_t i=0; i<c; i++)
               index += displayFontRead(displayFont+FONT_WIDTH_TABLE+i);
       index = index*bytes+charCount+FONT_WIDTH_TABLE;
    15ee:	28 2f       	mov	r18, r24
    15f0:	30 e0       	ldi	r19, 0x00	; 0
    15f2:	02 9f       	mul	r16, r18
    15f4:	c0 01       	movw	r24, r0
    15f6:	03 9f       	mul	r16, r19
    15f8:	90 0d       	add	r25, r0
    15fa:	12 9f       	mul	r17, r18
    15fc:	90 0d       	add	r25, r0
    15fe:	11 24       	eor	r1, r1
    1600:	2a 2c       	mov	r2, r10
    1602:	33 24       	eor	r3, r3
    1604:	e6 e0       	ldi	r30, 0x06	; 6
    1606:	f0 e0       	ldi	r31, 0x00	; 0
    1608:	2e 0e       	add	r2, r30
    160a:	3f 1e       	adc	r3, r31
    160c:	28 0e       	add	r2, r24
    160e:	39 1e       	adc	r3, r25
       width = displayFontRead(displayFont+FONT_WIDTH_TABLE+c);
    1610:	8e 2d       	mov	r24, r14
    1612:	90 e0       	ldi	r25, 0x00	; 0
    1614:	06 96       	adiw	r24, 0x06	; 6
    1616:	20 91 ab 01 	lds	r18, 0x01AB
    161a:	30 91 ac 01 	lds	r19, 0x01AC
    161e:	e0 91 ad 01 	lds	r30, 0x01AD
    1622:	f0 91 ae 01 	lds	r31, 0x01AE
    1626:	82 0f       	add	r24, r18
    1628:	93 1f       	adc	r25, r19
    162a:	09 95       	icall
    162c:	08 2f       	mov	r16, r24
       
       // last but not least, draw the character
       for(uint8_t i=0; i<bytes; i++)
    162e:	fa 81       	ldd	r31, Y+2	; 0x02
    1630:	ff 23       	and	r31, r31
    1632:	09 f4       	brne	.+2      	; 0x1636 <displayPutChar+0x13a>
    1634:	7e c0       	rjmp	.+252    	; 0x1732 <displayPutChar+0x236>
    1636:	48 2e       	mov	r4, r24
    1638:	41 94       	neg	r4
    163a:	55 24       	eor	r5, r5
    163c:	66 24       	eor	r6, r6
    163e:	77 24       	eor	r7, r7
    1640:	68 94       	set
    1642:	61 f8       	bld	r6, 1
               uint8_t page = i*width;
               for(uint8_t j=0; j<width; j++)
               {
                       uint8_t data = displayFontRead(displayFont+index+page+j);
                       
                       if (i + 1 == bytes)
    1644:	cf 2e       	mov	r12, r31
    1646:	dd 24       	eor	r13, r13
       
       // last but not least, draw the character
       for(uint8_t i=0; i<bytes; i++)
       {
               uint8_t page = i*width;
               for(uint8_t j=0; j<width; j++)
    1648:	00 23       	and	r16, r16
    164a:	09 f4       	brne	.+2      	; 0x164e <displayPutChar+0x152>
    164c:	49 c0       	rjmp	.+146    	; 0x16e0 <displayPutChar+0x1e4>
                       uint8_t data = displayFontRead(displayFont+index+page+j);
                       
                       if (i + 1 == bytes)
                       {
                               uint8_t pageOld = (i - 1) * width;
                               uint8_t dataOld = displayFontRead(displayFont+index+pageOld+j); //get last byte
    164e:	41 01       	movw	r8, r2
    1650:	84 0c       	add	r8, r4
    1652:	91 1c       	adc	r9, r1
    1654:	91 01       	movw	r18, r2
    1656:	25 0d       	add	r18, r5
    1658:	31 1d       	adc	r19, r1
    165a:	3e 83       	std	Y+6, r19	; 0x06
    165c:	2d 83       	std	Y+5, r18	; 0x05
	displayFont = font;
	displayFontRead = callback;
	displayFontColor = color;
}

int displayPutChar(unsigned char c) {
    165e:	74 01       	movw	r14, r8
    1660:	53 01       	movw	r10, r6
    1662:	08 94       	sec
    1664:	a1 08       	sbc	r10, r1
    1666:	b1 08       	sbc	r11, r1
       for(uint8_t i=0; i<bytes; i++)
       {
               uint8_t page = i*width;
               for(uint8_t j=0; j<width; j++)
               {
                       uint8_t data = displayFontRead(displayFont+index+page+j);
    1668:	80 91 ab 01 	lds	r24, 0x01AB
    166c:	90 91 ac 01 	lds	r25, 0x01AC
    1670:	e0 91 ad 01 	lds	r30, 0x01AD
    1674:	f0 91 ae 01 	lds	r31, 0x01AE
    1678:	2d 81       	ldd	r18, Y+5	; 0x05
    167a:	3e 81       	ldd	r19, Y+6	; 0x06
    167c:	82 0f       	add	r24, r18
    167e:	93 1f       	adc	r25, r19
    1680:	09 95       	icall
    1682:	18 2f       	mov	r17, r24
                       
                       if (i + 1 == bytes)
    1684:	ac 14       	cp	r10, r12
    1686:	bd 04       	cpc	r11, r13
    1688:	99 f4       	brne	.+38     	; 0x16b0 <displayPutChar+0x1b4>
                       {
                               uint8_t pageOld = (i - 1) * width;
                               uint8_t dataOld = displayFontRead(displayFont+index+pageOld+j); //get last byte
    168a:	80 91 ab 01 	lds	r24, 0x01AB
    168e:	90 91 ac 01 	lds	r25, 0x01AC
    1692:	e0 91 ad 01 	lds	r30, 0x01AD
    1696:	f0 91 ae 01 	lds	r31, 0x01AE
    169a:	8e 0d       	add	r24, r14
    169c:	9f 1d       	adc	r25, r15
    169e:	09 95       	icall
                               dataOld >>= tooMuch;
    16a0:	90 e0       	ldi	r25, 0x00	; 0
    16a2:	09 80       	ldd	r0, Y+1	; 0x01
    16a4:	02 c0       	rjmp	.+4      	; 0x16aa <displayPutChar+0x1ae>
    16a6:	95 95       	asr	r25
    16a8:	87 95       	ror	r24
    16aa:	0a 94       	dec	r0
    16ac:	e2 f7       	brpl	.-8      	; 0x16a6 <displayPutChar+0x1aa>
                               data |= dataOld;
    16ae:	18 2b       	or	r17, r24
                       }
                       
                       if(displayFontColor == BLACK)
    16b0:	80 91 b2 01 	lds	r24, 0x01B2
    16b4:	8f 3f       	cpi	r24, 0xFF	; 255
    16b6:	21 f4       	brne	.+8      	; 0x16c0 <displayPutChar+0x1c4>
                       {
                               displayWriteData(data);
    16b8:	81 2f       	mov	r24, r17
    16ba:	0e 94 b9 09 	call	0x1372	; 0x1372 <displayWriteData>
    16be:	04 c0       	rjmp	.+8      	; 0x16c8 <displayPutChar+0x1cc>
                       } else
                       {
                               displayWriteData(~data);
    16c0:	81 2f       	mov	r24, r17
    16c2:	80 95       	com	r24
    16c4:	0e 94 b9 09 	call	0x1372	; 0x1372 <displayWriteData>
    16c8:	8d 81       	ldd	r24, Y+5	; 0x05
    16ca:	9e 81       	ldd	r25, Y+6	; 0x06
    16cc:	01 96       	adiw	r24, 0x01	; 1
    16ce:	9e 83       	std	Y+6, r25	; 0x06
    16d0:	8d 83       	std	Y+5, r24	; 0x05
    16d2:	08 94       	sec
    16d4:	e1 1c       	adc	r14, r1
    16d6:	f1 1c       	adc	r15, r1
       
       // last but not least, draw the character
       for(uint8_t i=0; i<bytes; i++)
       {
               uint8_t page = i*width;
               for(uint8_t j=0; j<width; j++)
    16d8:	8e 2d       	mov	r24, r14
    16da:	88 19       	sub	r24, r8
    16dc:	80 17       	cp	r24, r16
    16de:	20 f2       	brcs	.-120    	; 0x1668 <displayPutChar+0x16c>
                       {
                               displayWriteData(~data);
                       }
               }
               // 1px gap between chars
               if(displayFontColor == BLACK)
    16e0:	80 91 b2 01 	lds	r24, 0x01B2
    16e4:	8f 3f       	cpi	r24, 0xFF	; 255
    16e6:	21 f4       	brne	.+8      	; 0x16f0 <displayPutChar+0x1f4>
               {
                       displayWriteData(0x00);
    16e8:	80 e0       	ldi	r24, 0x00	; 0
    16ea:	0e 94 b9 09 	call	0x1372	; 0x1372 <displayWriteData>
    16ee:	03 c0       	rjmp	.+6      	; 0x16f6 <displayPutChar+0x1fa>
               }
               else
               {
                       displayWriteData(0xFF);
    16f0:	8f ef       	ldi	r24, 0xFF	; 255
    16f2:	0e 94 b9 09 	call	0x1372	; 0x1372 <displayWriteData>
               }
               if (i + 2 < bytes)
    16f6:	6c 14       	cp	r6, r12
    16f8:	7d 04       	cpc	r7, r13
    16fa:	44 f4       	brge	.+16     	; 0x170c <displayPutChar+0x210>
                       displayGotoXY(x, displayCoord.y+8);
    16fc:	e0 eb       	ldi	r30, 0xB0	; 176
    16fe:	f1 e0       	ldi	r31, 0x01	; 1
    1700:	60 81       	ld	r22, Z
    1702:	68 5f       	subi	r22, 0xF8	; 248
    1704:	8b 81       	ldd	r24, Y+3	; 0x03
    1706:	0e 94 4d 09 	call	0x129a	; 0x129a <displayGotoXY>
    170a:	08 c0       	rjmp	.+16     	; 0x171c <displayPutChar+0x220>
               else
                       displayGotoXY(x, displayCoord.y + tooMuch);
    170c:	e0 eb       	ldi	r30, 0xB0	; 176
    170e:	f1 e0       	ldi	r31, 0x01	; 1
    1710:	60 81       	ld	r22, Z
    1712:	f9 81       	ldd	r31, Y+1	; 0x01
    1714:	6f 0f       	add	r22, r31
    1716:	8b 81       	ldd	r24, Y+3	; 0x03
    1718:	0e 94 4d 09 	call	0x129a	; 0x129a <displayGotoXY>
    171c:	08 94       	sec
    171e:	61 1c       	adc	r6, r1
    1720:	71 1c       	adc	r7, r1
    1722:	50 0e       	add	r5, r16
    1724:	40 0e       	add	r4, r16
               index += displayFontRead(displayFont+FONT_WIDTH_TABLE+i);
       index = index*bytes+charCount+FONT_WIDTH_TABLE;
       width = displayFontRead(displayFont+FONT_WIDTH_TABLE+c);
       
       // last but not least, draw the character
       for(uint8_t i=0; i<bytes; i++)
    1726:	86 2d       	mov	r24, r6
    1728:	82 50       	subi	r24, 0x02	; 2
    172a:	2a 81       	ldd	r18, Y+2	; 0x02
    172c:	82 17       	cp	r24, r18
    172e:	08 f4       	brcc	.+2      	; 0x1732 <displayPutChar+0x236>
    1730:	8b cf       	rjmp	.-234    	; 0x1648 <displayPutChar+0x14c>
               if (i + 2 < bytes)
                       displayGotoXY(x, displayCoord.y+8);
               else
                       displayGotoXY(x, displayCoord.y + tooMuch);
       }
       displayGotoXY(x+width+1, y);
    1732:	8b 81       	ldd	r24, Y+3	; 0x03
    1734:	8f 5f       	subi	r24, 0xFF	; 255
    1736:	80 0f       	add	r24, r16
    1738:	6c 81       	ldd	r22, Y+4	; 0x04
    173a:	0e 94 4d 09 	call	0x129a	; 0x129a <displayGotoXY>
       
       return 0;
    173e:	20 e0       	ldi	r18, 0x00	; 0
    1740:	30 e0       	ldi	r19, 0x00	; 0
    1742:	05 c0       	rjmp	.+10     	; 0x174e <displayPutChar+0x252>
       
       uint16_t index = 0;
       uint8_t x = displayCoord.x, y = displayCoord.y;
       
       if(c < firstChar || c >= (firstChar+charCount)) {
               return 1;
    1744:	21 e0       	ldi	r18, 0x01	; 1
    1746:	30 e0       	ldi	r19, 0x00	; 0
    1748:	02 c0       	rjmp	.+4      	; 0x174e <displayPutChar+0x252>
    174a:	21 e0       	ldi	r18, 0x01	; 1
    174c:	30 e0       	ldi	r19, 0x00	; 0
                       displayGotoXY(x, displayCoord.y + tooMuch);
       }
       displayGotoXY(x+width+1, y);
       
       return 0;
}
    174e:	82 2f       	mov	r24, r18
    1750:	93 2f       	mov	r25, r19
    1752:	26 96       	adiw	r28, 0x06	; 6
    1754:	0f b6       	in	r0, 0x3f	; 63
    1756:	f8 94       	cli
    1758:	de bf       	out	0x3e, r29	; 62
    175a:	0f be       	out	0x3f, r0	; 63
    175c:	cd bf       	out	0x3d, r28	; 61
    175e:	cf 91       	pop	r28
    1760:	df 91       	pop	r29
    1762:	1f 91       	pop	r17
    1764:	0f 91       	pop	r16
    1766:	ff 90       	pop	r15
    1768:	ef 90       	pop	r14
    176a:	df 90       	pop	r13
    176c:	cf 90       	pop	r12
    176e:	bf 90       	pop	r11
    1770:	af 90       	pop	r10
    1772:	9f 90       	pop	r9
    1774:	8f 90       	pop	r8
    1776:	7f 90       	pop	r7
    1778:	6f 90       	pop	r6
    177a:	5f 90       	pop	r5
    177c:	4f 90       	pop	r4
    177e:	3f 90       	pop	r3
    1780:	2f 90       	pop	r2
    1782:	08 95       	ret

00001784 <displayPuts_P>:
		}
		str++;
	}
}

void displayPuts_P(PGM_P str) {
    1784:	ef 92       	push	r14
    1786:	ff 92       	push	r15
    1788:	0f 93       	push	r16
    178a:	1f 93       	push	r17
    178c:	cf 93       	push	r28
    178e:	df 93       	push	r29
    1790:	ec 01       	movw	r28, r24
	int x = displayCoord.x;
    1792:	00 91 af 01 	lds	r16, 0x01AF
	while(pgm_read_byte(str) != 0) {
    1796:	fe 01       	movw	r30, r28
    1798:	24 91       	lpm	r18, Z+
    179a:	22 23       	and	r18, r18
    179c:	31 f1       	breq	.+76     	; 0x17ea <displayPuts_P+0x66>
		if(pgm_read_byte(str) == '\n') {
			displayGotoXY(x, displayCoord.y+displayFontRead(displayFont+FONT_HEIGHT));
    179e:	0f 2e       	mov	r0, r31
    17a0:	f0 eb       	ldi	r31, 0xB0	; 176
    17a2:	ef 2e       	mov	r14, r31
    17a4:	f1 e0       	ldi	r31, 0x01	; 1
    17a6:	ff 2e       	mov	r15, r31
    17a8:	f0 2d       	mov	r31, r0
}

void displayPuts_P(PGM_P str) {
	int x = displayCoord.x;
	while(pgm_read_byte(str) != 0) {
		if(pgm_read_byte(str) == '\n') {
    17aa:	fc 01       	movw	r30, r24
    17ac:	24 91       	lpm	r18, Z+
    17ae:	2a 30       	cpi	r18, 0x0A	; 10
    17b0:	91 f4       	brne	.+36     	; 0x17d6 <displayPuts_P+0x52>
			displayGotoXY(x, displayCoord.y+displayFontRead(displayFont+FONT_HEIGHT));
    17b2:	f7 01       	movw	r30, r14
    17b4:	10 81       	ld	r17, Z
    17b6:	80 91 ab 01 	lds	r24, 0x01AB
    17ba:	90 91 ac 01 	lds	r25, 0x01AC
    17be:	e0 91 ad 01 	lds	r30, 0x01AD
    17c2:	f0 91 ae 01 	lds	r31, 0x01AE
    17c6:	03 96       	adiw	r24, 0x03	; 3
    17c8:	09 95       	icall
    17ca:	68 2f       	mov	r22, r24
    17cc:	61 0f       	add	r22, r17
    17ce:	80 2f       	mov	r24, r16
    17d0:	0e 94 4d 09 	call	0x129a	; 0x129a <displayGotoXY>
    17d4:	04 c0       	rjmp	.+8      	; 0x17de <displayPuts_P+0x5a>
		} else {
			displayPutChar(pgm_read_byte(str));
    17d6:	fc 01       	movw	r30, r24
    17d8:	84 91       	lpm	r24, Z+
    17da:	0e 94 7e 0a 	call	0x14fc	; 0x14fc <displayPutChar>
		}
		str++;
    17de:	21 96       	adiw	r28, 0x01	; 1
    17e0:	ce 01       	movw	r24, r28
	}
}

void displayPuts_P(PGM_P str) {
	int x = displayCoord.x;
	while(pgm_read_byte(str) != 0) {
    17e2:	fe 01       	movw	r30, r28
    17e4:	24 91       	lpm	r18, Z+
    17e6:	22 23       	and	r18, r18
    17e8:	01 f7       	brne	.-64     	; 0x17aa <displayPuts_P+0x26>
		} else {
			displayPutChar(pgm_read_byte(str));
		}
		str++;
	}
}
    17ea:	df 91       	pop	r29
    17ec:	cf 91       	pop	r28
    17ee:	1f 91       	pop	r17
    17f0:	0f 91       	pop	r16
    17f2:	ff 90       	pop	r15
    17f4:	ef 90       	pop	r14
    17f6:	08 95       	ret

000017f8 <displayPuts>:
       displayGotoXY(x+width+1, y);
       
       return 0;
}

void displayPuts(char* str) {
    17f8:	ef 92       	push	r14
    17fa:	ff 92       	push	r15
    17fc:	0f 93       	push	r16
    17fe:	1f 93       	push	r17
    1800:	cf 93       	push	r28
    1802:	df 93       	push	r29
    1804:	ec 01       	movw	r28, r24
	int x = displayCoord.x;
    1806:	00 91 af 01 	lds	r16, 0x01AF
	while(*str != 0) {
    180a:	88 81       	ld	r24, Y
    180c:	88 23       	and	r24, r24
    180e:	01 f1       	breq	.+64     	; 0x1850 <displayPuts+0x58>
       displayGotoXY(x+width+1, y);
       
       return 0;
}

void displayPuts(char* str) {
    1810:	21 96       	adiw	r28, 0x01	; 1
	int x = displayCoord.x;
	while(*str != 0) {
		if(*str == '\n') {
			displayGotoXY(x, displayCoord.y+displayFontRead(displayFont+FONT_HEIGHT));
    1812:	0f 2e       	mov	r0, r31
    1814:	f0 eb       	ldi	r31, 0xB0	; 176
    1816:	ef 2e       	mov	r14, r31
    1818:	f1 e0       	ldi	r31, 0x01	; 1
    181a:	ff 2e       	mov	r15, r31
    181c:	f0 2d       	mov	r31, r0
}

void displayPuts(char* str) {
	int x = displayCoord.x;
	while(*str != 0) {
		if(*str == '\n') {
    181e:	8a 30       	cpi	r24, 0x0A	; 10
    1820:	91 f4       	brne	.+36     	; 0x1846 <displayPuts+0x4e>
			displayGotoXY(x, displayCoord.y+displayFontRead(displayFont+FONT_HEIGHT));
    1822:	f7 01       	movw	r30, r14
    1824:	10 81       	ld	r17, Z
    1826:	80 91 ab 01 	lds	r24, 0x01AB
    182a:	90 91 ac 01 	lds	r25, 0x01AC
    182e:	e0 91 ad 01 	lds	r30, 0x01AD
    1832:	f0 91 ae 01 	lds	r31, 0x01AE
    1836:	03 96       	adiw	r24, 0x03	; 3
    1838:	09 95       	icall
    183a:	68 2f       	mov	r22, r24
    183c:	61 0f       	add	r22, r17
    183e:	80 2f       	mov	r24, r16
    1840:	0e 94 4d 09 	call	0x129a	; 0x129a <displayGotoXY>
    1844:	02 c0       	rjmp	.+4      	; 0x184a <displayPuts+0x52>
		} else {
			displayPutChar(*str);
    1846:	0e 94 7e 0a 	call	0x14fc	; 0x14fc <displayPutChar>
       return 0;
}

void displayPuts(char* str) {
	int x = displayCoord.x;
	while(*str != 0) {
    184a:	89 91       	ld	r24, Y+
    184c:	88 23       	and	r24, r24
    184e:	39 f7       	brne	.-50     	; 0x181e <displayPuts+0x26>
		} else {
			displayPutChar(*str);
		}
		str++;
	}
}
    1850:	df 91       	pop	r29
    1852:	cf 91       	pop	r28
    1854:	1f 91       	pop	r17
    1856:	0f 91       	pop	r16
    1858:	ff 90       	pop	r15
    185a:	ef 90       	pop	r14
    185c:	08 95       	ret

0000185e <displaySetDot>:
		displayInvertRect(0,0,127,63);
		displayInverted = invert;
	}
}

void displaySetDot(uint8_t x, uint8_t y, uint8_t color) {
    185e:	0f 93       	push	r16
    1860:	1f 93       	push	r17
    1862:	16 2f       	mov	r17, r22
    1864:	04 2f       	mov	r16, r20
	uint8_t data;
	
	displayGotoXY(x, y-y%8);					// read data from display memory
    1866:	68 7f       	andi	r22, 0xF8	; 248
    1868:	0e 94 4d 09 	call	0x129a	; 0x129a <displayGotoXY>
	data = displayReadData();
    186c:	0e 94 b2 09 	call	0x1364	; 0x1364 <displayReadData>
	
	if(color == BLACK) {
    1870:	0f 3f       	cpi	r16, 0xFF	; 255
    1872:	59 f4       	brne	.+22     	; 0x188a <displaySetDot+0x2c>
		data |= 0x01 << (y%8);				// set dot
    1874:	17 70       	andi	r17, 0x07	; 7
    1876:	41 e0       	ldi	r20, 0x01	; 1
    1878:	50 e0       	ldi	r21, 0x00	; 0
    187a:	9a 01       	movw	r18, r20
    187c:	02 c0       	rjmp	.+4      	; 0x1882 <displaySetDot+0x24>
    187e:	22 0f       	add	r18, r18
    1880:	33 1f       	adc	r19, r19
    1882:	1a 95       	dec	r17
    1884:	e2 f7       	brpl	.-8      	; 0x187e <displaySetDot+0x20>
    1886:	82 2b       	or	r24, r18
    1888:	0b c0       	rjmp	.+22     	; 0x18a0 <displaySetDot+0x42>
	} else {
		data &= ~(0x01 << (y%8));			// clear dot
    188a:	17 70       	andi	r17, 0x07	; 7
    188c:	21 e0       	ldi	r18, 0x01	; 1
    188e:	30 e0       	ldi	r19, 0x00	; 0
    1890:	b9 01       	movw	r22, r18
    1892:	02 c0       	rjmp	.+4      	; 0x1898 <displaySetDot+0x3a>
    1894:	66 0f       	add	r22, r22
    1896:	77 1f       	adc	r23, r23
    1898:	1a 95       	dec	r17
    189a:	e2 f7       	brpl	.-8      	; 0x1894 <displaySetDot+0x36>
    189c:	60 95       	com	r22
    189e:	86 23       	and	r24, r22
	}
	
	displayWriteData(data);					// write data back to display
    18a0:	0e 94 b9 09 	call	0x1372	; 0x1372 <displayWriteData>
}
    18a4:	1f 91       	pop	r17
    18a6:	0f 91       	pop	r16
    18a8:	08 95       	ret

000018aa <displayInvertRect>:
			displayWriteData(data);
		}
	}
}

void displayInvertRect(uint8_t x, uint8_t y, uint8_t width, uint8_t height) {
    18aa:	af 92       	push	r10
    18ac:	bf 92       	push	r11
    18ae:	cf 92       	push	r12
    18b0:	df 92       	push	r13
    18b2:	ef 92       	push	r14
    18b4:	ff 92       	push	r15
    18b6:	0f 93       	push	r16
    18b8:	1f 93       	push	r17
    18ba:	cf 93       	push	r28
    18bc:	df 93       	push	r29
    18be:	c8 2e       	mov	r12, r24
    18c0:	e4 2e       	mov	r14, r20
	uint8_t mask, pageOffset, h, i, data, tmpData;
	height++;
    18c2:	a2 2e       	mov	r10, r18
    18c4:	a3 94       	inc	r10
	
	pageOffset = y%8;
    18c6:	46 2f       	mov	r20, r22
    18c8:	47 70       	andi	r20, 0x07	; 7
	y -= pageOffset;
    18ca:	06 2f       	mov	r16, r22
    18cc:	04 1b       	sub	r16, r20
	mask = 0xFF;
	if(height < 8-pageOffset) {
    18ce:	ca 2d       	mov	r28, r10
    18d0:	d0 e0       	ldi	r29, 0x00	; 0
    18d2:	88 e0       	ldi	r24, 0x08	; 8
    18d4:	90 e0       	ldi	r25, 0x00	; 0
    18d6:	84 1b       	sub	r24, r20
    18d8:	91 09       	sbc	r25, r1
    18da:	c8 17       	cp	r28, r24
    18dc:	d9 07       	cpc	r29, r25
    18de:	7c f4       	brge	.+30     	; 0x18fe <displayInvertRect+0x54>
		mask >>= (8-height);
    18e0:	88 e0       	ldi	r24, 0x08	; 8
    18e2:	90 e0       	ldi	r25, 0x00	; 0
    18e4:	8c 1b       	sub	r24, r28
    18e6:	9d 0b       	sbc	r25, r29
    18e8:	2f ef       	ldi	r18, 0xFF	; 255
    18ea:	30 e0       	ldi	r19, 0x00	; 0
    18ec:	b9 01       	movw	r22, r18
    18ee:	02 c0       	rjmp	.+4      	; 0x18f4 <displayInvertRect+0x4a>
    18f0:	75 95       	asr	r23
    18f2:	67 95       	ror	r22
    18f4:	8a 95       	dec	r24
    18f6:	e2 f7       	brpl	.-8      	; 0x18f0 <displayInvertRect+0x46>
    18f8:	d6 2e       	mov	r13, r22
		h = height;
    18fa:	1a 2d       	mov	r17, r10
    18fc:	04 c0       	rjmp	.+8      	; 0x1906 <displayInvertRect+0x5c>
	} else {
		h = 8-pageOffset;
    18fe:	18 e0       	ldi	r17, 0x08	; 8
    1900:	14 1b       	sub	r17, r20
	uint8_t mask, pageOffset, h, i, data, tmpData;
	height++;
	
	pageOffset = y%8;
	y -= pageOffset;
	mask = 0xFF;
    1902:	dd 24       	eor	r13, r13
    1904:	da 94       	dec	r13
		mask >>= (8-height);
		h = height;
	} else {
		h = 8-pageOffset;
	}
	mask <<= pageOffset;
    1906:	01 c0       	rjmp	.+2      	; 0x190a <displayInvertRect+0x60>
    1908:	dd 0c       	add	r13, r13
    190a:	4a 95       	dec	r20
    190c:	ea f7       	brpl	.-6      	; 0x1908 <displayInvertRect+0x5e>
	
	displayGotoXY(x, y);
    190e:	8c 2d       	mov	r24, r12
    1910:	60 2f       	mov	r22, r16
    1912:	0e 94 4d 09 	call	0x129a	; 0x129a <displayGotoXY>
	for(i=0; i<=width; i++) {
    1916:	ff 24       	eor	r15, r15
		data = displayReadData();
		tmpData = ~data;
		data = (tmpData & mask) | (data & ~mask);
    1918:	bd 2c       	mov	r11, r13
    191a:	b0 94       	com	r11
	}
	mask <<= pageOffset;
	
	displayGotoXY(x, y);
	for(i=0; i<=width; i++) {
		data = displayReadData();
    191c:	0e 94 b2 09 	call	0x1364	; 0x1364 <displayReadData>
		tmpData = ~data;
    1920:	98 2f       	mov	r25, r24
    1922:	90 95       	com	r25
		data = (tmpData & mask) | (data & ~mask);
    1924:	9d 21       	and	r25, r13
    1926:	8b 21       	and	r24, r11
		displayWriteData(data);
    1928:	89 2b       	or	r24, r25
    192a:	0e 94 b9 09 	call	0x1372	; 0x1372 <displayWriteData>
		h = 8-pageOffset;
	}
	mask <<= pageOffset;
	
	displayGotoXY(x, y);
	for(i=0; i<=width; i++) {
    192e:	f3 94       	inc	r15
    1930:	ef 14       	cp	r14, r15
    1932:	a0 f7       	brcc	.-24     	; 0x191c <displayInvertRect+0x72>
    1934:	10 c0       	rjmp	.+32     	; 0x1956 <displayInvertRect+0xac>
		data = (tmpData & mask) | (data & ~mask);
		displayWriteData(data);
	}
	
	while(h+8 <= height) {
		h += 8;
    1936:	18 5f       	subi	r17, 0xF8	; 248
		y += 8;
    1938:	08 5f       	subi	r16, 0xF8	; 248
		displayGotoXY(x, y);
    193a:	8c 2d       	mov	r24, r12
    193c:	60 2f       	mov	r22, r16
    193e:	0e 94 4d 09 	call	0x129a	; 0x129a <displayGotoXY>
		
		for(i=0; i<=width; i++) {
    1942:	df 2c       	mov	r13, r15
			data = displayReadData();
    1944:	0e 94 b2 09 	call	0x1364	; 0x1364 <displayReadData>
			displayWriteData(~data);
    1948:	80 95       	com	r24
    194a:	0e 94 b9 09 	call	0x1372	; 0x1372 <displayWriteData>
	while(h+8 <= height) {
		h += 8;
		y += 8;
		displayGotoXY(x, y);
		
		for(i=0; i<=width; i++) {
    194e:	d3 94       	inc	r13
    1950:	ed 14       	cp	r14, r13
    1952:	10 f0       	brcs	.+4      	; 0x1958 <displayInvertRect+0xae>
    1954:	f7 cf       	rjmp	.-18     	; 0x1944 <displayInvertRect+0x9a>
    1956:	ff 24       	eor	r15, r15
		tmpData = ~data;
		data = (tmpData & mask) | (data & ~mask);
		displayWriteData(data);
	}
	
	while(h+8 <= height) {
    1958:	81 2f       	mov	r24, r17
    195a:	90 e0       	ldi	r25, 0x00	; 0
    195c:	9c 01       	movw	r18, r24
    195e:	28 5f       	subi	r18, 0xF8	; 248
    1960:	3f 4f       	sbci	r19, 0xFF	; 255
    1962:	c2 17       	cp	r28, r18
    1964:	d3 07       	cpc	r29, r19
    1966:	3c f7       	brge	.-50     	; 0x1936 <displayInvertRect+0x8c>
			data = displayReadData();
			displayWriteData(~data);
		}
	}
	
	if(h < height) {
    1968:	1a 15       	cp	r17, r10
    196a:	10 f5       	brcc	.+68     	; 0x19b0 <displayInvertRect+0x106>
		mask = ~(0xFF << (height-h));
    196c:	c8 1b       	sub	r28, r24
    196e:	d9 0b       	sbc	r29, r25
    1970:	8f ef       	ldi	r24, 0xFF	; 255
    1972:	90 e0       	ldi	r25, 0x00	; 0
    1974:	9c 01       	movw	r18, r24
    1976:	0c 2e       	mov	r0, r28
    1978:	02 c0       	rjmp	.+4      	; 0x197e <displayInvertRect+0xd4>
    197a:	22 0f       	add	r18, r18
    197c:	33 1f       	adc	r19, r19
    197e:	0a 94       	dec	r0
    1980:	e2 f7       	brpl	.-8      	; 0x197a <displayInvertRect+0xd0>
    1982:	b9 01       	movw	r22, r18
    1984:	60 95       	com	r22
    1986:	16 2f       	mov	r17, r22
		displayGotoXY(x, y+8);
    1988:	60 2f       	mov	r22, r16
    198a:	68 5f       	subi	r22, 0xF8	; 248
    198c:	8c 2d       	mov	r24, r12
    198e:	0e 94 4d 09 	call	0x129a	; 0x129a <displayGotoXY>
		
		for(i=0; i<=width; i++) {
    1992:	00 e0       	ldi	r16, 0x00	; 0
			data = displayReadData();
			tmpData = ~data;
			data = (tmpData & mask) | (data & ~mask);
    1994:	f1 2e       	mov	r15, r17
    1996:	f0 94       	com	r15
	if(h < height) {
		mask = ~(0xFF << (height-h));
		displayGotoXY(x, y+8);
		
		for(i=0; i<=width; i++) {
			data = displayReadData();
    1998:	0e 94 b2 09 	call	0x1364	; 0x1364 <displayReadData>
			tmpData = ~data;
    199c:	98 2f       	mov	r25, r24
    199e:	90 95       	com	r25
			data = (tmpData & mask) | (data & ~mask);
    19a0:	91 23       	and	r25, r17
    19a2:	8f 21       	and	r24, r15
			displayWriteData(data);
    19a4:	89 2b       	or	r24, r25
    19a6:	0e 94 b9 09 	call	0x1372	; 0x1372 <displayWriteData>
	
	if(h < height) {
		mask = ~(0xFF << (height-h));
		displayGotoXY(x, y+8);
		
		for(i=0; i<=width; i++) {
    19aa:	0f 5f       	subi	r16, 0xFF	; 255
    19ac:	e0 16       	cp	r14, r16
    19ae:	a0 f7       	brcc	.-24     	; 0x1998 <displayInvertRect+0xee>
			tmpData = ~data;
			data = (tmpData & mask) | (data & ~mask);
			displayWriteData(data);
		}
	}
}
    19b0:	df 91       	pop	r29
    19b2:	cf 91       	pop	r28
    19b4:	1f 91       	pop	r17
    19b6:	0f 91       	pop	r16
    19b8:	ff 90       	pop	r15
    19ba:	ef 90       	pop	r14
    19bc:	df 90       	pop	r13
    19be:	cf 90       	pop	r12
    19c0:	bf 90       	pop	r11
    19c2:	af 90       	pop	r10
    19c4:	08 95       	ret

000019c6 <displaySetInverted>:

void displaySetInverted(uint8_t invert) {
    19c6:	1f 93       	push	r17
    19c8:	18 2f       	mov	r17, r24
	if(displayInverted != invert) {
    19ca:	80 91 aa 01 	lds	r24, 0x01AA
    19ce:	81 17       	cp	r24, r17
    19d0:	41 f0       	breq	.+16     	; 0x19e2 <displaySetInverted+0x1c>
		displayInvertRect(0,0,127,63);
    19d2:	80 e0       	ldi	r24, 0x00	; 0
    19d4:	60 e0       	ldi	r22, 0x00	; 0
    19d6:	4f e7       	ldi	r20, 0x7F	; 127
    19d8:	2f e3       	ldi	r18, 0x3F	; 63
    19da:	0e 94 55 0c 	call	0x18aa	; 0x18aa <displayInvertRect>
		displayInverted = invert;
    19de:	10 93 aa 01 	sts	0x01AA, r17
	}
}
    19e2:	1f 91       	pop	r17
    19e4:	08 95       	ret

000019e6 <displayFillRect>:
}

/*
 * Hardware-Functions 
 */
void displayFillRect(uint8_t x, uint8_t y, uint8_t width, uint8_t height, uint8_t color) {
    19e6:	9f 92       	push	r9
    19e8:	af 92       	push	r10
    19ea:	bf 92       	push	r11
    19ec:	cf 92       	push	r12
    19ee:	df 92       	push	r13
    19f0:	ef 92       	push	r14
    19f2:	ff 92       	push	r15
    19f4:	0f 93       	push	r16
    19f6:	1f 93       	push	r17
    19f8:	cf 93       	push	r28
    19fa:	df 93       	push	r29
    19fc:	b8 2e       	mov	r11, r24
    19fe:	d4 2e       	mov	r13, r20
    1a00:	e0 2e       	mov	r14, r16
	uint8_t mask, pageOffset, h, i, data;
	height++;
    1a02:	92 2e       	mov	r9, r18
    1a04:	93 94       	inc	r9
	
	pageOffset = y%8;
    1a06:	46 2f       	mov	r20, r22
    1a08:	47 70       	andi	r20, 0x07	; 7
	y -= pageOffset;
    1a0a:	06 2f       	mov	r16, r22
    1a0c:	04 1b       	sub	r16, r20
	mask = 0xFF;
	if(height < 8-pageOffset) {
    1a0e:	c9 2d       	mov	r28, r9
    1a10:	d0 e0       	ldi	r29, 0x00	; 0
    1a12:	88 e0       	ldi	r24, 0x08	; 8
    1a14:	90 e0       	ldi	r25, 0x00	; 0
    1a16:	84 1b       	sub	r24, r20
    1a18:	91 09       	sbc	r25, r1
    1a1a:	c8 17       	cp	r28, r24
    1a1c:	d9 07       	cpc	r29, r25
    1a1e:	7c f4       	brge	.+30     	; 0x1a3e <displayFillRect+0x58>
		mask >>= (8-height);
    1a20:	88 e0       	ldi	r24, 0x08	; 8
    1a22:	90 e0       	ldi	r25, 0x00	; 0
    1a24:	8c 1b       	sub	r24, r28
    1a26:	9d 0b       	sbc	r25, r29
    1a28:	2f ef       	ldi	r18, 0xFF	; 255
    1a2a:	30 e0       	ldi	r19, 0x00	; 0
    1a2c:	b9 01       	movw	r22, r18
    1a2e:	02 c0       	rjmp	.+4      	; 0x1a34 <displayFillRect+0x4e>
    1a30:	75 95       	asr	r23
    1a32:	67 95       	ror	r22
    1a34:	8a 95       	dec	r24
    1a36:	e2 f7       	brpl	.-8      	; 0x1a30 <displayFillRect+0x4a>
    1a38:	a6 2e       	mov	r10, r22
		h = height;
    1a3a:	19 2d       	mov	r17, r9
    1a3c:	04 c0       	rjmp	.+8      	; 0x1a46 <displayFillRect+0x60>
	} else {
		h = 8-pageOffset;
    1a3e:	18 e0       	ldi	r17, 0x08	; 8
    1a40:	14 1b       	sub	r17, r20
	uint8_t mask, pageOffset, h, i, data;
	height++;
	
	pageOffset = y%8;
	y -= pageOffset;
	mask = 0xFF;
    1a42:	aa 24       	eor	r10, r10
    1a44:	aa 94       	dec	r10
		mask >>= (8-height);
		h = height;
	} else {
		h = 8-pageOffset;
	}
	mask <<= pageOffset;
    1a46:	01 c0       	rjmp	.+2      	; 0x1a4a <displayFillRect+0x64>
    1a48:	aa 0c       	add	r10, r10
    1a4a:	4a 95       	dec	r20
    1a4c:	ea f7       	brpl	.-6      	; 0x1a48 <displayFillRect+0x62>
	
	displayGotoXY(x, y);
    1a4e:	8b 2d       	mov	r24, r11
    1a50:	60 2f       	mov	r22, r16
    1a52:	0e 94 4d 09 	call	0x129a	; 0x129a <displayGotoXY>
	for(i=0; i<=width; i++) {
    1a56:	ff 24       	eor	r15, r15
		data = displayReadData();
		
		if(color == BLACK) {
			data |= mask;
		} else {
			data &= ~mask;
    1a58:	ca 2c       	mov	r12, r10
    1a5a:	c0 94       	com	r12
	}
	mask <<= pageOffset;
	
	displayGotoXY(x, y);
	for(i=0; i<=width; i++) {
		data = displayReadData();
    1a5c:	0e 94 b2 09 	call	0x1364	; 0x1364 <displayReadData>
		
		if(color == BLACK) {
    1a60:	7e 2d       	mov	r23, r14
    1a62:	7f 3f       	cpi	r23, 0xFF	; 255
    1a64:	11 f4       	brne	.+4      	; 0x1a6a <displayFillRect+0x84>
			data |= mask;
    1a66:	8a 29       	or	r24, r10
    1a68:	01 c0       	rjmp	.+2      	; 0x1a6c <displayFillRect+0x86>
		} else {
			data &= ~mask;
    1a6a:	8c 21       	and	r24, r12
		}

		displayWriteData(data);
    1a6c:	0e 94 b9 09 	call	0x1372	; 0x1372 <displayWriteData>
		h = 8-pageOffset;
	}
	mask <<= pageOffset;
	
	displayGotoXY(x, y);
	for(i=0; i<=width; i++) {
    1a70:	f3 94       	inc	r15
    1a72:	df 14       	cp	r13, r15
    1a74:	98 f7       	brcc	.-26     	; 0x1a5c <displayFillRect+0x76>
    1a76:	0e c0       	rjmp	.+28     	; 0x1a94 <displayFillRect+0xae>

		displayWriteData(data);
	}
	
	while(h+8 <= height) {
		h += 8;
    1a78:	18 5f       	subi	r17, 0xF8	; 248
		y += 8;
    1a7a:	08 5f       	subi	r16, 0xF8	; 248
		displayGotoXY(x, y);
    1a7c:	8b 2d       	mov	r24, r11
    1a7e:	60 2f       	mov	r22, r16
    1a80:	0e 94 4d 09 	call	0x129a	; 0x129a <displayGotoXY>
		
		for(i=0; i<=width; i++) {
    1a84:	cf 2c       	mov	r12, r15
			displayWriteData(color);
    1a86:	8e 2d       	mov	r24, r14
    1a88:	0e 94 b9 09 	call	0x1372	; 0x1372 <displayWriteData>
	while(h+8 <= height) {
		h += 8;
		y += 8;
		displayGotoXY(x, y);
		
		for(i=0; i<=width; i++) {
    1a8c:	c3 94       	inc	r12
    1a8e:	dc 14       	cp	r13, r12
    1a90:	10 f0       	brcs	.+4      	; 0x1a96 <displayFillRect+0xb0>
    1a92:	f9 cf       	rjmp	.-14     	; 0x1a86 <displayFillRect+0xa0>
    1a94:	ff 24       	eor	r15, r15
		}

		displayWriteData(data);
	}
	
	while(h+8 <= height) {
    1a96:	81 2f       	mov	r24, r17
    1a98:	90 e0       	ldi	r25, 0x00	; 0
    1a9a:	9c 01       	movw	r18, r24
    1a9c:	28 5f       	subi	r18, 0xF8	; 248
    1a9e:	3f 4f       	sbci	r19, 0xFF	; 255
    1aa0:	c2 17       	cp	r28, r18
    1aa2:	d3 07       	cpc	r29, r19
    1aa4:	4c f7       	brge	.-46     	; 0x1a78 <displayFillRect+0x92>
		for(i=0; i<=width; i++) {
			displayWriteData(color);
		}
	}
	
	if(h < height) {
    1aa6:	19 15       	cp	r17, r9
    1aa8:	18 f5       	brcc	.+70     	; 0x1af0 <displayFillRect+0x10a>
		mask = ~(0xFF << (height-h));
    1aaa:	c8 1b       	sub	r28, r24
    1aac:	d9 0b       	sbc	r29, r25
    1aae:	8f ef       	ldi	r24, 0xFF	; 255
    1ab0:	90 e0       	ldi	r25, 0x00	; 0
    1ab2:	9c 01       	movw	r18, r24
    1ab4:	0c 2e       	mov	r0, r28
    1ab6:	02 c0       	rjmp	.+4      	; 0x1abc <displayFillRect+0xd6>
    1ab8:	22 0f       	add	r18, r18
    1aba:	33 1f       	adc	r19, r19
    1abc:	0a 94       	dec	r0
    1abe:	e2 f7       	brpl	.-8      	; 0x1ab8 <displayFillRect+0xd2>
    1ac0:	b9 01       	movw	r22, r18
    1ac2:	60 95       	com	r22
    1ac4:	f6 2e       	mov	r15, r22
		displayGotoXY(x, y+8);
    1ac6:	60 2f       	mov	r22, r16
    1ac8:	68 5f       	subi	r22, 0xF8	; 248
    1aca:	8b 2d       	mov	r24, r11
    1acc:	0e 94 4d 09 	call	0x129a	; 0x129a <displayGotoXY>
		
		for(i=0; i<=width; i++) {
    1ad0:	10 e0       	ldi	r17, 0x00	; 0
			data = displayReadData();
		
			if(color == BLACK) {
				data |= mask;
			} else {
				data &= ~mask;
    1ad2:	0f 2d       	mov	r16, r15
    1ad4:	00 95       	com	r16
	if(h < height) {
		mask = ~(0xFF << (height-h));
		displayGotoXY(x, y+8);
		
		for(i=0; i<=width; i++) {
			data = displayReadData();
    1ad6:	0e 94 b2 09 	call	0x1364	; 0x1364 <displayReadData>
		
			if(color == BLACK) {
    1ada:	7e 2d       	mov	r23, r14
    1adc:	7f 3f       	cpi	r23, 0xFF	; 255
    1ade:	11 f4       	brne	.+4      	; 0x1ae4 <displayFillRect+0xfe>
				data |= mask;
    1ae0:	8f 29       	or	r24, r15
    1ae2:	01 c0       	rjmp	.+2      	; 0x1ae6 <displayFillRect+0x100>
			} else {
				data &= ~mask;
    1ae4:	80 23       	and	r24, r16
			}
	
			displayWriteData(data);
    1ae6:	0e 94 b9 09 	call	0x1372	; 0x1372 <displayWriteData>
	
	if(h < height) {
		mask = ~(0xFF << (height-h));
		displayGotoXY(x, y+8);
		
		for(i=0; i<=width; i++) {
    1aea:	1f 5f       	subi	r17, 0xFF	; 255
    1aec:	d1 16       	cp	r13, r17
    1aee:	98 f7       	brcc	.-26     	; 0x1ad6 <displayFillRect+0xf0>
			}
	
			displayWriteData(data);
		}
	}
}
    1af0:	df 91       	pop	r29
    1af2:	cf 91       	pop	r28
    1af4:	1f 91       	pop	r17
    1af6:	0f 91       	pop	r16
    1af8:	ff 90       	pop	r15
    1afa:	ef 90       	pop	r14
    1afc:	df 90       	pop	r13
    1afe:	cf 90       	pop	r12
    1b00:	bf 90       	pop	r11
    1b02:	af 90       	pop	r10
    1b04:	9f 90       	pop	r9
    1b06:	08 95       	ret

00001b08 <displayDrawRoundRect>:
	displayDrawHoriLine(x, y+height, width, color);		// bottom
	displayDrawVertLine(x, y, height, color);			// left
	displayDrawVertLine(x+width, y, height, color);		// right
}

void displayDrawRoundRect(uint8_t x, uint8_t y, uint8_t width, uint8_t height, uint8_t radius, uint8_t color) {
    1b08:	2f 92       	push	r2
    1b0a:	3f 92       	push	r3
    1b0c:	4f 92       	push	r4
    1b0e:	5f 92       	push	r5
    1b10:	6f 92       	push	r6
    1b12:	7f 92       	push	r7
    1b14:	8f 92       	push	r8
    1b16:	9f 92       	push	r9
    1b18:	af 92       	push	r10
    1b1a:	bf 92       	push	r11
    1b1c:	cf 92       	push	r12
    1b1e:	df 92       	push	r13
    1b20:	ef 92       	push	r14
    1b22:	ff 92       	push	r15
    1b24:	0f 93       	push	r16
    1b26:	1f 93       	push	r17
    1b28:	df 93       	push	r29
    1b2a:	cf 93       	push	r28
    1b2c:	cd b7       	in	r28, 0x3d	; 61
    1b2e:	de b7       	in	r29, 0x3e	; 62
    1b30:	2b 97       	sbiw	r28, 0x0b	; 11
    1b32:	0f b6       	in	r0, 0x3f	; 63
    1b34:	f8 94       	cli
    1b36:	de bf       	out	0x3e, r29	; 62
    1b38:	0f be       	out	0x3f, r0	; 63
    1b3a:	cd bf       	out	0x3d, r28	; 61
    1b3c:	8c 83       	std	Y+4, r24	; 0x04
    1b3e:	6d 83       	std	Y+5, r22	; 0x05
    1b40:	48 87       	std	Y+8, r20	; 0x08
    1b42:	29 87       	std	Y+9, r18	; 0x09
    1b44:	0b 83       	std	Y+3, r16	; 0x03
  	int16_t tSwitch, x1 = 0, y1 = radius;
    1b46:	c0 2e       	mov	r12, r16
    1b48:	dd 24       	eor	r13, r13
  	tSwitch = 3 - 2 * radius;
    1b4a:	66 24       	eor	r6, r6
    1b4c:	77 24       	eor	r7, r7
    1b4e:	6c 18       	sub	r6, r12
    1b50:	7d 08       	sbc	r7, r13
    1b52:	66 0c       	add	r6, r6
    1b54:	77 1c       	adc	r7, r7
    1b56:	83 e0       	ldi	r24, 0x03	; 3
    1b58:	90 e0       	ldi	r25, 0x00	; 0
    1b5a:	68 0e       	add	r6, r24
    1b5c:	79 1e       	adc	r7, r25
    1b5e:	30 2e       	mov	r3, r16
    1b60:	9c 81       	ldd	r25, Y+4	; 0x04
    1b62:	39 0e       	add	r3, r25
    1b64:	20 2e       	mov	r2, r16
    1b66:	26 0e       	add	r2, r22
	displayDrawHoriLine(x, y+height, width, color);		// bottom
	displayDrawVertLine(x, y, height, color);			// left
	displayDrawVertLine(x+width, y, height, color);		// right
}

void displayDrawRoundRect(uint8_t x, uint8_t y, uint8_t width, uint8_t height, uint8_t radius, uint8_t color) {
    1b68:	e4 2f       	mov	r30, r20
    1b6a:	e9 0f       	add	r30, r25
    1b6c:	ef 83       	std	Y+7, r30	; 0x07
    1b6e:	e0 1b       	sub	r30, r16
    1b70:	e9 83       	std	Y+1, r30	; 0x01
    1b72:	82 2f       	mov	r24, r18
    1b74:	86 0f       	add	r24, r22
    1b76:	8e 83       	std	Y+6, r24	; 0x06
    1b78:	80 1b       	sub	r24, r16
    1b7a:	8a 83       	std	Y+2, r24	; 0x02
    1b7c:	f8 2e       	mov	r15, r24
    1b7e:	be 2e       	mov	r11, r30
    1b80:	a2 2c       	mov	r10, r2
    1b82:	93 2c       	mov	r9, r3
    1b84:	44 24       	eor	r4, r4
    1b86:	55 24       	eor	r5, r5
  	int16_t tSwitch, x1 = 0, y1 = radius;
    1b88:	1b 86       	std	Y+11, r1	; 0x0b
    1b8a:	1a 86       	std	Y+10, r1	; 0x0a
  	tSwitch = 3 - 2 * radius;
	
	while (x1 <= y1) {
	    displaySetDot(x+radius - x1, y+radius - y1, color);
    1b8c:	1c 2d       	mov	r17, r12
    1b8e:	02 2d       	mov	r16, r2
    1b90:	0c 19       	sub	r16, r12
    1b92:	89 2d       	mov	r24, r9
    1b94:	60 2f       	mov	r22, r16
    1b96:	4e 2d       	mov	r20, r14
    1b98:	0e 94 2f 0c 	call	0x185e	; 0x185e <displaySetDot>
	    displaySetDot(x+radius - y1, y+radius - x1, color);
    1b9c:	83 2c       	mov	r8, r3
    1b9e:	8c 18       	sub	r8, r12
    1ba0:	88 2d       	mov	r24, r8
    1ba2:	6a 2d       	mov	r22, r10
    1ba4:	4e 2d       	mov	r20, r14
    1ba6:	0e 94 2f 0c 	call	0x185e	; 0x185e <displaySetDot>

	    displaySetDot(x+width-radius + x1, y+radius - y1, color);
    1baa:	8b 2d       	mov	r24, r11
    1bac:	60 2f       	mov	r22, r16
    1bae:	4e 2d       	mov	r20, r14
    1bb0:	0e 94 2f 0c 	call	0x185e	; 0x185e <displaySetDot>
	    displaySetDot(x+width-radius + y1, y+radius - x1, color);
    1bb4:	09 81       	ldd	r16, Y+1	; 0x01
    1bb6:	0c 0d       	add	r16, r12
    1bb8:	80 2f       	mov	r24, r16
    1bba:	6a 2d       	mov	r22, r10
    1bbc:	4e 2d       	mov	r20, r14
    1bbe:	0e 94 2f 0c 	call	0x185e	; 0x185e <displaySetDot>
	    
	    displaySetDot(x+width-radius + x1, y+height-radius + y1, color);
    1bc2:	9a 81       	ldd	r25, Y+2	; 0x02
    1bc4:	19 0f       	add	r17, r25
    1bc6:	8b 2d       	mov	r24, r11
    1bc8:	61 2f       	mov	r22, r17
    1bca:	4e 2d       	mov	r20, r14
    1bcc:	0e 94 2f 0c 	call	0x185e	; 0x185e <displaySetDot>
	    displaySetDot(x+width-radius + y1, y+height-radius + x1, color);
    1bd0:	80 2f       	mov	r24, r16
    1bd2:	6f 2d       	mov	r22, r15
    1bd4:	4e 2d       	mov	r20, r14
    1bd6:	0e 94 2f 0c 	call	0x185e	; 0x185e <displaySetDot>

	    displaySetDot(x+radius - x1, y+height-radius + y1, color);
    1bda:	89 2d       	mov	r24, r9
    1bdc:	61 2f       	mov	r22, r17
    1bde:	4e 2d       	mov	r20, r14
    1be0:	0e 94 2f 0c 	call	0x185e	; 0x185e <displaySetDot>
	    displaySetDot(x+radius - y1, y+height-radius + x1, color);
    1be4:	88 2d       	mov	r24, r8
    1be6:	6f 2d       	mov	r22, r15
    1be8:	4e 2d       	mov	r20, r14
    1bea:	0e 94 2f 0c 	call	0x185e	; 0x185e <displaySetDot>

	    if (tSwitch < 0) {
    1bee:	77 20       	and	r7, r7
    1bf0:	3c f4       	brge	.+14     	; 0x1c00 <displayDrawRoundRect+0xf8>
	    	tSwitch += (4 * x1 + 6);
    1bf2:	e6 e0       	ldi	r30, 0x06	; 6
    1bf4:	f0 e0       	ldi	r31, 0x00	; 0
    1bf6:	6e 0e       	add	r6, r30
    1bf8:	7f 1e       	adc	r7, r31
    1bfa:	64 0c       	add	r6, r4
    1bfc:	75 1c       	adc	r7, r5
    1bfe:	11 c0       	rjmp	.+34     	; 0x1c22 <displayDrawRoundRect+0x11a>
	    } else {
	    	tSwitch += (4 * (x1 - y1) + 10);
    1c00:	8a e0       	ldi	r24, 0x0A	; 10
    1c02:	90 e0       	ldi	r25, 0x00	; 0
    1c04:	68 0e       	add	r6, r24
    1c06:	79 1e       	adc	r7, r25
    1c08:	8a 85       	ldd	r24, Y+10	; 0x0a
    1c0a:	9b 85       	ldd	r25, Y+11	; 0x0b
    1c0c:	8c 19       	sub	r24, r12
    1c0e:	9d 09       	sbc	r25, r13
    1c10:	88 0f       	add	r24, r24
    1c12:	99 1f       	adc	r25, r25
    1c14:	88 0f       	add	r24, r24
    1c16:	99 1f       	adc	r25, r25
    1c18:	68 0e       	add	r6, r24
    1c1a:	79 1e       	adc	r7, r25
	    	y1--;
    1c1c:	08 94       	sec
    1c1e:	c1 08       	sbc	r12, r1
    1c20:	d1 08       	sbc	r13, r1
	    }
	    x1++;
    1c22:	ea 85       	ldd	r30, Y+10	; 0x0a
    1c24:	fb 85       	ldd	r31, Y+11	; 0x0b
    1c26:	31 96       	adiw	r30, 0x01	; 1
    1c28:	fb 87       	std	Y+11, r31	; 0x0b
    1c2a:	ea 87       	std	Y+10, r30	; 0x0a
    1c2c:	9a 94       	dec	r9
    1c2e:	aa 94       	dec	r10
    1c30:	b3 94       	inc	r11
    1c32:	f3 94       	inc	r15
    1c34:	84 e0       	ldi	r24, 0x04	; 4
    1c36:	90 e0       	ldi	r25, 0x00	; 0
    1c38:	48 0e       	add	r4, r24
    1c3a:	59 1e       	adc	r5, r25

void displayDrawRoundRect(uint8_t x, uint8_t y, uint8_t width, uint8_t height, uint8_t radius, uint8_t color) {
  	int16_t tSwitch, x1 = 0, y1 = radius;
  	tSwitch = 3 - 2 * radius;
	
	while (x1 <= y1) {
    1c3c:	ce 16       	cp	r12, r30
    1c3e:	df 06       	cpc	r13, r31
    1c40:	0c f0       	brlt	.+2      	; 0x1c44 <displayDrawRoundRect+0x13c>
    1c42:	a4 cf       	rjmp	.-184    	; 0x1b8c <displayDrawRoundRect+0x84>
	    	y1--;
	    }
	    x1++;
	}
	  	
	displayDrawHoriLine(x+radius, y, width-(2*radius), color);			// top
    1c44:	fb 80       	ldd	r15, Y+3	; 0x03
    1c46:	f1 94       	neg	r15
    1c48:	ff 0c       	add	r15, r15
    1c4a:	18 85       	ldd	r17, Y+8	; 0x08
    1c4c:	1f 0d       	add	r17, r15
    1c4e:	83 2d       	mov	r24, r3
    1c50:	6d 81       	ldd	r22, Y+5	; 0x05
    1c52:	41 2f       	mov	r20, r17
    1c54:	20 e0       	ldi	r18, 0x00	; 0
    1c56:	0e 2d       	mov	r16, r14
    1c58:	0e 94 f3 0c 	call	0x19e6	; 0x19e6 <displayFillRect>
	displayDrawHoriLine(x+radius, y+height, width-(2*radius), color);	// bottom
    1c5c:	83 2d       	mov	r24, r3
    1c5e:	6e 81       	ldd	r22, Y+6	; 0x06
    1c60:	41 2f       	mov	r20, r17
    1c62:	20 e0       	ldi	r18, 0x00	; 0
    1c64:	0e 94 f3 0c 	call	0x19e6	; 0x19e6 <displayFillRect>
	displayDrawVertLine(x, y+radius, height-(2*radius), color);			// left
    1c68:	19 85       	ldd	r17, Y+9	; 0x09
    1c6a:	1f 0d       	add	r17, r15
    1c6c:	8c 81       	ldd	r24, Y+4	; 0x04
    1c6e:	62 2d       	mov	r22, r2
    1c70:	40 e0       	ldi	r20, 0x00	; 0
    1c72:	21 2f       	mov	r18, r17
    1c74:	0e 94 f3 0c 	call	0x19e6	; 0x19e6 <displayFillRect>
	displayDrawVertLine(x+width, y+radius, height-(2*radius), color);	// right
    1c78:	8f 81       	ldd	r24, Y+7	; 0x07
    1c7a:	62 2d       	mov	r22, r2
    1c7c:	40 e0       	ldi	r20, 0x00	; 0
    1c7e:	21 2f       	mov	r18, r17
    1c80:	0e 94 f3 0c 	call	0x19e6	; 0x19e6 <displayFillRect>
}
    1c84:	2b 96       	adiw	r28, 0x0b	; 11
    1c86:	0f b6       	in	r0, 0x3f	; 63
    1c88:	f8 94       	cli
    1c8a:	de bf       	out	0x3e, r29	; 62
    1c8c:	0f be       	out	0x3f, r0	; 63
    1c8e:	cd bf       	out	0x3d, r28	; 61
    1c90:	cf 91       	pop	r28
    1c92:	df 91       	pop	r29
    1c94:	1f 91       	pop	r17
    1c96:	0f 91       	pop	r16
    1c98:	ff 90       	pop	r15
    1c9a:	ef 90       	pop	r14
    1c9c:	df 90       	pop	r13
    1c9e:	cf 90       	pop	r12
    1ca0:	bf 90       	pop	r11
    1ca2:	af 90       	pop	r10
    1ca4:	9f 90       	pop	r9
    1ca6:	8f 90       	pop	r8
    1ca8:	7f 90       	pop	r7
    1caa:	6f 90       	pop	r6
    1cac:	5f 90       	pop	r5
    1cae:	4f 90       	pop	r4
    1cb0:	3f 90       	pop	r3
    1cb2:	2f 90       	pop	r2
    1cb4:	08 95       	ret

00001cb6 <displayDrawRect>:
			}
		}
	}
}

void displayDrawRect(uint8_t x, uint8_t y, uint8_t width, uint8_t height, uint8_t color) {
    1cb6:	cf 92       	push	r12
    1cb8:	df 92       	push	r13
    1cba:	ef 92       	push	r14
    1cbc:	ff 92       	push	r15
    1cbe:	0f 93       	push	r16
    1cc0:	1f 93       	push	r17
    1cc2:	f8 2e       	mov	r15, r24
    1cc4:	e6 2e       	mov	r14, r22
    1cc6:	d4 2e       	mov	r13, r20
    1cc8:	c2 2e       	mov	r12, r18
	displayDrawHoriLine(x, y, width, color);				// top
    1cca:	20 e0       	ldi	r18, 0x00	; 0
    1ccc:	0e 94 f3 0c 	call	0x19e6	; 0x19e6 <displayFillRect>
	displayDrawHoriLine(x, y+height, width, color);		// bottom
    1cd0:	6c 2d       	mov	r22, r12
    1cd2:	6e 0d       	add	r22, r14
    1cd4:	8f 2d       	mov	r24, r15
    1cd6:	4d 2d       	mov	r20, r13
    1cd8:	20 e0       	ldi	r18, 0x00	; 0
    1cda:	0e 94 f3 0c 	call	0x19e6	; 0x19e6 <displayFillRect>
	displayDrawVertLine(x, y, height, color);			// left
    1cde:	8f 2d       	mov	r24, r15
    1ce0:	6e 2d       	mov	r22, r14
    1ce2:	40 e0       	ldi	r20, 0x00	; 0
    1ce4:	2c 2d       	mov	r18, r12
    1ce6:	0e 94 f3 0c 	call	0x19e6	; 0x19e6 <displayFillRect>
	displayDrawVertLine(x+width, y, height, color);		// right
    1cea:	8d 2d       	mov	r24, r13
    1cec:	8f 0d       	add	r24, r15
    1cee:	6e 2d       	mov	r22, r14
    1cf0:	40 e0       	ldi	r20, 0x00	; 0
    1cf2:	2c 2d       	mov	r18, r12
    1cf4:	0e 94 f3 0c 	call	0x19e6	; 0x19e6 <displayFillRect>
}
    1cf8:	1f 91       	pop	r17
    1cfa:	0f 91       	pop	r16
    1cfc:	ff 90       	pop	r15
    1cfe:	ef 90       	pop	r14
    1d00:	df 90       	pop	r13
    1d02:	cf 90       	pop	r12
    1d04:	08 95       	ret

00001d06 <displayDrawLine>:
	displayClearScreen();							// display clear
	displayGotoXY(0,0);
}


void displayDrawLine(uint8_t x1, uint8_t y1, uint8_t x2, uint8_t y2, uint8_t color) {
    1d06:	2f 92       	push	r2
    1d08:	3f 92       	push	r3
    1d0a:	4f 92       	push	r4
    1d0c:	5f 92       	push	r5
    1d0e:	6f 92       	push	r6
    1d10:	7f 92       	push	r7
    1d12:	8f 92       	push	r8
    1d14:	9f 92       	push	r9
    1d16:	af 92       	push	r10
    1d18:	bf 92       	push	r11
    1d1a:	cf 92       	push	r12
    1d1c:	df 92       	push	r13
    1d1e:	ef 92       	push	r14
    1d20:	ff 92       	push	r15
    1d22:	0f 93       	push	r16
    1d24:	1f 93       	push	r17
    1d26:	df 93       	push	r29
    1d28:	cf 93       	push	r28
    1d2a:	00 d0       	rcall	.+0      	; 0x1d2c <displayDrawLine+0x26>
    1d2c:	00 d0       	rcall	.+0      	; 0x1d2e <displayDrawLine+0x28>
    1d2e:	cd b7       	in	r28, 0x3d	; 61
    1d30:	de b7       	in	r29, 0x3e	; 62
    1d32:	e8 2e       	mov	r14, r24
    1d34:	d6 2e       	mov	r13, r22
    1d36:	a4 2e       	mov	r10, r20
    1d38:	b2 2e       	mov	r11, r18
    1d3a:	c0 2e       	mov	r12, r16
	int16_t m;
	
	//
	// vertical line
	//
	if(x1 == x2) {
    1d3c:	84 17       	cp	r24, r20
    1d3e:	69 f4       	brne	.+26     	; 0x1d5a <displayDrawLine+0x54>
		// x1|y1 must be the upper point
		if(y1 > y2) {
    1d40:	26 17       	cp	r18, r22
    1d42:	10 f4       	brcc	.+4      	; 0x1d48 <displayDrawLine+0x42>
			yTmp = y1;
			y1 = y2;
    1d44:	d2 2e       	mov	r13, r18
			y2 = yTmp;
    1d46:	b6 2e       	mov	r11, r22
		}
		displayDrawVertLine(x1, y1, y2-y1, color);
    1d48:	2b 2d       	mov	r18, r11
    1d4a:	2d 19       	sub	r18, r13
    1d4c:	8e 2d       	mov	r24, r14
    1d4e:	6d 2d       	mov	r22, r13
    1d50:	40 e0       	ldi	r20, 0x00	; 0
    1d52:	0c 2d       	mov	r16, r12
    1d54:	0e 94 f3 0c 	call	0x19e6	; 0x19e6 <displayFillRect>
    1d58:	f4 c0       	rjmp	.+488    	; 0x1f42 <displayDrawLine+0x23c>
	
	//
	// horizontal line
	//
	} else if(y1 == y2) {	
    1d5a:	62 17       	cp	r22, r18
    1d5c:	69 f4       	brne	.+26     	; 0x1d78 <displayDrawLine+0x72>
		// x1|y1 must be the left point
		if(x1 > x2) {
    1d5e:	48 17       	cp	r20, r24
    1d60:	10 f4       	brcc	.+4      	; 0x1d66 <displayDrawLine+0x60>
			xTmp = x1;
			x1 = x2;
    1d62:	e4 2e       	mov	r14, r20
			x2 = xTmp;
    1d64:	a8 2e       	mov	r10, r24
		}
		displayDrawHoriLine(x1, y1, x2-x1, color);
    1d66:	4a 2d       	mov	r20, r10
    1d68:	4e 19       	sub	r20, r14
    1d6a:	8e 2d       	mov	r24, r14
    1d6c:	6d 2d       	mov	r22, r13
    1d6e:	20 e0       	ldi	r18, 0x00	; 0
    1d70:	0c 2d       	mov	r16, r12
    1d72:	0e 94 f3 0c 	call	0x19e6	; 0x19e6 <displayFillRect>
    1d76:	e5 c0       	rjmp	.+458    	; 0x1f42 <displayDrawLine+0x23c>
	//
	// schiefe line :)
	//
	} else {
		// angle >= 45
		if((y2-y1) >= (x2-x1) || (y1-y2) >= (x2-x1)) {
    1d78:	30 e0       	ldi	r19, 0x00	; 0
    1d7a:	46 2f       	mov	r20, r22
    1d7c:	50 e0       	ldi	r21, 0x00	; 0
    1d7e:	8a 2d       	mov	r24, r10
    1d80:	90 e0       	ldi	r25, 0x00	; 0
    1d82:	8e 19       	sub	r24, r14
    1d84:	91 09       	sbc	r25, r1
    1d86:	b9 01       	movw	r22, r18
    1d88:	64 1b       	sub	r22, r20
    1d8a:	75 0b       	sbc	r23, r21
    1d8c:	68 17       	cp	r22, r24
    1d8e:	79 07       	cpc	r23, r25
    1d90:	34 f4       	brge	.+12     	; 0x1d9e <displayDrawLine+0x98>
    1d92:	42 1b       	sub	r20, r18
    1d94:	53 0b       	sbc	r21, r19
    1d96:	48 17       	cp	r20, r24
    1d98:	59 07       	cpc	r21, r25
    1d9a:	0c f4       	brge	.+2      	; 0x1d9e <displayDrawLine+0x98>
    1d9c:	6b c0       	rjmp	.+214    	; 0x1e74 <displayDrawLine+0x16e>
			// x1 must be smaller than x2
			if(x1 > x2) {
    1d9e:	ae 14       	cp	r10, r14
    1da0:	30 f4       	brcc	.+12     	; 0x1dae <displayDrawLine+0xa8>
    1da2:	8d 2d       	mov	r24, r13
				xTmp = x1;
				yTmp = y1;
				x1 = x2;
				y1 = y2;
    1da4:	db 2c       	mov	r13, r11
				x2 = xTmp;
				y2 = yTmp;
    1da6:	b8 2e       	mov	r11, r24
	//
	} else {
		// angle >= 45
		if((y2-y1) >= (x2-x1) || (y1-y2) >= (x2-x1)) {
			// x1 must be smaller than x2
			if(x1 > x2) {
    1da8:	8e 2d       	mov	r24, r14
				xTmp = x1;
				yTmp = y1;
				x1 = x2;
    1daa:	ea 2c       	mov	r14, r10
				y1 = y2;
				x2 = xTmp;
    1dac:	a8 2e       	mov	r10, r24
				y2 = yTmp;
			}
		
			length = x2-x1;		// not really the length :)
    1dae:	ae 18       	sub	r10, r14
			m = ((y2-y1)*200)/length;
    1db0:	8b 2d       	mov	r24, r11
    1db2:	90 e0       	ldi	r25, 0x00	; 0
    1db4:	9a 83       	std	Y+2, r25	; 0x02
    1db6:	89 83       	std	Y+1, r24	; 0x01
    1db8:	2d 2c       	mov	r2, r13
    1dba:	33 24       	eor	r3, r3
    1dbc:	4c 01       	movw	r8, r24
    1dbe:	82 18       	sub	r8, r2
    1dc0:	93 08       	sbc	r9, r3
    1dc2:	aa 2d       	mov	r26, r10
    1dc4:	b0 e0       	ldi	r27, 0x00	; 0
    1dc6:	bc 83       	std	Y+4, r27	; 0x04
    1dc8:	ab 83       	std	Y+3, r26	; 0x03
    1dca:	28 ec       	ldi	r18, 0xC8	; 200
    1dcc:	30 e0       	ldi	r19, 0x00	; 0
    1dce:	82 9e       	mul	r8, r18
    1dd0:	c0 01       	movw	r24, r0
    1dd2:	83 9e       	mul	r8, r19
    1dd4:	90 0d       	add	r25, r0
    1dd6:	92 9e       	mul	r9, r18
    1dd8:	90 0d       	add	r25, r0
    1dda:	11 24       	eor	r1, r1
    1ddc:	bd 01       	movw	r22, r26
    1dde:	0e 94 b3 25 	call	0x4b66	; 0x4b66 <__divmodhi4>
    1de2:	3b 01       	movw	r6, r22
			yAlt = y1;
    1de4:	ed 2d       	mov	r30, r13
			
			for(i=0; i<=length; i++) {
    1de6:	10 e0       	ldi	r17, 0x00	; 0
				y = ((m*i)/200)+y1;
    1de8:	0f 2e       	mov	r0, r31
    1dea:	f8 ec       	ldi	r31, 0xC8	; 200
    1dec:	4f 2e       	mov	r4, r31
    1dee:	55 24       	eor	r5, r5
    1df0:	f0 2d       	mov	r31, r0
				
				displayDrawLine(x1+i, yAlt, x1+i, y, color);
				
				if(length <= (y2-y1) && y1 < y2)
					yAlt = y+1;
				else if(length <= (y1-y2) && y1 > y2)
    1df2:	89 81       	ldd	r24, Y+1	; 0x01
    1df4:	9a 81       	ldd	r25, Y+2	; 0x02
    1df6:	28 1a       	sub	r2, r24
    1df8:	39 0a       	sbc	r3, r25
			length = x2-x1;		// not really the length :)
			m = ((y2-y1)*200)/length;
			yAlt = y1;
			
			for(i=0; i<=length; i++) {
				y = ((m*i)/200)+y1;
    1dfa:	21 2f       	mov	r18, r17
    1dfc:	30 e0       	ldi	r19, 0x00	; 0
    1dfe:	26 9d       	mul	r18, r6
    1e00:	c0 01       	movw	r24, r0
    1e02:	27 9d       	mul	r18, r7
    1e04:	90 0d       	add	r25, r0
    1e06:	36 9d       	mul	r19, r6
    1e08:	90 0d       	add	r25, r0
    1e0a:	11 24       	eor	r1, r1
    1e0c:	b2 01       	movw	r22, r4
    1e0e:	0e 94 b3 25 	call	0x4b66	; 0x4b66 <__divmodhi4>
    1e12:	fd 2c       	mov	r15, r13
    1e14:	f6 0e       	add	r15, r22
				
				if((m*i)%200 >= 100)
    1e16:	28 2f       	mov	r18, r24
    1e18:	39 2f       	mov	r19, r25
    1e1a:	24 36       	cpi	r18, 0x64	; 100
    1e1c:	31 05       	cpc	r19, r1
    1e1e:	14 f0       	brlt	.+4      	; 0x1e24 <displayDrawLine+0x11e>
					y++;
    1e20:	f3 94       	inc	r15
    1e22:	05 c0       	rjmp	.+10     	; 0x1e2e <displayDrawLine+0x128>
				else if((m*i)%200 <= -100)
    1e24:	9f ef       	ldi	r25, 0xFF	; 255
    1e26:	2d 39       	cpi	r18, 0x9D	; 157
    1e28:	39 07       	cpc	r19, r25
    1e2a:	0c f4       	brge	.+2      	; 0x1e2e <displayDrawLine+0x128>
					y--;
    1e2c:	fa 94       	dec	r15
    1e2e:	41 2f       	mov	r20, r17
    1e30:	4e 0d       	add	r20, r14
				
				displayDrawLine(x1+i, yAlt, x1+i, y, color);
    1e32:	84 2f       	mov	r24, r20
    1e34:	6e 2f       	mov	r22, r30
    1e36:	2f 2d       	mov	r18, r15
    1e38:	0c 2d       	mov	r16, r12
    1e3a:	0e 94 83 0e 	call	0x1d06	; 0x1d06 <displayDrawLine>
				
				if(length <= (y2-y1) && y1 < y2)
    1e3e:	ab 81       	ldd	r26, Y+3	; 0x03
    1e40:	bc 81       	ldd	r27, Y+4	; 0x04
    1e42:	8a 16       	cp	r8, r26
    1e44:	9b 06       	cpc	r9, r27
    1e46:	2c f0       	brlt	.+10     	; 0x1e52 <displayDrawLine+0x14c>
    1e48:	db 14       	cp	r13, r11
    1e4a:	18 f4       	brcc	.+6      	; 0x1e52 <displayDrawLine+0x14c>
					yAlt = y+1;
    1e4c:	ef 2d       	mov	r30, r15
    1e4e:	ef 5f       	subi	r30, 0xFF	; 255
    1e50:	0d c0       	rjmp	.+26     	; 0x1e6c <displayDrawLine+0x166>
				else if(length <= (y1-y2) && y1 > y2)
    1e52:	eb 81       	ldd	r30, Y+3	; 0x03
    1e54:	fc 81       	ldd	r31, Y+4	; 0x04
    1e56:	2e 16       	cp	r2, r30
    1e58:	3f 06       	cpc	r3, r31
    1e5a:	2c f0       	brlt	.+10     	; 0x1e66 <displayDrawLine+0x160>
    1e5c:	bd 14       	cp	r11, r13
    1e5e:	28 f4       	brcc	.+10     	; 0x1e6a <displayDrawLine+0x164>
					yAlt = y-1;
    1e60:	ef 2d       	mov	r30, r15
    1e62:	e1 50       	subi	r30, 0x01	; 1
    1e64:	03 c0       	rjmp	.+6      	; 0x1e6c <displayDrawLine+0x166>
				else
					yAlt = y;
    1e66:	ef 2d       	mov	r30, r15
    1e68:	01 c0       	rjmp	.+2      	; 0x1e6c <displayDrawLine+0x166>
    1e6a:	ef 2d       	mov	r30, r15
		
			length = x2-x1;		// not really the length :)
			m = ((y2-y1)*200)/length;
			yAlt = y1;
			
			for(i=0; i<=length; i++) {
    1e6c:	1f 5f       	subi	r17, 0xFF	; 255
    1e6e:	a1 16       	cp	r10, r17
    1e70:	20 f6       	brcc	.-120    	; 0x1dfa <displayDrawLine+0xf4>
    1e72:	67 c0       	rjmp	.+206    	; 0x1f42 <displayDrawLine+0x23c>
			}
		
		// angle < 45
		} else {
			// y1 must be smaller than y2
			if(y1 > y2) {
    1e74:	bd 14       	cp	r11, r13
    1e76:	30 f4       	brcc	.+12     	; 0x1e84 <displayDrawLine+0x17e>
    1e78:	8d 2d       	mov	r24, r13
				xTmp = x1;
				yTmp = y1;
				x1 = x2;
				y1 = y2;
    1e7a:	db 2c       	mov	r13, r11
				x2 = xTmp;
				y2 = yTmp;
    1e7c:	b8 2e       	mov	r11, r24
			}
		
		// angle < 45
		} else {
			// y1 must be smaller than y2
			if(y1 > y2) {
    1e7e:	8e 2d       	mov	r24, r14
				xTmp = x1;
				yTmp = y1;
				x1 = x2;
    1e80:	ea 2c       	mov	r14, r10
				y1 = y2;
				x2 = xTmp;
    1e82:	a8 2e       	mov	r10, r24
				y2 = yTmp;
			}
			
			length = y2-y1;
    1e84:	bd 18       	sub	r11, r13
			m = ((x2-x1)*200)/length;
    1e86:	ea 2d       	mov	r30, r10
    1e88:	f0 e0       	ldi	r31, 0x00	; 0
    1e8a:	2e 2c       	mov	r2, r14
    1e8c:	33 24       	eor	r3, r3
    1e8e:	4f 01       	movw	r8, r30
    1e90:	82 18       	sub	r8, r2
    1e92:	93 08       	sbc	r9, r3
    1e94:	8b 2d       	mov	r24, r11
    1e96:	90 e0       	ldi	r25, 0x00	; 0
    1e98:	9a 83       	std	Y+2, r25	; 0x02
    1e9a:	89 83       	std	Y+1, r24	; 0x01
    1e9c:	28 ec       	ldi	r18, 0xC8	; 200
    1e9e:	30 e0       	ldi	r19, 0x00	; 0
    1ea0:	82 9e       	mul	r8, r18
    1ea2:	c0 01       	movw	r24, r0
    1ea4:	83 9e       	mul	r8, r19
    1ea6:	90 0d       	add	r25, r0
    1ea8:	92 9e       	mul	r9, r18
    1eaa:	90 0d       	add	r25, r0
    1eac:	11 24       	eor	r1, r1
    1eae:	69 81       	ldd	r22, Y+1	; 0x01
    1eb0:	7a 81       	ldd	r23, Y+2	; 0x02
    1eb2:	0e 94 b3 25 	call	0x4b66	; 0x4b66 <__divmodhi4>
    1eb6:	3b 01       	movw	r6, r22
			yAlt = x1;
    1eb8:	4e 2d       	mov	r20, r14
			
			for(i=0; i<=length; i++) {
    1eba:	10 e0       	ldi	r17, 0x00	; 0
				y = ((m*i)/200)+x1;
    1ebc:	0f 2e       	mov	r0, r31
    1ebe:	f8 ec       	ldi	r31, 0xC8	; 200
    1ec0:	4f 2e       	mov	r4, r31
    1ec2:	55 24       	eor	r5, r5
    1ec4:	f0 2d       	mov	r31, r0
					y--;
				
				displayDrawLine(yAlt, y1+i, y, y1+i, color);
				if(length <= (x2-x1) && x1 < x2)
					yAlt = y+1;
				else if(length <= (x1-x2) && x1 > x2)
    1ec6:	2e 1a       	sub	r2, r30
    1ec8:	3f 0a       	sbc	r3, r31
			length = y2-y1;
			m = ((x2-x1)*200)/length;
			yAlt = x1;
			
			for(i=0; i<=length; i++) {
				y = ((m*i)/200)+x1;
    1eca:	21 2f       	mov	r18, r17
    1ecc:	30 e0       	ldi	r19, 0x00	; 0
    1ece:	26 9d       	mul	r18, r6
    1ed0:	c0 01       	movw	r24, r0
    1ed2:	27 9d       	mul	r18, r7
    1ed4:	90 0d       	add	r25, r0
    1ed6:	36 9d       	mul	r19, r6
    1ed8:	90 0d       	add	r25, r0
    1eda:	11 24       	eor	r1, r1
    1edc:	b2 01       	movw	r22, r4
    1ede:	0e 94 b3 25 	call	0x4b66	; 0x4b66 <__divmodhi4>
    1ee2:	fe 2c       	mov	r15, r14
    1ee4:	f6 0e       	add	r15, r22
				
				if((m*i)%200 >= 100)
    1ee6:	28 2f       	mov	r18, r24
    1ee8:	39 2f       	mov	r19, r25
    1eea:	24 36       	cpi	r18, 0x64	; 100
    1eec:	31 05       	cpc	r19, r1
    1eee:	14 f0       	brlt	.+4      	; 0x1ef4 <displayDrawLine+0x1ee>
					y++;
    1ef0:	f3 94       	inc	r15
    1ef2:	05 c0       	rjmp	.+10     	; 0x1efe <displayDrawLine+0x1f8>
				else if((m*i)%200 <= -100)
    1ef4:	9f ef       	ldi	r25, 0xFF	; 255
    1ef6:	2d 39       	cpi	r18, 0x9D	; 157
    1ef8:	39 07       	cpc	r19, r25
    1efa:	0c f4       	brge	.+2      	; 0x1efe <displayDrawLine+0x1f8>
					y--;
    1efc:	fa 94       	dec	r15
    1efe:	21 2f       	mov	r18, r17
    1f00:	2d 0d       	add	r18, r13
				
				displayDrawLine(yAlt, y1+i, y, y1+i, color);
    1f02:	84 2f       	mov	r24, r20
    1f04:	62 2f       	mov	r22, r18
    1f06:	4f 2d       	mov	r20, r15
    1f08:	0c 2d       	mov	r16, r12
    1f0a:	0e 94 83 0e 	call	0x1d06	; 0x1d06 <displayDrawLine>
				if(length <= (x2-x1) && x1 < x2)
    1f0e:	a9 81       	ldd	r26, Y+1	; 0x01
    1f10:	ba 81       	ldd	r27, Y+2	; 0x02
    1f12:	8a 16       	cp	r8, r26
    1f14:	9b 06       	cpc	r9, r27
    1f16:	2c f0       	brlt	.+10     	; 0x1f22 <displayDrawLine+0x21c>
    1f18:	ea 14       	cp	r14, r10
    1f1a:	18 f4       	brcc	.+6      	; 0x1f22 <displayDrawLine+0x21c>
					yAlt = y+1;
    1f1c:	4f 2d       	mov	r20, r15
    1f1e:	4f 5f       	subi	r20, 0xFF	; 255
    1f20:	0d c0       	rjmp	.+26     	; 0x1f3c <displayDrawLine+0x236>
				else if(length <= (x1-x2) && x1 > x2)
    1f22:	e9 81       	ldd	r30, Y+1	; 0x01
    1f24:	fa 81       	ldd	r31, Y+2	; 0x02
    1f26:	2e 16       	cp	r2, r30
    1f28:	3f 06       	cpc	r3, r31
    1f2a:	2c f0       	brlt	.+10     	; 0x1f36 <displayDrawLine+0x230>
    1f2c:	ae 14       	cp	r10, r14
    1f2e:	28 f4       	brcc	.+10     	; 0x1f3a <displayDrawLine+0x234>
					yAlt = y-1;
    1f30:	4f 2d       	mov	r20, r15
    1f32:	41 50       	subi	r20, 0x01	; 1
    1f34:	03 c0       	rjmp	.+6      	; 0x1f3c <displayDrawLine+0x236>
				else
					yAlt = y;
    1f36:	4f 2d       	mov	r20, r15
    1f38:	01 c0       	rjmp	.+2      	; 0x1f3c <displayDrawLine+0x236>
    1f3a:	4f 2d       	mov	r20, r15
			
			length = y2-y1;
			m = ((x2-x1)*200)/length;
			yAlt = x1;
			
			for(i=0; i<=length; i++) {
    1f3c:	1f 5f       	subi	r17, 0xFF	; 255
    1f3e:	b1 16       	cp	r11, r17
    1f40:	20 f6       	brcc	.-120    	; 0x1eca <displayDrawLine+0x1c4>
				else
					yAlt = y;
			}
		}
	}
}
    1f42:	0f 90       	pop	r0
    1f44:	0f 90       	pop	r0
    1f46:	0f 90       	pop	r0
    1f48:	0f 90       	pop	r0
    1f4a:	cf 91       	pop	r28
    1f4c:	df 91       	pop	r29
    1f4e:	1f 91       	pop	r17
    1f50:	0f 91       	pop	r16
    1f52:	ff 90       	pop	r15
    1f54:	ef 90       	pop	r14
    1f56:	df 90       	pop	r13
    1f58:	cf 90       	pop	r12
    1f5a:	bf 90       	pop	r11
    1f5c:	af 90       	pop	r10
    1f5e:	9f 90       	pop	r9
    1f60:	8f 90       	pop	r8
    1f62:	7f 90       	pop	r7
    1f64:	6f 90       	pop	r6
    1f66:	5f 90       	pop	r5
    1f68:	4f 90       	pop	r4
    1f6a:	3f 90       	pop	r3
    1f6c:	2f 90       	pop	r2
    1f6e:	08 95       	ret

00001f70 <displayInit>:
uint8_t				displayInverted=0;
displayFontCallback	displayFontRead;
uint8_t				displayFontColor;
const uint8_t*		displayFont;

void displayInit(const uint8_t invert) {
    1f70:	0f 93       	push	r16
	LCD_AAN();
    1f72:	42 9a       	sbi	0x08, 2	; 8
	displayCoord.x = 0;
    1f74:	10 92 af 01 	sts	0x01AF, r1
	displayCoord.y = 0;
    1f78:	10 92 b0 01 	sts	0x01B0, r1
	displayCoord.page = 0;
    1f7c:	10 92 b1 01 	sts	0x01B1, r1
	
	displayInverted = invert;
    1f80:	80 93 aa 01 	sts	0x01AA, r24
	
	LCD_CMD_DIR = 0xFF;								// command port is output
    1f84:	8f ef       	ldi	r24, 0xFF	; 255
    1f86:	8a b9       	out	0x0a, r24	; 10
	displayWriteCommand(LCD_ON, CHIP1);				// power on
    1f88:	8f e3       	ldi	r24, 0x3F	; 63
    1f8a:	60 e0       	ldi	r22, 0x00	; 0
    1f8c:	0e 94 1c 09 	call	0x1238	; 0x1238 <displayWriteCommand>
	displayWriteCommand(LCD_ON, CHIP2);
    1f90:	8f e3       	ldi	r24, 0x3F	; 63
    1f92:	61 e0       	ldi	r22, 0x01	; 1
    1f94:	0e 94 1c 09 	call	0x1238	; 0x1238 <displayWriteCommand>
	
	displayWriteCommand(LCD_DISP_START, CHIP1);		// display start line = 0
    1f98:	80 ec       	ldi	r24, 0xC0	; 192
    1f9a:	60 e0       	ldi	r22, 0x00	; 0
    1f9c:	0e 94 1c 09 	call	0x1238	; 0x1238 <displayWriteCommand>
	displayWriteCommand(LCD_DISP_START, CHIP2);
    1fa0:	80 ec       	ldi	r24, 0xC0	; 192
    1fa2:	61 e0       	ldi	r22, 0x01	; 1
    1fa4:	0e 94 1c 09 	call	0x1238	; 0x1238 <displayWriteCommand>
	displayClearScreen();							// display clear
    1fa8:	80 e0       	ldi	r24, 0x00	; 0
    1faa:	60 e0       	ldi	r22, 0x00	; 0
    1fac:	4f e7       	ldi	r20, 0x7F	; 127
    1fae:	2f e3       	ldi	r18, 0x3F	; 63
    1fb0:	00 e0       	ldi	r16, 0x00	; 0
    1fb2:	0e 94 f3 0c 	call	0x19e6	; 0x19e6 <displayFillRect>
	displayGotoXY(0,0);
    1fb6:	80 e0       	ldi	r24, 0x00	; 0
    1fb8:	60 e0       	ldi	r22, 0x00	; 0
    1fba:	0e 94 4d 09 	call	0x129a	; 0x129a <displayGotoXY>
}
    1fbe:	0f 91       	pop	r16
    1fc0:	08 95       	ret

00001fc2 <init_ds1307>:
char sdigit[3]={'0','0','\0'};
char hour_mode, ampm_mode;

void init_ds1307(void){
	// Initial TWI/I2C Peripheral
	TWSR = 0x00;   // Select Prescaler of 1
    1fc2:	10 92 b9 00 	sts	0x00B9, r1
	// SCL frequency = 11059200 / (16 + 2 * 48 * 1) = 98.743 khz
	TWBR = 0x30;   // 48 Decimal
    1fc6:	80 e3       	ldi	r24, 0x30	; 48
    1fc8:	80 93 b8 00 	sts	0x00B8, r24
	
	DDRC |= _BV(PC7) | _BV(PC6);
    1fcc:	87 b1       	in	r24, 0x07	; 7
    1fce:	80 6c       	ori	r24, 0xC0	; 192
    1fd0:	87 b9       	out	0x07, r24	; 7
	PORTC &= ~(_BV(PC7) | _BV(PC6));
    1fd2:	88 b1       	in	r24, 0x08	; 8
    1fd4:	8f 73       	andi	r24, 0x3F	; 63
    1fd6:	88 b9       	out	0x08, r24	; 8
}
    1fd8:	08 95       	ret

00001fda <maxDays>:

uint8_t maxDays(const structDate *toRead){
	uint8_t month = toRead->month;
    1fda:	fc 01       	movw	r30, r24
    1fdc:	82 81       	ldd	r24, Z+2	; 0x02
	if(month == 2){
    1fde:	82 30       	cpi	r24, 0x02	; 2
    1fe0:	51 f0       	breq	.+20     	; 0x1ff6 <maxDays+0x1c>
		return 28;
	}else if(month <= 7 && (month % 2)){
    1fe2:	88 30       	cpi	r24, 0x08	; 8
    1fe4:	20 f4       	brcc	.+8      	; 0x1fee <maxDays+0x14>
    1fe6:	80 fd       	sbrc	r24, 0
    1fe8:	08 c0       	rjmp	.+16     	; 0x1ffa <maxDays+0x20>
		return 31;
	}else if(month >= 8 && ((month % 2) == 0)){
		return 31;
	}else{
		return 30;			
    1fea:	8e e1       	ldi	r24, 0x1E	; 30
    1fec:	08 95       	ret
	uint8_t month = toRead->month;
	if(month == 2){
		return 28;
	}else if(month <= 7 && (month % 2)){
		return 31;
	}else if(month >= 8 && ((month % 2) == 0)){
    1fee:	80 ff       	sbrs	r24, 0
    1ff0:	06 c0       	rjmp	.+12     	; 0x1ffe <maxDays+0x24>
		return 31;
	}else{
		return 30;			
    1ff2:	8e e1       	ldi	r24, 0x1E	; 30
    1ff4:	08 95       	ret
}

uint8_t maxDays(const structDate *toRead){
	uint8_t month = toRead->month;
	if(month == 2){
		return 28;
    1ff6:	8c e1       	ldi	r24, 0x1C	; 28
    1ff8:	08 95       	ret
	}else if(month <= 7 && (month % 2)){
		return 31;
    1ffa:	8f e1       	ldi	r24, 0x1F	; 31
    1ffc:	08 95       	ret
	}else if(month >= 8 && ((month % 2) == 0)){
		return 31;
    1ffe:	8f e1       	ldi	r24, 0x1F	; 31
	}else{
		return 30;			
	}
}
    2000:	08 95       	ret

00002002 <getDayOfWeek>:

void getDayOfWeek(structDate *toRead){
    2002:	cf 93       	push	r28
    2004:	df 93       	push	r29
    2006:	fc 01       	movw	r30, r24
	uint8_t month = toRead->month;
    2008:	22 81       	ldd	r18, Z+2	; 0x02
	uint8_t year = toRead->year;
    200a:	43 81       	ldd	r20, Z+3	; 0x03
	uint8_t day = toRead->date;
    200c:	51 81       	ldd	r21, Z+1	; 0x01
	if (month < 3){
    200e:	23 30       	cpi	r18, 0x03	; 3
    2010:	10 f4       	brcc	.+4      	; 0x2016 <getDayOfWeek+0x14>
		month = month + 12;
    2012:	24 5f       	subi	r18, 0xF4	; 244
		year = year - 1;
    2014:	41 50       	subi	r20, 0x01	; 1
	}
	toRead->day = (
		day
		+ (2 * month)
    2016:	30 e0       	ldi	r19, 0x00	; 0
		+ (int) (6 * (month + 1) / 10)
		+ year
    2018:	84 2f       	mov	r24, r20
    201a:	90 e0       	ldi	r25, 0x00	; 0
		month = month + 12;
		year = year - 1;
	}
	toRead->day = (
		day
		+ (2 * month)
    201c:	c5 2f       	mov	r28, r21
    201e:	d0 e0       	ldi	r29, 0x00	; 0
    2020:	21 96       	adiw	r28, 0x01	; 1
		+ (int) (6 * (month + 1) / 10)
    2022:	c8 0f       	add	r28, r24
    2024:	d9 1f       	adc	r29, r25
		month = month + 12;
		year = year - 1;
	}
	toRead->day = (
		day
		+ (2 * month)
    2026:	b9 01       	movw	r22, r18
    2028:	66 0f       	add	r22, r22
    202a:	77 1f       	adc	r23, r23
		+ (int) (6 * (month + 1) / 10)
		+ year
    202c:	c6 0f       	add	r28, r22
    202e:	d7 1f       	adc	r29, r23
		+ (int) (year / 4)
    2030:	54 2f       	mov	r21, r20
    2032:	56 95       	lsr	r21
    2034:	56 95       	lsr	r21
    2036:	c5 0f       	add	r28, r21
    2038:	d1 1d       	adc	r29, r1
		- (int) (year / 100)
		+ (int) (year / 400)
    203a:	60 e9       	ldi	r22, 0x90	; 144
    203c:	71 e0       	ldi	r23, 0x01	; 1
    203e:	0e 94 b3 25 	call	0x4b66	; 0x4b66 <__divmodhi4>
		day
		+ (2 * month)
		+ (int) (6 * (month + 1) / 10)
		+ year
		+ (int) (year / 4)
		- (int) (year / 100)
    2042:	c6 0f       	add	r28, r22
    2044:	d7 1f       	adc	r29, r23
    2046:	84 2f       	mov	r24, r20
    2048:	64 e6       	ldi	r22, 0x64	; 100
    204a:	0e 94 93 25 	call	0x4b26	; 0x4b26 <__udivmodqi4>
		+ (int) (year / 400)
    204e:	c8 1b       	sub	r28, r24
    2050:	d1 09       	sbc	r29, r1
		year = year - 1;
	}
	toRead->day = (
		day
		+ (2 * month)
		+ (int) (6 * (month + 1) / 10)
    2052:	2f 5f       	subi	r18, 0xFF	; 255
    2054:	3f 4f       	sbci	r19, 0xFF	; 255
    2056:	c9 01       	movw	r24, r18
    2058:	88 0f       	add	r24, r24
    205a:	99 1f       	adc	r25, r25
    205c:	28 0f       	add	r18, r24
    205e:	39 1f       	adc	r19, r25
    2060:	c9 01       	movw	r24, r18
    2062:	88 0f       	add	r24, r24
    2064:	99 1f       	adc	r25, r25
    2066:	6a e0       	ldi	r22, 0x0A	; 10
    2068:	70 e0       	ldi	r23, 0x00	; 0
    206a:	0e 94 b3 25 	call	0x4b66	; 0x4b66 <__divmodhi4>
		+ year
		+ (int) (year / 4)
		- (int) (year / 100)
		+ (int) (year / 400)
		+ 1
    206e:	ce 01       	movw	r24, r28
    2070:	86 0f       	add	r24, r22
    2072:	97 1f       	adc	r25, r23
	) % 7;
    2074:	67 e0       	ldi	r22, 0x07	; 7
    2076:	70 e0       	ldi	r23, 0x00	; 0
    2078:	0e 94 b3 25 	call	0x4b66	; 0x4b66 <__divmodhi4>
	uint8_t day = toRead->date;
	if (month < 3){
		month = month + 12;
		year = year - 1;
	}
	toRead->day = (
    207c:	80 83       	st	Z, r24
		+ (int) (year / 4)
		- (int) (year / 100)
		+ (int) (year / 400)
		+ 1
	) % 7;
}
    207e:	df 91       	pop	r29
    2080:	cf 91       	pop	r28
    2082:	08 95       	ret

00002084 <i2c_transmit>:


/* START I2C Routine */
unsigned char i2c_transmit(const unsigned char type) {
	switch(type) {
    2084:	81 30       	cpi	r24, 0x01	; 1
    2086:	59 f0       	breq	.+22     	; 0x209e <i2c_transmit+0x1a>
    2088:	81 30       	cpi	r24, 0x01	; 1
    208a:	28 f0       	brcs	.+10     	; 0x2096 <i2c_transmit+0x12>
    208c:	82 30       	cpi	r24, 0x02	; 2
    208e:	59 f0       	breq	.+22     	; 0x20a6 <i2c_transmit+0x22>
    2090:	83 30       	cpi	r24, 0x03	; 3
    2092:	91 f4       	brne	.+36     	; 0x20b8 <i2c_transmit+0x34>
    2094:	0c c0       	rjmp	.+24     	; 0x20ae <i2c_transmit+0x2a>
		case I2C_START:    // Send Start Condition
			TWCR = (1 << TWINT) | (1 << TWSTA) | (1 << TWEN);
    2096:	84 ea       	ldi	r24, 0xA4	; 164
    2098:	80 93 bc 00 	sts	0x00BC, r24
			break;
    209c:	0d c0       	rjmp	.+26     	; 0x20b8 <i2c_transmit+0x34>
		case I2C_DATA:     // Send Data with No-Acknowledge
			TWCR = (1 << TWINT) | (1 << TWEN);
    209e:	84 e8       	ldi	r24, 0x84	; 132
    20a0:	80 93 bc 00 	sts	0x00BC, r24
			break;
    20a4:	09 c0       	rjmp	.+18     	; 0x20b8 <i2c_transmit+0x34>
		case I2C_DATA_ACK: // Send Data with Acknowledge
			TWCR = (1 << TWEA) | (1 << TWINT) | (1 << TWEN);
    20a6:	84 ec       	ldi	r24, 0xC4	; 196
    20a8:	80 93 bc 00 	sts	0x00BC, r24
    20ac:	05 c0       	rjmp	.+10     	; 0x20b8 <i2c_transmit+0x34>
			break;
		case I2C_STOP:     // Send Stop Condition
			TWCR = (1 << TWINT) | (1 << TWEN) | (1 << TWSTO);
    20ae:	84 e9       	ldi	r24, 0x94	; 148
    20b0:	80 93 bc 00 	sts	0x00BC, r24
			return 0;
    20b4:	80 e0       	ldi	r24, 0x00	; 0
    20b6:	08 95       	ret
	}

	// Wait for TWINT flag set on Register TWCR
	while (!(TWCR & (1 << TWINT)));
    20b8:	ec eb       	ldi	r30, 0xBC	; 188
    20ba:	f0 e0       	ldi	r31, 0x00	; 0
    20bc:	80 81       	ld	r24, Z
    20be:	88 23       	and	r24, r24
    20c0:	ec f7       	brge	.-6      	; 0x20bc <i2c_transmit+0x38>

	// Return TWI Status Register, mask the prescaller bits (TWPS1,TWPS0)
	return (TWSR & 0xF8);
    20c2:	80 91 b9 00 	lds	r24, 0x00B9
    20c6:	88 7f       	andi	r24, 0xF8	; 248
	}
    20c8:	08 95       	ret

000020ca <i2c_start>:

char i2c_start(const unsigned int dev_id, const unsigned int dev_addr, const unsigned char rw_type){
    20ca:	0f 93       	push	r16
    20cc:	1f 93       	push	r17
    20ce:	cf 93       	push	r28
    20d0:	df 93       	push	r29
    20d2:	12 e3       	ldi	r17, 0x32	; 50
	// Check the TWI Status
	if (twi_status == TW_MT_ARB_LOST) goto i2c_retry;
	if ((twi_status != TW_START) && (twi_status != TW_REP_START)) goto i2c_quit;

	// Send slave address (SLA_W)
	TWDR = (dev_id & 0xF0) | (dev_addr & 0x07) | rw_type;
    20d4:	08 2f       	mov	r16, r24
    20d6:	00 7f       	andi	r16, 0xF0	; 240
    20d8:	04 2b       	or	r16, r20
    20da:	67 70       	andi	r22, 0x07	; 7
    20dc:	06 2b       	or	r16, r22
    20de:	cb eb       	ldi	r28, 0xBB	; 187
    20e0:	d0 e0       	ldi	r29, 0x00	; 0
    20e2:	02 c0       	rjmp	.+4      	; 0x20e8 <i2c_start+0x1e>

	// Check the TWSR status
	if ((twi_status == TW_MT_SLA_NACK) || (twi_status == TW_MT_ARB_LOST)) goto i2c_retry;
	if (twi_status != TW_MT_SLA_ACK) goto i2c_quit;

	r_val=0;
    20e4:	11 50       	subi	r17, 0x01	; 1
	unsigned char n = 0;
	unsigned char twi_status;
	char r_val = -1;

	i2c_retry:
	if (n++ >= MAX_TRIES) return r_val;
    20e6:	a9 f0       	breq	.+42     	; 0x2112 <i2c_start+0x48>

	// Transmit Start Condition
	twi_status=i2c_transmit(I2C_START);
    20e8:	80 e0       	ldi	r24, 0x00	; 0
    20ea:	0e 94 42 10 	call	0x2084	; 0x2084 <i2c_transmit>

	// Check the TWI Status
	if (twi_status == TW_MT_ARB_LOST) goto i2c_retry;
    20ee:	88 33       	cpi	r24, 0x38	; 56
    20f0:	c9 f3       	breq	.-14     	; 0x20e4 <i2c_start+0x1a>
	if ((twi_status != TW_START) && (twi_status != TW_REP_START)) goto i2c_quit;
    20f2:	88 30       	cpi	r24, 0x08	; 8
    20f4:	11 f0       	breq	.+4      	; 0x20fa <i2c_start+0x30>
    20f6:	80 31       	cpi	r24, 0x10	; 16
    20f8:	71 f4       	brne	.+28     	; 0x2116 <i2c_start+0x4c>

	// Send slave address (SLA_W)
	TWDR = (dev_id & 0xF0) | (dev_addr & 0x07) | rw_type;
    20fa:	08 83       	st	Y, r16

	// Transmit I2C Data
	twi_status=i2c_transmit(I2C_DATA);
    20fc:	81 e0       	ldi	r24, 0x01	; 1
    20fe:	0e 94 42 10 	call	0x2084	; 0x2084 <i2c_transmit>

	// Check the TWSR status
	if ((twi_status == TW_MT_SLA_NACK) || (twi_status == TW_MT_ARB_LOST)) goto i2c_retry;
    2102:	80 32       	cpi	r24, 0x20	; 32
    2104:	79 f3       	breq	.-34     	; 0x20e4 <i2c_start+0x1a>
    2106:	88 33       	cpi	r24, 0x38	; 56
    2108:	69 f3       	breq	.-38     	; 0x20e4 <i2c_start+0x1a>
	if (twi_status != TW_MT_SLA_ACK) goto i2c_quit;
    210a:	88 31       	cpi	r24, 0x18	; 24
    210c:	31 f0       	breq	.+12     	; 0x211a <i2c_start+0x50>
	}

char i2c_start(const unsigned int dev_id, const unsigned int dev_addr, const unsigned char rw_type){
	unsigned char n = 0;
	unsigned char twi_status;
	char r_val = -1;
    210e:	8f ef       	ldi	r24, 0xFF	; 255
    2110:	05 c0       	rjmp	.+10     	; 0x211c <i2c_start+0x52>

	i2c_retry:
	if (n++ >= MAX_TRIES) return r_val;
    2112:	8f ef       	ldi	r24, 0xFF	; 255
    2114:	03 c0       	rjmp	.+6      	; 0x211c <i2c_start+0x52>
	}

char i2c_start(const unsigned int dev_id, const unsigned int dev_addr, const unsigned char rw_type){
	unsigned char n = 0;
	unsigned char twi_status;
	char r_val = -1;
    2116:	8f ef       	ldi	r24, 0xFF	; 255
    2118:	01 c0       	rjmp	.+2      	; 0x211c <i2c_start+0x52>

	// Check the TWSR status
	if ((twi_status == TW_MT_SLA_NACK) || (twi_status == TW_MT_ARB_LOST)) goto i2c_retry;
	if (twi_status != TW_MT_SLA_ACK) goto i2c_quit;

	r_val=0;
    211a:	80 e0       	ldi	r24, 0x00	; 0

	i2c_quit:
	return r_val;
}
    211c:	df 91       	pop	r29
    211e:	cf 91       	pop	r28
    2120:	1f 91       	pop	r17
    2122:	0f 91       	pop	r16
    2124:	08 95       	ret

00002126 <i2c_stop>:

void i2c_stop(void){
	unsigned char twi_status;

	// Transmit I2C Data
	twi_status=i2c_transmit(I2C_STOP);
    2126:	83 e0       	ldi	r24, 0x03	; 3
    2128:	0e 94 42 10 	call	0x2084	; 0x2084 <i2c_transmit>
}
    212c:	08 95       	ret

0000212e <i2c_write>:
char i2c_write(const char data){
	unsigned char twi_status;
	char r_val = -1;

	// Send the Data to I2C Bus
	TWDR = data;
    212e:	80 93 bb 00 	sts	0x00BB, r24

	// Transmit I2C Data
	twi_status=i2c_transmit(I2C_DATA);
    2132:	81 e0       	ldi	r24, 0x01	; 1
    2134:	0e 94 42 10 	call	0x2084	; 0x2084 <i2c_transmit>

	// Check the TWSR status
	if (twi_status != TW_MT_DATA_ACK) goto i2c_quit;
    2138:	88 32       	cpi	r24, 0x28	; 40
    213a:	11 f0       	breq	.+4      	; 0x2140 <i2c_write+0x12>
	twi_status=i2c_transmit(I2C_STOP);
}

char i2c_write(const char data){
	unsigned char twi_status;
	char r_val = -1;
    213c:	8f ef       	ldi	r24, 0xFF	; 255
    213e:	08 95       	ret
	twi_status=i2c_transmit(I2C_DATA);

	// Check the TWSR status
	if (twi_status != TW_MT_DATA_ACK) goto i2c_quit;

	r_val=0;
    2140:	80 e0       	ldi	r24, 0x00	; 0

	i2c_quit:
	return r_val;
}
    2142:	08 95       	ret

00002144 <i2c_read>:

char i2c_read(char *data, const char ack_type){
    2144:	1f 93       	push	r17
    2146:	cf 93       	push	r28
    2148:	df 93       	push	r29
    214a:	ec 01       	movw	r28, r24
    214c:	16 2f       	mov	r17, r22
	unsigned char twi_status;
	char r_val = -1;               

	printf("i2c_read\r\n");
    214e:	80 e0       	ldi	r24, 0x00	; 0
    2150:	91 e0       	ldi	r25, 0x01	; 1
    2152:	0e 94 db 25 	call	0x4bb6	; 0x4bb6 <puts>
	if (ack_type) {
    2156:	11 23       	and	r17, r17
    2158:	01 f1       	breq	.+64     	; 0x219a <i2c_read+0x56>
	// Read I2C Data and Send Acknowledge
		printf("acking\r\n");
    215a:	8a e0       	ldi	r24, 0x0A	; 10
    215c:	91 e0       	ldi	r25, 0x01	; 1
    215e:	0e 94 db 25 	call	0x4bb6	; 0x4bb6 <puts>
		twi_status=i2c_transmit(I2C_DATA_ACK);
    2162:	82 e0       	ldi	r24, 0x02	; 2
    2164:	0e 94 42 10 	call	0x2084	; 0x2084 <i2c_transmit>
    2168:	18 2f       	mov	r17, r24
		
		printf("I2c status: %i\r\n",twi_status);
    216a:	00 d0       	rcall	.+0      	; 0x216c <i2c_read+0x28>
    216c:	00 d0       	rcall	.+0      	; 0x216e <i2c_read+0x2a>
    216e:	ed b7       	in	r30, 0x3d	; 61
    2170:	fe b7       	in	r31, 0x3e	; 62
    2172:	31 96       	adiw	r30, 0x01	; 1
    2174:	82 e1       	ldi	r24, 0x12	; 18
    2176:	91 e0       	ldi	r25, 0x01	; 1
    2178:	ad b7       	in	r26, 0x3d	; 61
    217a:	be b7       	in	r27, 0x3e	; 62
    217c:	12 96       	adiw	r26, 0x02	; 2
    217e:	9c 93       	st	X, r25
    2180:	8e 93       	st	-X, r24
    2182:	11 97       	sbiw	r26, 0x01	; 1
    2184:	12 83       	std	Z+2, r17	; 0x02
    2186:	13 82       	std	Z+3, r1	; 0x03
    2188:	0e 94 c6 25 	call	0x4b8c	; 0x4b8c <printf>
		if (twi_status != TW_MR_DATA_ACK) goto i2c_quit;
    218c:	0f 90       	pop	r0
    218e:	0f 90       	pop	r0
    2190:	0f 90       	pop	r0
    2192:	0f 90       	pop	r0
    2194:	10 35       	cpi	r17, 0x50	; 80
    2196:	59 f4       	brne	.+22     	; 0x21ae <i2c_read+0x6a>
    2198:	05 c0       	rjmp	.+10     	; 0x21a4 <i2c_read+0x60>
	} else {
	// Read I2C Data and Send No Acknowledge
		twi_status=i2c_transmit(I2C_DATA);
    219a:	81 e0       	ldi	r24, 0x01	; 1
    219c:	0e 94 42 10 	call	0x2084	; 0x2084 <i2c_transmit>

		if (twi_status != TW_MR_DATA_NACK) goto i2c_quit;
    21a0:	88 35       	cpi	r24, 0x58	; 88
    21a2:	39 f4       	brne	.+14     	; 0x21b2 <i2c_read+0x6e>
	}

	// Get the Data
	*data=TWDR;
    21a4:	80 91 bb 00 	lds	r24, 0x00BB
    21a8:	88 83       	st	Y, r24
	r_val=0;
    21aa:	80 e0       	ldi	r24, 0x00	; 0
    21ac:	03 c0       	rjmp	.+6      	; 0x21b4 <i2c_read+0x70>
	return r_val;
}

char i2c_read(char *data, const char ack_type){
	unsigned char twi_status;
	char r_val = -1;               
    21ae:	8f ef       	ldi	r24, 0xFF	; 255
    21b0:	01 c0       	rjmp	.+2      	; 0x21b4 <i2c_read+0x70>
    21b2:	8f ef       	ldi	r24, 0xFF	; 255
	*data=TWDR;
	r_val=0;

	i2c_quit:
	return r_val;
}
    21b4:	df 91       	pop	r29
    21b6:	cf 91       	pop	r28
    21b8:	1f 91       	pop	r17
    21ba:	08 95       	ret

000021bc <dec2bcd>:

// Convert Decimal to Binary Coded Decimal (BCD)
char dec2bcd(const char num){
	return ((num/10 * 16) + (num % 10));
    21bc:	6a e0       	ldi	r22, 0x0A	; 10
    21be:	0e 94 93 25 	call	0x4b26	; 0x4b26 <__udivmodqi4>
    21c2:	82 95       	swap	r24
    21c4:	80 7f       	andi	r24, 0xF0	; 240
}
    21c6:	89 0f       	add	r24, r25
    21c8:	08 95       	ret

000021ca <bcd2dec>:

// Convert Binary Coded Decimal (BCD) to Decimal
char bcd2dec(const char num){
	return ((num/16 * 10) + (num % 16));
    21ca:	98 2f       	mov	r25, r24
    21cc:	92 95       	swap	r25
    21ce:	9f 70       	andi	r25, 0x0F	; 15
    21d0:	99 0f       	add	r25, r25
    21d2:	29 2f       	mov	r18, r25
    21d4:	22 0f       	add	r18, r18
    21d6:	22 0f       	add	r18, r18
    21d8:	92 0f       	add	r25, r18
    21da:	8f 70       	andi	r24, 0x0F	; 15
}
    21dc:	89 0f       	add	r24, r25
    21de:	08 95       	ret

000021e0 <Read_DS1307>:

void Read_DS1307(dateTime *toRead){
    21e0:	df 92       	push	r13
    21e2:	ef 92       	push	r14
    21e4:	ff 92       	push	r15
    21e6:	0f 93       	push	r16
    21e8:	1f 93       	push	r17
    21ea:	df 93       	push	r29
    21ec:	cf 93       	push	r28
    21ee:	0f 92       	push	r0
    21f0:	cd b7       	in	r28, 0x3d	; 61
    21f2:	de b7       	in	r29, 0x3e	; 62
    21f4:	7c 01       	movw	r14, r24
	char data;
	// First we initial the pointer register to address 0x00
	// Start the I2C Write Transmission
	//printf("Starting iC\r\n");
	i2c_start(DS1307_ID,DS1307_ADDR,TW_WRITE);
    21f6:	80 ed       	ldi	r24, 0xD0	; 208
    21f8:	90 e0       	ldi	r25, 0x00	; 0
    21fa:	60 e0       	ldi	r22, 0x00	; 0
    21fc:	70 e0       	ldi	r23, 0x00	; 0
    21fe:	40 e0       	ldi	r20, 0x00	; 0
    2200:	0e 94 65 10 	call	0x20ca	; 0x20ca <i2c_start>

	// Start from Address 0x00
	//printf("Writing 0 as address\r\n");
	i2c_write(0x00);
    2204:	80 e0       	ldi	r24, 0x00	; 0
    2206:	0e 94 97 10 	call	0x212e	; 0x212e <i2c_write>

	//printf("Stopping the write\r\n");
	// Stop I2C Transmission
	i2c_stop();
    220a:	0e 94 93 10 	call	0x2126	; 0x2126 <i2c_stop>

	// Start the I2C Read Transmission
	//printf("Starting the read\r\n");
	i2c_start(DS1307_ID,DS1307_ADDR,TW_READ);
    220e:	80 ed       	ldi	r24, 0xD0	; 208
    2210:	90 e0       	ldi	r25, 0x00	; 0
    2212:	60 e0       	ldi	r22, 0x00	; 0
    2214:	70 e0       	ldi	r23, 0x00	; 0
    2216:	41 e0       	ldi	r20, 0x01	; 1
    2218:	0e 94 65 10 	call	0x20ca	; 0x20ca <i2c_start>

	// Read the Second Register, Send Master Acknowledge
	//printf("Reading seconds\r\n");
	i2c_read(&data,ACK);
    221c:	8e 01       	movw	r16, r28
    221e:	0f 5f       	subi	r16, 0xFF	; 255
    2220:	1f 4f       	sbci	r17, 0xFF	; 255
    2222:	c8 01       	movw	r24, r16
    2224:	61 e0       	ldi	r22, 0x01	; 1
    2226:	0e 94 a2 10 	call	0x2144	; 0x2144 <i2c_read>
	toRead->time.seconds=bcd2dec(data & 0x7F);
    222a:	d9 80       	ldd	r13, Y+1	; 0x01
    222c:	8d 2d       	mov	r24, r13
    222e:	8f 77       	andi	r24, 0x7F	; 127
    2230:	0e 94 e5 10 	call	0x21ca	; 0x21ca <bcd2dec>
    2234:	d7 01       	movw	r26, r14
    2236:	8c 93       	st	X, r24
	printf("Seconds: %i\r\n",bcd2dec(data * 0x7F));
    2238:	8d 2d       	mov	r24, r13
    223a:	87 95       	ror	r24
    223c:	88 27       	eor	r24, r24
    223e:	87 95       	ror	r24
    2240:	8d 19       	sub	r24, r13
    2242:	0e 94 e5 10 	call	0x21ca	; 0x21ca <bcd2dec>
    2246:	00 d0       	rcall	.+0      	; 0x2248 <Read_DS1307+0x68>
    2248:	00 d0       	rcall	.+0      	; 0x224a <Read_DS1307+0x6a>
    224a:	ed b7       	in	r30, 0x3d	; 61
    224c:	fe b7       	in	r31, 0x3e	; 62
    224e:	31 96       	adiw	r30, 0x01	; 1
    2250:	23 e2       	ldi	r18, 0x23	; 35
    2252:	31 e0       	ldi	r19, 0x01	; 1
    2254:	ad b7       	in	r26, 0x3d	; 61
    2256:	be b7       	in	r27, 0x3e	; 62
    2258:	12 96       	adiw	r26, 0x02	; 2
    225a:	3c 93       	st	X, r19
    225c:	2e 93       	st	-X, r18
    225e:	11 97       	sbiw	r26, 0x01	; 1
    2260:	82 83       	std	Z+2, r24	; 0x02
    2262:	13 82       	std	Z+3, r1	; 0x03
    2264:	0e 94 c6 25 	call	0x4b8c	; 0x4b8c <printf>

	// Read the Minute Register, Send Master Acknowledge
	//printf("Reading minutes\r\n");
	i2c_read(&data,ACK);
    2268:	0f 90       	pop	r0
    226a:	0f 90       	pop	r0
    226c:	0f 90       	pop	r0
    226e:	0f 90       	pop	r0
    2270:	c8 01       	movw	r24, r16
    2272:	61 e0       	ldi	r22, 0x01	; 1
    2274:	0e 94 a2 10 	call	0x2144	; 0x2144 <i2c_read>
	toRead->time.minute = bcd2dec(data);
    2278:	89 81       	ldd	r24, Y+1	; 0x01
    227a:	0e 94 e5 10 	call	0x21ca	; 0x21ca <bcd2dec>
    227e:	f7 01       	movw	r30, r14
    2280:	81 83       	std	Z+1, r24	; 0x01
	printf("Minutes: %i\r\n",bcd2dec(data));
    2282:	00 d0       	rcall	.+0      	; 0x2284 <Read_DS1307+0xa4>
    2284:	00 d0       	rcall	.+0      	; 0x2286 <Read_DS1307+0xa6>
    2286:	ed b7       	in	r30, 0x3d	; 61
    2288:	fe b7       	in	r31, 0x3e	; 62
    228a:	31 96       	adiw	r30, 0x01	; 1
    228c:	21 e3       	ldi	r18, 0x31	; 49
    228e:	31 e0       	ldi	r19, 0x01	; 1
    2290:	ad b7       	in	r26, 0x3d	; 61
    2292:	be b7       	in	r27, 0x3e	; 62
    2294:	12 96       	adiw	r26, 0x02	; 2
    2296:	3c 93       	st	X, r19
    2298:	2e 93       	st	-X, r18
    229a:	11 97       	sbiw	r26, 0x01	; 1
    229c:	82 83       	std	Z+2, r24	; 0x02
    229e:	13 82       	std	Z+3, r1	; 0x03
    22a0:	0e 94 c6 25 	call	0x4b8c	; 0x4b8c <printf>

	// Read the Hour Register, Send Master Acknowledge
	//printf("Reading hours\r\n");
	i2c_read(&data,ACK);
    22a4:	0f 90       	pop	r0
    22a6:	0f 90       	pop	r0
    22a8:	0f 90       	pop	r0
    22aa:	0f 90       	pop	r0
    22ac:	c8 01       	movw	r24, r16
    22ae:	61 e0       	ldi	r22, 0x01	; 1
    22b0:	0e 94 a2 10 	call	0x2144	; 0x2144 <i2c_read>
	if ((data & 0x40) == 0x40) {
    22b4:	89 81       	ldd	r24, Y+1	; 0x01
    22b6:	28 2f       	mov	r18, r24
    22b8:	30 e0       	ldi	r19, 0x00	; 0
    22ba:	86 ff       	sbrs	r24, 6
    22bc:	17 c0       	rjmp	.+46     	; 0x22ec <Read_DS1307+0x10c>
		hour_mode = HOUR_12;
    22be:	91 e0       	ldi	r25, 0x01	; 1
    22c0:	90 93 b3 01 	sts	0x01B3, r25
		ampm_mode=(data & 0x20) >> 5;   // ampm_mode: 0-AM, 1-PM
    22c4:	20 72       	andi	r18, 0x20	; 32
    22c6:	30 70       	andi	r19, 0x00	; 0
    22c8:	35 95       	asr	r19
    22ca:	27 95       	ror	r18
    22cc:	35 95       	asr	r19
    22ce:	27 95       	ror	r18
    22d0:	35 95       	asr	r19
    22d2:	27 95       	ror	r18
    22d4:	35 95       	asr	r19
    22d6:	27 95       	ror	r18
    22d8:	35 95       	asr	r19
    22da:	27 95       	ror	r18
    22dc:	20 93 b4 01 	sts	0x01B4, r18
		toRead->time.hours = bcd2dec(data & 0x1F);
    22e0:	8f 71       	andi	r24, 0x1F	; 31
    22e2:	0e 94 e5 10 	call	0x21ca	; 0x21ca <bcd2dec>
    22e6:	f7 01       	movw	r30, r14
    22e8:	82 83       	std	Z+2, r24	; 0x02
    22ea:	0a c0       	rjmp	.+20     	; 0x2300 <Read_DS1307+0x120>
	} else {
		hour_mode = HOUR_24;
    22ec:	10 92 b3 01 	sts	0x01B3, r1
		ampm_mode=0;
    22f0:	10 92 b4 01 	sts	0x01B4, r1
		toRead->time.hours = bcd2dec(data & 0x3F);
    22f4:	8f 73       	andi	r24, 0x3F	; 63
    22f6:	0e 94 e5 10 	call	0x21ca	; 0x21ca <bcd2dec>
    22fa:	d7 01       	movw	r26, r14
    22fc:	12 96       	adiw	r26, 0x02	; 2
    22fe:	8c 93       	st	X, r24
	}

	// Read the Day of Week Register, Send Master Acknowledge
	//printf("Reading Day of week\r\n");
	i2c_read(&data,ACK);
    2300:	8e 01       	movw	r16, r28
    2302:	0f 5f       	subi	r16, 0xFF	; 255
    2304:	1f 4f       	sbci	r17, 0xFF	; 255
    2306:	c8 01       	movw	r24, r16
    2308:	61 e0       	ldi	r22, 0x01	; 1
    230a:	0e 94 a2 10 	call	0x2144	; 0x2144 <i2c_read>
	toRead->date.day = bcd2dec(data);
    230e:	89 81       	ldd	r24, Y+1	; 0x01
    2310:	0e 94 e5 10 	call	0x21ca	; 0x21ca <bcd2dec>
    2314:	f7 01       	movw	r30, r14
    2316:	83 83       	std	Z+3, r24	; 0x03

	// Read the Day of Month Register, Send Master Acknowledge
	i2c_read(&data,ACK);
    2318:	c8 01       	movw	r24, r16
    231a:	61 e0       	ldi	r22, 0x01	; 1
    231c:	0e 94 a2 10 	call	0x2144	; 0x2144 <i2c_read>
	toRead->date.date = bcd2dec(data);
    2320:	89 81       	ldd	r24, Y+1	; 0x01
    2322:	0e 94 e5 10 	call	0x21ca	; 0x21ca <bcd2dec>
    2326:	d7 01       	movw	r26, r14
    2328:	14 96       	adiw	r26, 0x04	; 4
    232a:	8c 93       	st	X, r24

	// Read the Month Register, Send Master Acknowledge
	i2c_read(&data,ACK);
    232c:	c8 01       	movw	r24, r16
    232e:	61 e0       	ldi	r22, 0x01	; 1
    2330:	0e 94 a2 10 	call	0x2144	; 0x2144 <i2c_read>
	toRead->date.month = bcd2dec(data);
    2334:	89 81       	ldd	r24, Y+1	; 0x01
    2336:	0e 94 e5 10 	call	0x21ca	; 0x21ca <bcd2dec>
    233a:	f7 01       	movw	r30, r14
    233c:	85 83       	std	Z+5, r24	; 0x05

	// Read the Year Register, Send Master No Acknowledge
	i2c_read(&data,NACK);
    233e:	c8 01       	movw	r24, r16
    2340:	60 e0       	ldi	r22, 0x00	; 0
    2342:	0e 94 a2 10 	call	0x2144	; 0x2144 <i2c_read>
	toRead->date.year = bcd2dec(data);
    2346:	89 81       	ldd	r24, Y+1	; 0x01
    2348:	0e 94 e5 10 	call	0x21ca	; 0x21ca <bcd2dec>
    234c:	d7 01       	movw	r26, r14
    234e:	16 96       	adiw	r26, 0x06	; 6
    2350:	8c 93       	st	X, r24
	// Stop I2C Transmission
	i2c_stop();
    2352:	0e 94 93 10 	call	0x2126	; 0x2126 <i2c_stop>
}
    2356:	0f 90       	pop	r0
    2358:	cf 91       	pop	r28
    235a:	df 91       	pop	r29
    235c:	1f 91       	pop	r17
    235e:	0f 91       	pop	r16
    2360:	ff 90       	pop	r15
    2362:	ef 90       	pop	r14
    2364:	df 90       	pop	r13
    2366:	08 95       	ret

00002368 <Write_DS1307>:

void Write_DS1307(const dateTime *toWrite){
    2368:	cf 92       	push	r12
    236a:	df 92       	push	r13
    236c:	ff 92       	push	r15
    236e:	0f 93       	push	r16
    2370:	1f 93       	push	r17
    2372:	df 93       	push	r29
    2374:	cf 93       	push	r28
    2376:	cd b7       	in	r28, 0x3d	; 61
    2378:	de b7       	in	r29, 0x3e	; 62
    237a:	27 97       	sbiw	r28, 0x07	; 7
    237c:	0f b6       	in	r0, 0x3f	; 63
    237e:	f8 94       	cli
    2380:	de bf       	out	0x3e, r29	; 62
    2382:	0f be       	out	0x3f, r0	; 63
    2384:	cd bf       	out	0x3d, r28	; 61
    2386:	fc 01       	movw	r30, r24
	unsigned char i, hour_format;
	uint8_t ds1307_addr[7];
	ds1307_addr[0] = toWrite->time.seconds;
    2388:	90 81       	ld	r25, Z
	ds1307_addr[1] = toWrite->time.minute;
    238a:	81 81       	ldd	r24, Z+1	; 0x01
    238c:	8a 83       	std	Y+2, r24	; 0x02
	ds1307_addr[2] = toWrite->time.hours;
    238e:	82 81       	ldd	r24, Z+2	; 0x02
    2390:	8b 83       	std	Y+3, r24	; 0x03
	ds1307_addr[3] = toWrite->date.day;
    2392:	83 81       	ldd	r24, Z+3	; 0x03
    2394:	8c 83       	std	Y+4, r24	; 0x04
	ds1307_addr[4] = toWrite->date.date;
    2396:	84 81       	ldd	r24, Z+4	; 0x04
    2398:	8d 83       	std	Y+5, r24	; 0x05
	ds1307_addr[5] = toWrite->date.month;
    239a:	85 81       	ldd	r24, Z+5	; 0x05
    239c:	8e 83       	std	Y+6, r24	; 0x06
	ds1307_addr[6] = toWrite->date.year;
    239e:	86 81       	ldd	r24, Z+6	; 0x06
    23a0:	8f 83       	std	Y+7, r24	; 0x07
	
	currentDateTime = *toWrite;
    23a2:	a3 ec       	ldi	r26, 0xC3	; 195
    23a4:	b1 e0       	ldi	r27, 0x01	; 1
    23a6:	87 e0       	ldi	r24, 0x07	; 7
    23a8:	01 90       	ld	r0, Z+
    23aa:	0d 92       	st	X+, r0
    23ac:	81 50       	subi	r24, 0x01	; 1
    23ae:	e1 f7       	brne	.-8      	; 0x23a8 <Write_DS1307+0x40>

	// Make sure we enable the Oscillator control bit CH=0 on Register 0x00
	ds1307_addr[0]=ds1307_addr[0] & 0x7F;
    23b0:	9f 77       	andi	r25, 0x7F	; 127
    23b2:	99 83       	std	Y+1, r25	; 0x01

	// Start the I2C Write Transmission
	i2c_start(DS1307_ID,DS1307_ADDR,TW_WRITE);
    23b4:	80 ed       	ldi	r24, 0xD0	; 208
    23b6:	90 e0       	ldi	r25, 0x00	; 0
    23b8:	60 e0       	ldi	r22, 0x00	; 0
    23ba:	70 e0       	ldi	r23, 0x00	; 0
    23bc:	40 e0       	ldi	r20, 0x00	; 0
    23be:	0e 94 65 10 	call	0x20ca	; 0x20ca <i2c_start>

	// Start from Address 0x00
	i2c_write(0x00);
    23c2:	80 e0       	ldi	r24, 0x00	; 0
    23c4:	0e 94 97 10 	call	0x212e	; 0x212e <i2c_write>
    23c8:	ff 24       	eor	r15, r15
    23ca:	f3 94       	inc	r15
    23cc:	00 e0       	ldi	r16, 0x00	; 0
    23ce:	10 e0       	ldi	r17, 0x00	; 0
				hour_format &= ~(1 << 6);
			}

			i2c_write(hour_format);
		} else {
			i2c_write(dec2bcd(ds1307_addr[i]));
    23d0:	6e 01       	movw	r12, r28
    23d2:	08 94       	sec
    23d4:	c1 1c       	adc	r12, r1
    23d6:	d1 1c       	adc	r13, r1
    23d8:	03 c0       	rjmp	.+6      	; 0x23e0 <Write_DS1307+0x78>

	// Start the I2C Write Transmission
	i2c_start(DS1307_ID,DS1307_ADDR,TW_WRITE);

	// Start from Address 0x00
	i2c_write(0x00);
    23da:	0f 5f       	subi	r16, 0xFF	; 255
    23dc:	1f 4f       	sbci	r17, 0xFF	; 255
    23de:	f3 94       	inc	r15

	// Write the data to the DS1307 address start at 0x00
	// DS1307 automatically will increase the Address.
	for (i=0; i<7; i++) {
		if (i == 2) {
    23e0:	02 30       	cpi	r16, 0x02	; 2
    23e2:	a1 f4       	brne	.+40     	; 0x240c <Write_DS1307+0xa4>
			hour_format=dec2bcd(ds1307_addr[i]);
    23e4:	8b 81       	ldd	r24, Y+3	; 0x03
    23e6:	0e 94 de 10 	call	0x21bc	; 0x21bc <dec2bcd>

			if (hour_mode) {
    23ea:	90 91 b3 01 	lds	r25, 0x01B3
    23ee:	99 23       	and	r25, r25
    23f0:	49 f0       	breq	.+18     	; 0x2404 <Write_DS1307+0x9c>
				hour_format |= (1 << 6);
    23f2:	80 64       	ori	r24, 0x40	; 64
				if (ampm_mode)
    23f4:	90 91 b4 01 	lds	r25, 0x01B4
    23f8:	99 23       	and	r25, r25
    23fa:	11 f0       	breq	.+4      	; 0x2400 <Write_DS1307+0x98>
					hour_format |= (1 << 5);
    23fc:	80 62       	ori	r24, 0x20	; 32
    23fe:	03 c0       	rjmp	.+6      	; 0x2406 <Write_DS1307+0x9e>
				else
					hour_format &= ~(1 << 5);
    2400:	8f 7d       	andi	r24, 0xDF	; 223
    2402:	01 c0       	rjmp	.+2      	; 0x2406 <Write_DS1307+0x9e>
			} else {
				hour_format &= ~(1 << 6);
    2404:	8f 7b       	andi	r24, 0xBF	; 191
			}

			i2c_write(hour_format);
    2406:	0e 94 97 10 	call	0x212e	; 0x212e <i2c_write>
    240a:	e7 cf       	rjmp	.-50     	; 0x23da <Write_DS1307+0x72>
		} else {
			i2c_write(dec2bcd(ds1307_addr[i]));
    240c:	f6 01       	movw	r30, r12
    240e:	e0 0f       	add	r30, r16
    2410:	f1 1d       	adc	r31, r1
    2412:	80 81       	ld	r24, Z
    2414:	0e 94 de 10 	call	0x21bc	; 0x21bc <dec2bcd>
    2418:	0e 94 97 10 	call	0x212e	; 0x212e <i2c_write>
	// Start from Address 0x00
	i2c_write(0x00);

	// Write the data to the DS1307 address start at 0x00
	// DS1307 automatically will increase the Address.
	for (i=0; i<7; i++) {
    241c:	8f 2d       	mov	r24, r15
    241e:	87 30       	cpi	r24, 0x07	; 7
    2420:	e0 f2       	brcs	.-72     	; 0x23da <Write_DS1307+0x72>
			i2c_write(dec2bcd(ds1307_addr[i]));
		}
	}

	// Stop I2C Transmission
	i2c_stop();
    2422:	0e 94 93 10 	call	0x2126	; 0x2126 <i2c_stop>
}
    2426:	27 96       	adiw	r28, 0x07	; 7
    2428:	0f b6       	in	r0, 0x3f	; 63
    242a:	f8 94       	cli
    242c:	de bf       	out	0x3e, r29	; 62
    242e:	0f be       	out	0x3f, r0	; 63
    2430:	cd bf       	out	0x3d, r28	; 61
    2432:	cf 91       	pop	r28
    2434:	df 91       	pop	r29
    2436:	1f 91       	pop	r17
    2438:	0f 91       	pop	r16
    243a:	ff 90       	pop	r15
    243c:	df 90       	pop	r13
    243e:	cf 90       	pop	r12
    2440:	08 95       	ret

00002442 <num2str>:
// Implementing integer value from 00 to 99
char *num2str(char number){
	unsigned char digit;     

	digit = '0';                       // Start with ASCII '0'
	while(number >= 10)                // Keep Looping for larger than 10
    2442:	8a 30       	cpi	r24, 0x0A	; 10
    2444:	90 f0       	brcs	.+36     	; 0x246a <num2str+0x28>

// Implementing integer value from 00 to 99
char *num2str(char number){
	unsigned char digit;     

	digit = '0';                       // Start with ASCII '0'
    2446:	90 e3       	ldi	r25, 0x30	; 48
	while(number >= 10)                // Keep Looping for larger than 10
	{
		digit++;                         // Increase ASCII character
    2448:	9f 5f       	subi	r25, 0xFF	; 255
		number -= 10;                    // Subtract number with 10
    244a:	8a 50       	subi	r24, 0x0A	; 10
// Implementing integer value from 00 to 99
char *num2str(char number){
	unsigned char digit;     

	digit = '0';                       // Start with ASCII '0'
	while(number >= 10)                // Keep Looping for larger than 10
    244c:	8a 30       	cpi	r24, 0x0A	; 10
    244e:	e0 f7       	brcc	.-8      	; 0x2448 <num2str+0x6>
	{
		digit++;                         // Increase ASCII character
		number -= 10;                    // Subtract number with 10
	}

	sdigit[0]='0';                     // Default first Digit to '0'
    2450:	20 e3       	ldi	r18, 0x30	; 48
    2452:	20 93 3f 01 	sts	0x013F, r18
	if (digit != '0')
    2456:	90 33       	cpi	r25, 0x30	; 48
    2458:	11 f0       	breq	.+4      	; 0x245e <num2str+0x1c>
		sdigit[0]=digit;                 // Put the Second digit
    245a:	90 93 3f 01 	sts	0x013F, r25

	sdigit[1]='0' + number;
    245e:	80 5d       	subi	r24, 0xD0	; 208
    2460:	80 93 40 01 	sts	0x0140, r24
	return sdigit;
}
    2464:	8f e3       	ldi	r24, 0x3F	; 63
    2466:	91 e0       	ldi	r25, 0x01	; 1
    2468:	08 95       	ret
	{
		digit++;                         // Increase ASCII character
		number -= 10;                    // Subtract number with 10
	}

	sdigit[0]='0';                     // Default first Digit to '0'
    246a:	90 e3       	ldi	r25, 0x30	; 48
    246c:	90 93 3f 01 	sts	0x013F, r25
    2470:	f6 cf       	rjmp	.-20     	; 0x245e <num2str+0x1c>

00002472 <turnLcdOff>:
	displayInit(0);
	drawMainScreen();
}

void turnLcdOff(void){
	LCD_UIT();
    2472:	42 98       	cbi	0x08, 2	; 8
	RESETFLAG(FLAG_AWAKE);
    2474:	80 91 36 02 	lds	r24, 0x0236
    2478:	90 91 37 02 	lds	r25, 0x0237
    247c:	8d 7f       	andi	r24, 0xFD	; 253
    247e:	90 93 37 02 	sts	0x0237, r25
    2482:	80 93 36 02 	sts	0x0236, r24
	DDR_LCD_CMD = (_BV(LCD_CMD_CS1) | _BV(LCD_CMD_CS2) | _BV(LCD_CMD_DI) | _BV(LCD_CMD_DIR) | _BV(LCD_CMD_RW) | _BV(LCD_CMD_EN));
    2486:	2a b1       	in	r18, 0x0a	; 10
    2488:	81 e0       	ldi	r24, 0x01	; 1
    248a:	90 e0       	ldi	r25, 0x00	; 0
    248c:	ac 01       	movw	r20, r24
    248e:	02 c0       	rjmp	.+4      	; 0x2494 <turnLcdOff+0x22>
    2490:	44 0f       	add	r20, r20
    2492:	55 1f       	adc	r21, r21
    2494:	2a 95       	dec	r18
    2496:	e2 f7       	brpl	.-8      	; 0x2490 <turnLcdOff+0x1e>
    2498:	9a 01       	movw	r18, r20
    249a:	2c 67       	ori	r18, 0x7C	; 124
    249c:	2a b9       	out	0x0a, r18	; 10
	PORT_LCD_CMD &= ~(_BV(LCD_CMD_CS1) | _BV(LCD_CMD_CS2) | _BV(LCD_CMD_DI) | _BV(LCD_CMD_DIR) | _BV(LCD_CMD_RW) | _BV(LCD_CMD_EN));
    249e:	2b b1       	in	r18, 0x0b	; 11
    24a0:	3a b1       	in	r19, 0x0a	; 10
    24a2:	02 c0       	rjmp	.+4      	; 0x24a8 <turnLcdOff+0x36>
    24a4:	88 0f       	add	r24, r24
    24a6:	99 1f       	adc	r25, r25
    24a8:	3a 95       	dec	r19
    24aa:	e2 f7       	brpl	.-8      	; 0x24a4 <turnLcdOff+0x32>
    24ac:	8c 67       	ori	r24, 0x7C	; 124
    24ae:	80 95       	com	r24
    24b0:	82 23       	and	r24, r18
    24b2:	8b b9       	out	0x0b, r24	; 11
	DDR_LCD_DATA = 0xFF;
    24b4:	8f ef       	ldi	r24, 0xFF	; 255
    24b6:	84 b9       	out	0x04, r24	; 4
	PORT_LCD_DATA = 0x00;
    24b8:	15 b8       	out	0x05, r1	; 5
}
    24ba:	08 95       	ret

000024bc <drawTtlBar>:
		RESETDRAWFLAG(DRAW_BATTERY_LOW);
		loadImage(BATTERY_X,BATTERY_Y,batteryIndicator);
	}
}

void drawTtlBar(){
    24bc:	cf 93       	push	r28
    24be:	df 93       	push	r29
	if(CHECKDRAWFLAG(DRAW_TTL_BAR)){
    24c0:	80 91 16 02 	lds	r24, 0x0216
    24c4:	84 ff       	sbrs	r24, 4
    24c6:	15 c0       	rjmp	.+42     	; 0x24f2 <drawTtlBar+0x36>
		updateBar(&ttlBar, MAX_LAST_ACTION - lastAction);
    24c8:	c4 e2       	ldi	r28, 0x24	; 36
    24ca:	d2 e0       	ldi	r29, 0x02	; 2
    24cc:	80 91 38 02 	lds	r24, 0x0238
    24d0:	64 e1       	ldi	r22, 0x14	; 20
    24d2:	68 1b       	sub	r22, r24
    24d4:	ce 01       	movw	r24, r28
    24d6:	0e 94 ce 20 	call	0x419c	; 0x419c <updateBar>
		drawBar(&ttlBar);
    24da:	ce 01       	movw	r24, r28
    24dc:	0e 94 d2 20 	call	0x41a4	; 0x41a4 <drawBar>
		RESETDRAWFLAG(DRAW_TTL_BAR);
    24e0:	80 91 16 02 	lds	r24, 0x0216
    24e4:	90 91 17 02 	lds	r25, 0x0217
    24e8:	8f 7e       	andi	r24, 0xEF	; 239
    24ea:	90 93 17 02 	sts	0x0217, r25
    24ee:	80 93 16 02 	sts	0x0216, r24
	}		
}
    24f2:	df 91       	pop	r29
    24f4:	cf 91       	pop	r28
    24f6:	08 95       	ret

000024f8 <loadImage>:

void loadImage(const uint8_t x, const uint8_t y, const uint8_t *bitmap){
    24f8:	4f 92       	push	r4
    24fa:	5f 92       	push	r5
    24fc:	6f 92       	push	r6
    24fe:	7f 92       	push	r7
    2500:	9f 92       	push	r9
    2502:	af 92       	push	r10
    2504:	bf 92       	push	r11
    2506:	cf 92       	push	r12
    2508:	df 92       	push	r13
    250a:	ef 92       	push	r14
    250c:	ff 92       	push	r15
    250e:	0f 93       	push	r16
    2510:	1f 93       	push	r17
    2512:	cf 93       	push	r28
    2514:	df 93       	push	r29
    2516:	08 2f       	mov	r16, r24
    2518:	a6 2e       	mov	r10, r22
	uint8_t x_, y_ ,by;
	uint8_t maxWidth = pgm_read_byte(bitmap++);
    251a:	7a 01       	movw	r14, r20
    251c:	08 94       	sec
    251e:	e1 1c       	adc	r14, r1
    2520:	f1 1c       	adc	r15, r1
    2522:	fa 01       	movw	r30, r20
    2524:	c4 90       	lpm	r12, Z+
	uint8_t maxHeight = pgm_read_byte(bitmap++);
    2526:	f7 01       	movw	r30, r14
    2528:	94 90       	lpm	r9, Z+
	for(y_=0; y_ < maxHeight; y_+=8)
    252a:	99 20       	and	r9, r9
    252c:	49 f1       	breq	.+82     	; 0x2580 <loadImage+0x88>
}

void loadImage(const uint8_t x, const uint8_t y, const uint8_t *bitmap){
	uint8_t x_, y_ ,by;
	uint8_t maxWidth = pgm_read_byte(bitmap++);
	uint8_t maxHeight = pgm_read_byte(bitmap++);
    252e:	08 94       	sec
    2530:	e1 1c       	adc	r14, r1
    2532:	f1 1c       	adc	r15, r1
	for(y_=0; y_ < maxHeight; y_+=8)
    2534:	bb 24       	eor	r11, r11

	for(x_=0; x_ < maxWidth; x_++){
    2536:	66 24       	eor	r6, r6
    2538:	77 24       	eor	r7, r7
		drawBar(&ttlBar);
		RESETDRAWFLAG(DRAW_TTL_BAR);
	}		
}

void loadImage(const uint8_t x, const uint8_t y, const uint8_t *bitmap){
    253a:	4c 2c       	mov	r4, r12
    253c:	4a 94       	dec	r4
    253e:	55 24       	eor	r5, r5
    2540:	08 94       	sec
    2542:	41 1c       	adc	r4, r1
    2544:	51 1c       	adc	r5, r1
    2546:	19 c0       	rjmp	.+50     	; 0x257a <loadImage+0x82>
	uint8_t x_, y_ ,by;
	uint8_t maxWidth = pgm_read_byte(bitmap++);
	uint8_t maxHeight = pgm_read_byte(bitmap++);
	for(y_=0; y_ < maxHeight; y_+=8)

	for(x_=0; x_ < maxWidth; x_++){
    2548:	e3 01       	movw	r28, r6
		by=pgm_read_byte(bitmap++);
		displayGotoXY(x_+x, y_+y);
    254a:	db 2c       	mov	r13, r11
    254c:	da 0c       	add	r13, r10
	uint8_t maxWidth = pgm_read_byte(bitmap++);
	uint8_t maxHeight = pgm_read_byte(bitmap++);
	for(y_=0; y_ < maxHeight; y_+=8)

	for(x_=0; x_ < maxWidth; x_++){
		by=pgm_read_byte(bitmap++);
    254e:	f7 01       	movw	r30, r14
    2550:	ec 0f       	add	r30, r28
    2552:	fd 1f       	adc	r31, r29
    2554:	14 91       	lpm	r17, Z+
		displayGotoXY(x_+x, y_+y);
    2556:	9e 01       	movw	r18, r28
    2558:	20 0f       	add	r18, r16
    255a:	82 2f       	mov	r24, r18
    255c:	6d 2d       	mov	r22, r13
    255e:	0e 94 4d 09 	call	0x129a	; 0x129a <displayGotoXY>
		displayWriteData(by);
    2562:	81 2f       	mov	r24, r17
    2564:	0e 94 b9 09 	call	0x1372	; 0x1372 <displayWriteData>
    2568:	21 96       	adiw	r28, 0x01	; 1
	uint8_t x_, y_ ,by;
	uint8_t maxWidth = pgm_read_byte(bitmap++);
	uint8_t maxHeight = pgm_read_byte(bitmap++);
	for(y_=0; y_ < maxHeight; y_+=8)

	for(x_=0; x_ < maxWidth; x_++){
    256a:	cc 15       	cp	r28, r12
    256c:	80 f3       	brcs	.-32     	; 0x254e <loadImage+0x56>
    256e:	e4 0c       	add	r14, r4
    2570:	f5 1c       	adc	r15, r5

void loadImage(const uint8_t x, const uint8_t y, const uint8_t *bitmap){
	uint8_t x_, y_ ,by;
	uint8_t maxWidth = pgm_read_byte(bitmap++);
	uint8_t maxHeight = pgm_read_byte(bitmap++);
	for(y_=0; y_ < maxHeight; y_+=8)
    2572:	98 e0       	ldi	r25, 0x08	; 8
    2574:	b9 0e       	add	r11, r25
    2576:	b9 14       	cp	r11, r9
    2578:	18 f4       	brcc	.+6      	; 0x2580 <loadImage+0x88>

	for(x_=0; x_ < maxWidth; x_++){
    257a:	cc 20       	and	r12, r12
    257c:	29 f7       	brne	.-54     	; 0x2548 <loadImage+0x50>
    257e:	f9 cf       	rjmp	.-14     	; 0x2572 <loadImage+0x7a>
		by=pgm_read_byte(bitmap++);
		displayGotoXY(x_+x, y_+y);
		displayWriteData(by);
	}
}
    2580:	df 91       	pop	r29
    2582:	cf 91       	pop	r28
    2584:	1f 91       	pop	r17
    2586:	0f 91       	pop	r16
    2588:	ff 90       	pop	r15
    258a:	ef 90       	pop	r14
    258c:	df 90       	pop	r13
    258e:	cf 90       	pop	r12
    2590:	bf 90       	pop	r11
    2592:	af 90       	pop	r10
    2594:	9f 90       	pop	r9
    2596:	7f 90       	pop	r7
    2598:	6f 90       	pop	r6
    259a:	5f 90       	pop	r5
    259c:	4f 90       	pop	r4
    259e:	08 95       	ret

000025a0 <drawBatteryBar>:
	
	displayDrawHoriLine(0, TOPBAR_Y,DISPLAY_SCREEN_WIDTH, BLACK);
	drawBatteryBar();
}

void drawBatteryBar(){
    25a0:	cf 93       	push	r28
    25a2:	df 93       	push	r29
	if(CHECKDRAWFLAG(DRAW_BATTERY_BAR)){
    25a4:	80 91 16 02 	lds	r24, 0x0216
    25a8:	83 ff       	sbrs	r24, 3
    25aa:	13 c0       	rjmp	.+38     	; 0x25d2 <drawBatteryBar+0x32>
		updateBar(&batteryBar, batteryLevel);
    25ac:	cd e2       	ldi	r28, 0x2D	; 45
    25ae:	d2 e0       	ldi	r29, 0x02	; 2
    25b0:	ce 01       	movw	r24, r28
    25b2:	60 91 15 02 	lds	r22, 0x0215
    25b6:	0e 94 ce 20 	call	0x419c	; 0x419c <updateBar>
		drawBar(&batteryBar);
    25ba:	ce 01       	movw	r24, r28
    25bc:	0e 94 d2 20 	call	0x41a4	; 0x41a4 <drawBar>
		RESETDRAWFLAG(DRAW_BATTERY_BAR);
    25c0:	80 91 16 02 	lds	r24, 0x0216
    25c4:	90 91 17 02 	lds	r25, 0x0217
    25c8:	87 7f       	andi	r24, 0xF7	; 247
    25ca:	90 93 17 02 	sts	0x0217, r25
    25ce:	80 93 16 02 	sts	0x0216, r24
	}
	if(CHECKDRAWFLAG(DRAW_BATTERY_LOW)){
    25d2:	80 91 16 02 	lds	r24, 0x0216
    25d6:	90 91 17 02 	lds	r25, 0x0217
    25da:	82 ff       	sbrs	r24, 2
    25dc:	0b c0       	rjmp	.+22     	; 0x25f4 <drawBatteryBar+0x54>
		RESETDRAWFLAG(DRAW_BATTERY_LOW);
    25de:	8b 7f       	andi	r24, 0xFB	; 251
    25e0:	90 93 17 02 	sts	0x0217, r25
    25e4:	80 93 16 02 	sts	0x0216, r24
		loadImage(BATTERY_X,BATTERY_Y,batteryIndicator);
    25e8:	80 e0       	ldi	r24, 0x00	; 0
    25ea:	69 e0       	ldi	r22, 0x09	; 9
    25ec:	4e ed       	ldi	r20, 0xDE	; 222
    25ee:	5b e0       	ldi	r21, 0x0B	; 11
    25f0:	0e 94 7c 12 	call	0x24f8	; 0x24f8 <loadImage>
	}
}
    25f4:	df 91       	pop	r29
    25f6:	cf 91       	pop	r28
    25f8:	08 95       	ret

000025fa <loadImageInverted>:
		by=pgm_read_byte(bitmap++);
		displayGotoXY(x_+x, y_+y);
		displayWriteData(by);
	}
}
void loadImageInverted(const uint8_t x, const uint8_t y, const uint8_t *bitmap){
    25fa:	4f 92       	push	r4
    25fc:	5f 92       	push	r5
    25fe:	6f 92       	push	r6
    2600:	7f 92       	push	r7
    2602:	9f 92       	push	r9
    2604:	af 92       	push	r10
    2606:	bf 92       	push	r11
    2608:	cf 92       	push	r12
    260a:	df 92       	push	r13
    260c:	ef 92       	push	r14
    260e:	ff 92       	push	r15
    2610:	0f 93       	push	r16
    2612:	1f 93       	push	r17
    2614:	cf 93       	push	r28
    2616:	df 93       	push	r29
    2618:	08 2f       	mov	r16, r24
    261a:	a6 2e       	mov	r10, r22
	uint8_t x_, y_ ,by;
	uint8_t maxWidth = pgm_read_byte(bitmap++);
    261c:	7a 01       	movw	r14, r20
    261e:	08 94       	sec
    2620:	e1 1c       	adc	r14, r1
    2622:	f1 1c       	adc	r15, r1
    2624:	fa 01       	movw	r30, r20
    2626:	c4 90       	lpm	r12, Z+
	uint8_t maxHeight = pgm_read_byte(bitmap++);
    2628:	f7 01       	movw	r30, r14
    262a:	94 90       	lpm	r9, Z+
	for(y_=0; y_ < maxHeight; y_+=8)
    262c:	99 20       	and	r9, r9
    262e:	51 f1       	breq	.+84     	; 0x2684 <loadImageInverted+0x8a>
	}
}
void loadImageInverted(const uint8_t x, const uint8_t y, const uint8_t *bitmap){
	uint8_t x_, y_ ,by;
	uint8_t maxWidth = pgm_read_byte(bitmap++);
	uint8_t maxHeight = pgm_read_byte(bitmap++);
    2630:	08 94       	sec
    2632:	e1 1c       	adc	r14, r1
    2634:	f1 1c       	adc	r15, r1
	for(y_=0; y_ < maxHeight; y_+=8)
    2636:	bb 24       	eor	r11, r11

	for(x_=0; x_ < maxWidth; x_++){
    2638:	66 24       	eor	r6, r6
    263a:	77 24       	eor	r7, r7
		by=pgm_read_byte(bitmap++);
		displayGotoXY(x_+x, y_+y);
		displayWriteData(by);
	}
}
void loadImageInverted(const uint8_t x, const uint8_t y, const uint8_t *bitmap){
    263c:	4c 2c       	mov	r4, r12
    263e:	4a 94       	dec	r4
    2640:	55 24       	eor	r5, r5
    2642:	08 94       	sec
    2644:	41 1c       	adc	r4, r1
    2646:	51 1c       	adc	r5, r1
    2648:	1a c0       	rjmp	.+52     	; 0x267e <loadImageInverted+0x84>
	uint8_t x_, y_ ,by;
	uint8_t maxWidth = pgm_read_byte(bitmap++);
	uint8_t maxHeight = pgm_read_byte(bitmap++);
	for(y_=0; y_ < maxHeight; y_+=8)

	for(x_=0; x_ < maxWidth; x_++){
    264a:	e3 01       	movw	r28, r6
		by=pgm_read_byte(bitmap++);
		displayGotoXY(x_+x, y_+y);
    264c:	db 2c       	mov	r13, r11
    264e:	da 0c       	add	r13, r10
	uint8_t maxWidth = pgm_read_byte(bitmap++);
	uint8_t maxHeight = pgm_read_byte(bitmap++);
	for(y_=0; y_ < maxHeight; y_+=8)

	for(x_=0; x_ < maxWidth; x_++){
		by=pgm_read_byte(bitmap++);
    2650:	f7 01       	movw	r30, r14
    2652:	ec 0f       	add	r30, r28
    2654:	fd 1f       	adc	r31, r29
    2656:	14 91       	lpm	r17, Z+
		displayGotoXY(x_+x, y_+y);
    2658:	9e 01       	movw	r18, r28
    265a:	20 0f       	add	r18, r16
    265c:	82 2f       	mov	r24, r18
    265e:	6d 2d       	mov	r22, r13
    2660:	0e 94 4d 09 	call	0x129a	; 0x129a <displayGotoXY>
		displayWriteData(~by);
    2664:	81 2f       	mov	r24, r17
    2666:	80 95       	com	r24
    2668:	0e 94 b9 09 	call	0x1372	; 0x1372 <displayWriteData>
    266c:	21 96       	adiw	r28, 0x01	; 1
	uint8_t x_, y_ ,by;
	uint8_t maxWidth = pgm_read_byte(bitmap++);
	uint8_t maxHeight = pgm_read_byte(bitmap++);
	for(y_=0; y_ < maxHeight; y_+=8)

	for(x_=0; x_ < maxWidth; x_++){
    266e:	cc 15       	cp	r28, r12
    2670:	78 f3       	brcs	.-34     	; 0x2650 <loadImageInverted+0x56>
    2672:	e4 0c       	add	r14, r4
    2674:	f5 1c       	adc	r15, r5
}
void loadImageInverted(const uint8_t x, const uint8_t y, const uint8_t *bitmap){
	uint8_t x_, y_ ,by;
	uint8_t maxWidth = pgm_read_byte(bitmap++);
	uint8_t maxHeight = pgm_read_byte(bitmap++);
	for(y_=0; y_ < maxHeight; y_+=8)
    2676:	98 e0       	ldi	r25, 0x08	; 8
    2678:	b9 0e       	add	r11, r25
    267a:	b9 14       	cp	r11, r9
    267c:	18 f4       	brcc	.+6      	; 0x2684 <loadImageInverted+0x8a>

	for(x_=0; x_ < maxWidth; x_++){
    267e:	cc 20       	and	r12, r12
    2680:	21 f7       	brne	.-56     	; 0x264a <loadImageInverted+0x50>
    2682:	f9 cf       	rjmp	.-14     	; 0x2676 <loadImageInverted+0x7c>
		by=pgm_read_byte(bitmap++);
		displayGotoXY(x_+x, y_+y);
		displayWriteData(~by);
	}
}
    2684:	df 91       	pop	r29
    2686:	cf 91       	pop	r28
    2688:	1f 91       	pop	r17
    268a:	0f 91       	pop	r16
    268c:	ff 90       	pop	r15
    268e:	ef 90       	pop	r14
    2690:	df 90       	pop	r13
    2692:	cf 90       	pop	r12
    2694:	bf 90       	pop	r11
    2696:	af 90       	pop	r10
    2698:	9f 90       	pop	r9
    269a:	7f 90       	pop	r7
    269c:	6f 90       	pop	r6
    269e:	5f 90       	pop	r5
    26a0:	4f 90       	pop	r4
    26a2:	08 95       	ret

000026a4 <init_display>:
	PORT_LCD_CMD &= ~(_BV(LCD_CMD_CS1) | _BV(LCD_CMD_CS2) | _BV(LCD_CMD_DI) | _BV(LCD_CMD_DIR) | _BV(LCD_CMD_RW) | _BV(LCD_CMD_EN));
	DDR_LCD_DATA = 0xFF;
	PORT_LCD_DATA = 0x00;
}

void init_display(void){
    26a4:	0f 93       	push	r16
    26a6:	1f 93       	push	r17
    26a8:	df 93       	push	r29
    26aa:	cf 93       	push	r28
    26ac:	cd b7       	in	r28, 0x3d	; 61
    26ae:	de b7       	in	r29, 0x3e	; 62
    26b0:	27 97       	sbiw	r28, 0x07	; 7
    26b2:	0f b6       	in	r0, 0x3f	; 63
    26b4:	f8 94       	cli
    26b6:	de bf       	out	0x3e, r29	; 62
    26b8:	0f be       	out	0x3f, r0	; 63
    26ba:	cd bf       	out	0x3d, r28	; 61
	displayInit(0);
    26bc:	80 e0       	ldi	r24, 0x00	; 0
    26be:	0e 94 b8 0f 	call	0x1f70	; 0x1f70 <displayInit>
	SETFLAG(FLAG_AWAKE);
    26c2:	80 91 36 02 	lds	r24, 0x0236
    26c6:	90 91 37 02 	lds	r25, 0x0237
    26ca:	82 60       	ori	r24, 0x02	; 2
    26cc:	90 93 37 02 	sts	0x0237, r25
    26d0:	80 93 36 02 	sts	0x0236, r24
	for(volatile uint16_t i=0; i<15000; i++);
    26d4:	1a 82       	std	Y+2, r1	; 0x02
    26d6:	19 82       	std	Y+1, r1	; 0x01
    26d8:	89 81       	ldd	r24, Y+1	; 0x01
    26da:	9a 81       	ldd	r25, Y+2	; 0x02
    26dc:	2a e3       	ldi	r18, 0x3A	; 58
    26de:	88 39       	cpi	r24, 0x98	; 152
    26e0:	92 07       	cpc	r25, r18
    26e2:	58 f4       	brcc	.+22     	; 0x26fa <init_display+0x56>
    26e4:	89 81       	ldd	r24, Y+1	; 0x01
    26e6:	9a 81       	ldd	r25, Y+2	; 0x02
    26e8:	01 96       	adiw	r24, 0x01	; 1
    26ea:	9a 83       	std	Y+2, r25	; 0x02
    26ec:	89 83       	std	Y+1, r24	; 0x01
    26ee:	89 81       	ldd	r24, Y+1	; 0x01
    26f0:	9a 81       	ldd	r25, Y+2	; 0x02
    26f2:	aa e3       	ldi	r26, 0x3A	; 58
    26f4:	88 39       	cpi	r24, 0x98	; 152
    26f6:	9a 07       	cpc	r25, r26
    26f8:	a8 f3       	brcs	.-22     	; 0x26e4 <init_display+0x40>
	
	loadImageInverted(0,0,logo);
    26fa:	00 e1       	ldi	r16, 0x10	; 16
    26fc:	1c e0       	ldi	r17, 0x0C	; 12
    26fe:	80 e0       	ldi	r24, 0x00	; 0
    2700:	60 e0       	ldi	r22, 0x00	; 0
    2702:	a8 01       	movw	r20, r16
    2704:	0e 94 fd 12 	call	0x25fa	; 0x25fa <loadImageInverted>
	#else
		//round up by default
		__ticks_dc = (uint32_t)(ceil(fabs(__tmp)));
	#endif

	__builtin_avr_delay_cycles(__ticks_dc);
    2708:	8f ef       	ldi	r24, 0xFF	; 255
    270a:	94 e3       	ldi	r25, 0x34	; 52
    270c:	ac e0       	ldi	r26, 0x0C	; 12
    270e:	81 50       	subi	r24, 0x01	; 1
    2710:	90 40       	sbci	r25, 0x00	; 0
    2712:	a0 40       	sbci	r26, 0x00	; 0
    2714:	e1 f7       	brne	.-8      	; 0x270e <init_display+0x6a>
    2716:	00 c0       	rjmp	.+0      	; 0x2718 <init_display+0x74>
    2718:	00 00       	nop
	_delay_ms(200);
	loadImage(0,0,logo);
    271a:	80 e0       	ldi	r24, 0x00	; 0
    271c:	60 e0       	ldi	r22, 0x00	; 0
    271e:	a8 01       	movw	r20, r16
    2720:	0e 94 7c 12 	call	0x24f8	; 0x24f8 <loadImage>
    2724:	8f ef       	ldi	r24, 0xFF	; 255
    2726:	98 e0       	ldi	r25, 0x08	; 8
    2728:	ad e3       	ldi	r26, 0x3D	; 61
    272a:	81 50       	subi	r24, 0x01	; 1
    272c:	90 40       	sbci	r25, 0x00	; 0
    272e:	a0 40       	sbci	r26, 0x00	; 0
    2730:	e1 f7       	brne	.-8      	; 0x272a <init_display+0x86>
    2732:	00 c0       	rjmp	.+0      	; 0x2734 <init_display+0x90>
    2734:	00 00       	nop
	
	_delay_ms(1000);
	
	displayClearScreen();
    2736:	80 e0       	ldi	r24, 0x00	; 0
    2738:	60 e0       	ldi	r22, 0x00	; 0
    273a:	4f e7       	ldi	r20, 0x7F	; 127
    273c:	2f e3       	ldi	r18, 0x3F	; 63
    273e:	00 e0       	ldi	r16, 0x00	; 0
    2740:	0e 94 f3 0c 	call	0x19e6	; 0x19e6 <displayFillRect>
	
	batteryBar	= createProgressBar(batteryLevel, 256, TOPBAR_Y+1);
    2744:	80 91 15 02 	lds	r24, 0x0215
    2748:	90 e0       	ldi	r25, 0x00	; 0
    274a:	60 e0       	ldi	r22, 0x00	; 0
    274c:	71 e0       	ldi	r23, 0x01	; 1
    274e:	49 e0       	ldi	r20, 0x09	; 9
    2750:	0e 94 b2 20 	call	0x4164	; 0x4164 <createProgressBar>
    2754:	2b 83       	std	Y+3, r18	; 0x03
    2756:	3c 83       	std	Y+4, r19	; 0x04
    2758:	4d 83       	std	Y+5, r20	; 0x05
    275a:	5e 83       	std	Y+6, r21	; 0x06
    275c:	6f 83       	std	Y+7, r22	; 0x07
    275e:	ad e2       	ldi	r26, 0x2D	; 45
    2760:	b2 e0       	ldi	r27, 0x02	; 2
    2762:	fe 01       	movw	r30, r28
    2764:	33 96       	adiw	r30, 0x03	; 3
    2766:	85 e0       	ldi	r24, 0x05	; 5
    2768:	01 90       	ld	r0, Z+
    276a:	0d 92       	st	X+, r0
    276c:	81 50       	subi	r24, 0x01	; 1
    276e:	e1 f7       	brne	.-8      	; 0x2768 <init_display+0xc4>
	ttlBar		= createProgressBar(MAX_LAST_ACTION - lastAction, MAX_LAST_ACTION, DISPLAY_SCREEN_HEIGHT-1);
    2770:	20 91 38 02 	lds	r18, 0x0238
    2774:	84 e1       	ldi	r24, 0x14	; 20
    2776:	90 e0       	ldi	r25, 0x00	; 0
    2778:	82 1b       	sub	r24, r18
    277a:	91 09       	sbc	r25, r1
    277c:	64 e1       	ldi	r22, 0x14	; 20
    277e:	70 e0       	ldi	r23, 0x00	; 0
    2780:	4f e3       	ldi	r20, 0x3F	; 63
    2782:	0e 94 b2 20 	call	0x4164	; 0x4164 <createProgressBar>
    2786:	2b 83       	std	Y+3, r18	; 0x03
    2788:	3c 83       	std	Y+4, r19	; 0x04
    278a:	4d 83       	std	Y+5, r20	; 0x05
    278c:	5e 83       	std	Y+6, r21	; 0x06
    278e:	6f 83       	std	Y+7, r22	; 0x07
    2790:	a4 e2       	ldi	r26, 0x24	; 36
    2792:	b2 e0       	ldi	r27, 0x02	; 2
    2794:	fe 01       	movw	r30, r28
    2796:	33 96       	adiw	r30, 0x03	; 3
    2798:	85 e0       	ldi	r24, 0x05	; 5
    279a:	01 90       	ld	r0, Z+
    279c:	0d 92       	st	X+, r0
    279e:	81 50       	subi	r24, 0x01	; 1
    27a0:	e1 f7       	brne	.-8      	; 0x279a <init_display+0xf6>
	drawBar(&batteryBar);
    27a2:	8d e2       	ldi	r24, 0x2D	; 45
    27a4:	92 e0       	ldi	r25, 0x02	; 2
    27a6:	0e 94 d2 20 	call	0x41a4	; 0x41a4 <drawBar>
	drawBar(&ttlBar);
    27aa:	84 e2       	ldi	r24, 0x24	; 36
    27ac:	92 e0       	ldi	r25, 0x02	; 2
    27ae:	0e 94 d2 20 	call	0x41a4	; 0x41a4 <drawBar>
}
    27b2:	27 96       	adiw	r28, 0x07	; 7
    27b4:	0f b6       	in	r0, 0x3f	; 63
    27b6:	f8 94       	cli
    27b8:	de bf       	out	0x3e, r29	; 62
    27ba:	0f be       	out	0x3f, r0	; 63
    27bc:	cd bf       	out	0x3d, r28	; 61
    27be:	cf 91       	pop	r28
    27c0:	df 91       	pop	r29
    27c2:	1f 91       	pop	r17
    27c4:	0f 91       	pop	r16
    27c6:	08 95       	ret

000027c8 <drawTime>:
		displayWriteData(~by);
	}
}


void drawTime(){
    27c8:	ef 92       	push	r14
    27ca:	ff 92       	push	r15
    27cc:	0f 93       	push	r16
    27ce:	1f 93       	push	r17
    27d0:	cf 93       	push	r28
    27d2:	df 93       	push	r29
	if(CHECKDRAWFLAG(DRAW_TIME)){
    27d4:	80 91 16 02 	lds	r24, 0x0216
    27d8:	90 91 17 02 	lds	r25, 0x0217
    27dc:	85 ff       	sbrs	r24, 5
    27de:	56 c0       	rjmp	.+172    	; 0x288c <drawTime+0xc4>
		RESETDRAWFLAG(DRAW_TIME);
    27e0:	8f 7d       	andi	r24, 0xDF	; 223
    27e2:	90 93 17 02 	sts	0x0217, r25
    27e6:	80 93 16 02 	sts	0x0216, r24
		displaySelectFont(TEXTFONT, displayReadFontData, BLACK);
    27ea:	86 e9       	ldi	r24, 0x96	; 150
    27ec:	98 e0       	ldi	r25, 0x08	; 8
    27ee:	6d e8       	ldi	r22, 0x8D	; 141
    27f0:	78 e0       	ldi	r23, 0x08	; 8
    27f2:	4f ef       	ldi	r20, 0xFF	; 255
    27f4:	0e 94 90 08 	call	0x1120	; 0x1120 <displaySelectFont>
		displayFillRect(TIME_X, TIME_Y, 30+5, 7, WHITE);
    27f8:	8f e5       	ldi	r24, 0x5F	; 95
    27fa:	60 e0       	ldi	r22, 0x00	; 0
    27fc:	43 e2       	ldi	r20, 0x23	; 35
    27fe:	27 e0       	ldi	r18, 0x07	; 7
    2800:	00 e0       	ldi	r16, 0x00	; 0
    2802:	0e 94 f3 0c 	call	0x19e6	; 0x19e6 <displayFillRect>
		displayGotoXY(TIME_X, TIME_Y);
    2806:	8f e5       	ldi	r24, 0x5F	; 95
    2808:	60 e0       	ldi	r22, 0x00	; 0
    280a:	0e 94 4d 09 	call	0x129a	; 0x129a <displayGotoXY>
		displayPutChar((currentDateTime.time.hours / 10)+48);
    280e:	0f 2e       	mov	r0, r31
    2810:	f5 ec       	ldi	r31, 0xC5	; 197
    2812:	ef 2e       	mov	r14, r31
    2814:	f1 e0       	ldi	r31, 0x01	; 1
    2816:	ff 2e       	mov	r15, r31
    2818:	f0 2d       	mov	r31, r0
    281a:	80 91 c5 01 	lds	r24, 0x01C5
    281e:	1a e0       	ldi	r17, 0x0A	; 10
    2820:	61 2f       	mov	r22, r17
    2822:	0e 94 93 25 	call	0x4b26	; 0x4b26 <__udivmodqi4>
    2826:	80 5d       	subi	r24, 0xD0	; 208
    2828:	0e 94 7e 0a 	call	0x14fc	; 0x14fc <displayPutChar>
		displayPutChar((currentDateTime.time.hours % 10)+48);
    282c:	80 91 c5 01 	lds	r24, 0x01C5
    2830:	61 2f       	mov	r22, r17
    2832:	0e 94 93 25 	call	0x4b26	; 0x4b26 <__udivmodqi4>
    2836:	89 2f       	mov	r24, r25
    2838:	80 5d       	subi	r24, 0xD0	; 208
    283a:	0e 94 7e 0a 	call	0x14fc	; 0x14fc <displayPutChar>
		displayPutChar(':');
    283e:	8a e3       	ldi	r24, 0x3A	; 58
    2840:	0e 94 7e 0a 	call	0x14fc	; 0x14fc <displayPutChar>
		displayPutChar((currentDateTime.time.minute / 10)+48);
    2844:	e7 01       	movw	r28, r14
    2846:	8a 91       	ld	r24, -Y
    2848:	61 2f       	mov	r22, r17
    284a:	0e 94 93 25 	call	0x4b26	; 0x4b26 <__udivmodqi4>
    284e:	80 5d       	subi	r24, 0xD0	; 208
    2850:	0e 94 7e 0a 	call	0x14fc	; 0x14fc <displayPutChar>
		displayPutChar((currentDateTime.time.minute % 10)+48);
    2854:	88 81       	ld	r24, Y
    2856:	61 2f       	mov	r22, r17
    2858:	0e 94 93 25 	call	0x4b26	; 0x4b26 <__udivmodqi4>
    285c:	89 2f       	mov	r24, r25
    285e:	80 5d       	subi	r24, 0xD0	; 208
    2860:	0e 94 7e 0a 	call	0x14fc	; 0x14fc <displayPutChar>
		displayPutChar(':');
    2864:	8a e3       	ldi	r24, 0x3A	; 58
    2866:	0e 94 7e 0a 	call	0x14fc	; 0x14fc <displayPutChar>
		displayPutChar((currentDateTime.time.seconds / 10)+48);
    286a:	e7 01       	movw	r28, r14
    286c:	22 97       	sbiw	r28, 0x02	; 2
    286e:	88 81       	ld	r24, Y
    2870:	61 2f       	mov	r22, r17
    2872:	0e 94 93 25 	call	0x4b26	; 0x4b26 <__udivmodqi4>
    2876:	80 5d       	subi	r24, 0xD0	; 208
    2878:	0e 94 7e 0a 	call	0x14fc	; 0x14fc <displayPutChar>
		displayPutChar((currentDateTime.time.seconds % 10)+48);
    287c:	88 81       	ld	r24, Y
    287e:	61 2f       	mov	r22, r17
    2880:	0e 94 93 25 	call	0x4b26	; 0x4b26 <__udivmodqi4>
    2884:	89 2f       	mov	r24, r25
    2886:	80 5d       	subi	r24, 0xD0	; 208
    2888:	0e 94 7e 0a 	call	0x14fc	; 0x14fc <displayPutChar>
	}	
}
    288c:	df 91       	pop	r29
    288e:	cf 91       	pop	r28
    2890:	1f 91       	pop	r17
    2892:	0f 91       	pop	r16
    2894:	ff 90       	pop	r15
    2896:	ef 90       	pop	r14
    2898:	08 95       	ret

0000289a <drawDate>:

void drawDate(){
    289a:	0f 93       	push	r16
    289c:	1f 93       	push	r17
	if(CHECKDRAWFLAG(DRAW_DATE)){
    289e:	80 91 16 02 	lds	r24, 0x0216
    28a2:	90 91 17 02 	lds	r25, 0x0217
    28a6:	86 ff       	sbrs	r24, 6
    28a8:	51 c0       	rjmp	.+162    	; 0x294c <drawDate+0xb2>
		RESETDRAWFLAG(DRAW_DATE);
    28aa:	8f 7b       	andi	r24, 0xBF	; 191
    28ac:	90 93 17 02 	sts	0x0217, r25
    28b0:	80 93 16 02 	sts	0x0216, r24
		displaySelectFont(TEXTFONT, displayReadFontData, BLACK);
    28b4:	86 e9       	ldi	r24, 0x96	; 150
    28b6:	98 e0       	ldi	r25, 0x08	; 8
    28b8:	6d e8       	ldi	r22, 0x8D	; 141
    28ba:	78 e0       	ldi	r23, 0x08	; 8
    28bc:	4f ef       	ldi	r20, 0xFF	; 255
    28be:	0e 94 90 08 	call	0x1120	; 0x1120 <displaySelectFont>
		displayFillRect(DATE_X, DATE_Y, 40, 7, WHITE);
    28c2:	83 e0       	ldi	r24, 0x03	; 3
    28c4:	60 e0       	ldi	r22, 0x00	; 0
    28c6:	48 e2       	ldi	r20, 0x28	; 40
    28c8:	27 e0       	ldi	r18, 0x07	; 7
    28ca:	00 e0       	ldi	r16, 0x00	; 0
    28cc:	0e 94 f3 0c 	call	0x19e6	; 0x19e6 <displayFillRect>
		displayGotoXY(DATE_X, DATE_Y);
    28d0:	83 e0       	ldi	r24, 0x03	; 3
    28d2:	60 e0       	ldi	r22, 0x00	; 0
    28d4:	0e 94 4d 09 	call	0x129a	; 0x129a <displayGotoXY>
	
		displayPutChar((currentDateTime.date.date / 10) + 48);
    28d8:	80 91 c7 01 	lds	r24, 0x01C7
    28dc:	1a e0       	ldi	r17, 0x0A	; 10
    28de:	61 2f       	mov	r22, r17
    28e0:	0e 94 93 25 	call	0x4b26	; 0x4b26 <__udivmodqi4>
    28e4:	80 5d       	subi	r24, 0xD0	; 208
    28e6:	0e 94 7e 0a 	call	0x14fc	; 0x14fc <displayPutChar>
		displayPutChar((currentDateTime.date.date % 10) + 48);
    28ea:	80 91 c7 01 	lds	r24, 0x01C7
    28ee:	61 2f       	mov	r22, r17
    28f0:	0e 94 93 25 	call	0x4b26	; 0x4b26 <__udivmodqi4>
    28f4:	89 2f       	mov	r24, r25
    28f6:	80 5d       	subi	r24, 0xD0	; 208
    28f8:	0e 94 7e 0a 	call	0x14fc	; 0x14fc <displayPutChar>
		displayPutChar('-');
    28fc:	8d e2       	ldi	r24, 0x2D	; 45
    28fe:	0e 94 7e 0a 	call	0x14fc	; 0x14fc <displayPutChar>
		displayPutChar((currentDateTime.date.month / 10) + 48);
    2902:	80 91 c8 01 	lds	r24, 0x01C8
    2906:	61 2f       	mov	r22, r17
    2908:	0e 94 93 25 	call	0x4b26	; 0x4b26 <__udivmodqi4>
    290c:	80 5d       	subi	r24, 0xD0	; 208
    290e:	0e 94 7e 0a 	call	0x14fc	; 0x14fc <displayPutChar>
		displayPutChar((currentDateTime.date.month % 10) + 48);
    2912:	80 91 c8 01 	lds	r24, 0x01C8
    2916:	61 2f       	mov	r22, r17
    2918:	0e 94 93 25 	call	0x4b26	; 0x4b26 <__udivmodqi4>
    291c:	89 2f       	mov	r24, r25
    291e:	80 5d       	subi	r24, 0xD0	; 208
    2920:	0e 94 7e 0a 	call	0x14fc	; 0x14fc <displayPutChar>
		displayPutChar('-');
    2924:	8d e2       	ldi	r24, 0x2D	; 45
    2926:	0e 94 7e 0a 	call	0x14fc	; 0x14fc <displayPutChar>
		displayPutChar((currentDateTime.date.year / 10) + 48);
    292a:	80 91 c9 01 	lds	r24, 0x01C9
    292e:	61 2f       	mov	r22, r17
    2930:	0e 94 93 25 	call	0x4b26	; 0x4b26 <__udivmodqi4>
    2934:	80 5d       	subi	r24, 0xD0	; 208
    2936:	0e 94 7e 0a 	call	0x14fc	; 0x14fc <displayPutChar>
		displayPutChar((currentDateTime.date.year % 10) + 48);
    293a:	80 91 c9 01 	lds	r24, 0x01C9
    293e:	61 2f       	mov	r22, r17
    2940:	0e 94 93 25 	call	0x4b26	; 0x4b26 <__udivmodqi4>
    2944:	89 2f       	mov	r24, r25
    2946:	80 5d       	subi	r24, 0xD0	; 208
    2948:	0e 94 7e 0a 	call	0x14fc	; 0x14fc <displayPutChar>
	}	
}
    294c:	1f 91       	pop	r17
    294e:	0f 91       	pop	r16
    2950:	08 95       	ret

00002952 <drawTopHeader>:
	ttlBar		= createProgressBar(MAX_LAST_ACTION - lastAction, MAX_LAST_ACTION, DISPLAY_SCREEN_HEIGHT-1);
	drawBar(&batteryBar);
	drawBar(&ttlBar);
}

void drawTopHeader(){
    2952:	0f 93       	push	r16
	drawTime();
    2954:	0e 94 e4 13 	call	0x27c8	; 0x27c8 <drawTime>
	drawDate();
    2958:	0e 94 4d 14 	call	0x289a	; 0x289a <drawDate>
	
	displayDrawHoriLine(0, TOPBAR_Y,DISPLAY_SCREEN_WIDTH, BLACK);
    295c:	80 e0       	ldi	r24, 0x00	; 0
    295e:	68 e0       	ldi	r22, 0x08	; 8
    2960:	40 e8       	ldi	r20, 0x80	; 128
    2962:	20 e0       	ldi	r18, 0x00	; 0
    2964:	0f ef       	ldi	r16, 0xFF	; 255
    2966:	0e 94 f3 0c 	call	0x19e6	; 0x19e6 <displayFillRect>
	drawBatteryBar();
    296a:	0e 94 d0 12 	call	0x25a0	; 0x25a0 <drawBatteryBar>
}
    296e:	0f 91       	pop	r16
    2970:	08 95       	ret

00002972 <activateButton>:
	buttonAway.y = BUTTON_AWAY_Y;
	buttonAway.width = BUTTON_AWAY_WIDTH;
	buttonAway.height = BUTTON_AWAY_HEIGHT;
}

void activateButton(const square *bt){
    2972:	fc 01       	movw	r30, r24
	displayInvertRect(bt->x, bt->y, bt->width, bt->height);
    2974:	80 81       	ld	r24, Z
    2976:	61 81       	ldd	r22, Z+1	; 0x01
    2978:	42 81       	ldd	r20, Z+2	; 0x02
    297a:	23 81       	ldd	r18, Z+3	; 0x03
    297c:	0e 94 55 0c 	call	0x18aa	; 0x18aa <displayInvertRect>
}
    2980:	08 95       	ret

00002982 <drawUpButton>:

void drawUpButton(const square *sq){
    2982:	0f 93       	push	r16
    2984:	cf 93       	push	r28
    2986:	df 93       	push	r29
    2988:	ec 01       	movw	r28, r24
	displayDrawRect(sq->x, sq->y, sq->width, sq->height, BLACK);
    298a:	88 81       	ld	r24, Y
    298c:	69 81       	ldd	r22, Y+1	; 0x01
    298e:	4a 81       	ldd	r20, Y+2	; 0x02
    2990:	2b 81       	ldd	r18, Y+3	; 0x03
    2992:	0f ef       	ldi	r16, 0xFF	; 255
    2994:	0e 94 5b 0e 	call	0x1cb6	; 0x1cb6 <displayDrawRect>
	displayDrawLine(sq->x + 5, sq->y + 7, sq->x + 9, sq->y + 3, BLACK);
    2998:	88 81       	ld	r24, Y
    299a:	29 81       	ldd	r18, Y+1	; 0x01
    299c:	62 2f       	mov	r22, r18
    299e:	69 5f       	subi	r22, 0xF9	; 249
    29a0:	48 2f       	mov	r20, r24
    29a2:	47 5f       	subi	r20, 0xF7	; 247
    29a4:	2d 5f       	subi	r18, 0xFD	; 253
    29a6:	8b 5f       	subi	r24, 0xFB	; 251
    29a8:	0e 94 83 0e 	call	0x1d06	; 0x1d06 <displayDrawLine>
	displayDrawLine(sq->x + 13, sq->y + 7, sq->x + 9, sq->y + 3, BLACK);
    29ac:	88 81       	ld	r24, Y
    29ae:	29 81       	ldd	r18, Y+1	; 0x01
    29b0:	62 2f       	mov	r22, r18
    29b2:	69 5f       	subi	r22, 0xF9	; 249
    29b4:	48 2f       	mov	r20, r24
    29b6:	47 5f       	subi	r20, 0xF7	; 247
    29b8:	2d 5f       	subi	r18, 0xFD	; 253
    29ba:	83 5f       	subi	r24, 0xF3	; 243
    29bc:	0e 94 83 0e 	call	0x1d06	; 0x1d06 <displayDrawLine>
}
    29c0:	df 91       	pop	r29
    29c2:	cf 91       	pop	r28
    29c4:	0f 91       	pop	r16
    29c6:	08 95       	ret

000029c8 <drawDownButton>:

void drawDownButton(const square *sq){
    29c8:	0f 93       	push	r16
    29ca:	cf 93       	push	r28
    29cc:	df 93       	push	r29
    29ce:	ec 01       	movw	r28, r24
	displayDrawRect(sq->x, sq->y, sq->width, sq->height, BLACK);
    29d0:	88 81       	ld	r24, Y
    29d2:	69 81       	ldd	r22, Y+1	; 0x01
    29d4:	4a 81       	ldd	r20, Y+2	; 0x02
    29d6:	2b 81       	ldd	r18, Y+3	; 0x03
    29d8:	0f ef       	ldi	r16, 0xFF	; 255
    29da:	0e 94 5b 0e 	call	0x1cb6	; 0x1cb6 <displayDrawRect>
	displayDrawLine(sq->x + 5, sq->y + 3, sq->x + 9, sq->y + 7, BLACK);
    29de:	88 81       	ld	r24, Y
    29e0:	29 81       	ldd	r18, Y+1	; 0x01
    29e2:	62 2f       	mov	r22, r18
    29e4:	6d 5f       	subi	r22, 0xFD	; 253
    29e6:	48 2f       	mov	r20, r24
    29e8:	47 5f       	subi	r20, 0xF7	; 247
    29ea:	29 5f       	subi	r18, 0xF9	; 249
    29ec:	8b 5f       	subi	r24, 0xFB	; 251
    29ee:	0e 94 83 0e 	call	0x1d06	; 0x1d06 <displayDrawLine>
	displayDrawLine(sq->x + 13, sq->y + 3, sq->x + 9, sq->y + 7, BLACK);
    29f2:	88 81       	ld	r24, Y
    29f4:	29 81       	ldd	r18, Y+1	; 0x01
    29f6:	62 2f       	mov	r22, r18
    29f8:	6d 5f       	subi	r22, 0xFD	; 253
    29fa:	48 2f       	mov	r20, r24
    29fc:	47 5f       	subi	r20, 0xF7	; 247
    29fe:	29 5f       	subi	r18, 0xF9	; 249
    2a00:	83 5f       	subi	r24, 0xF3	; 243
    2a02:	0e 94 83 0e 	call	0x1d06	; 0x1d06 <displayDrawLine>
}
    2a06:	df 91       	pop	r29
    2a08:	cf 91       	pop	r28
    2a0a:	0f 91       	pop	r16
    2a0c:	08 95       	ret

00002a0e <drawNumber>:

void drawNumber(uint8_t number){
    2a0e:	1f 93       	push	r17
    2a10:	18 2f       	mov	r17, r24
	if(number >= 10){
    2a12:	8a 30       	cpi	r24, 0x0A	; 10
    2a14:	38 f0       	brcs	.+14     	; 0x2a24 <drawNumber+0x16>
		displayPutChar((number / 10) + 48);
    2a16:	6a e0       	ldi	r22, 0x0A	; 10
    2a18:	0e 94 93 25 	call	0x4b26	; 0x4b26 <__udivmodqi4>
    2a1c:	80 5d       	subi	r24, 0xD0	; 208
    2a1e:	0e 94 7e 0a 	call	0x14fc	; 0x14fc <displayPutChar>
    2a22:	03 c0       	rjmp	.+6      	; 0x2a2a <drawNumber+0x1c>
	}else{
		displayPutChar('0');
    2a24:	80 e3       	ldi	r24, 0x30	; 48
    2a26:	0e 94 7e 0a 	call	0x14fc	; 0x14fc <displayPutChar>
	}
	displayPutChar((number % 10) + 48);
    2a2a:	81 2f       	mov	r24, r17
    2a2c:	6a e0       	ldi	r22, 0x0A	; 10
    2a2e:	0e 94 93 25 	call	0x4b26	; 0x4b26 <__udivmodqi4>
    2a32:	89 2f       	mov	r24, r25
    2a34:	80 5d       	subi	r24, 0xD0	; 208
    2a36:	0e 94 7e 0a 	call	0x14fc	; 0x14fc <displayPutChar>
}
    2a3a:	1f 91       	pop	r17
    2a3c:	08 95       	ret

00002a3e <drawAwayScreen>:

void drawAwayScreen(){
    2a3e:	af 92       	push	r10
    2a40:	bf 92       	push	r11
    2a42:	cf 92       	push	r12
    2a44:	df 92       	push	r13
    2a46:	ef 92       	push	r14
    2a48:	ff 92       	push	r15
    2a4a:	0f 93       	push	r16
    2a4c:	1f 93       	push	r17
    2a4e:	cf 93       	push	r28
    2a50:	df 93       	push	r29
	if(CHECKDRAWFLAG(DRAW_AWAYSCREEN)){
    2a52:	80 91 16 02 	lds	r24, 0x0216
    2a56:	87 ff       	sbrs	r24, 7
    2a58:	68 c1       	rjmp	.+720    	; 0x2d2a <drawAwayScreen+0x2ec>
		displaySelectFont(TEXTFONT, displayReadFontData,BLACK);
    2a5a:	cd e8       	ldi	r28, 0x8D	; 141
    2a5c:	d8 e0       	ldi	r29, 0x08	; 8
    2a5e:	86 e9       	ldi	r24, 0x96	; 150
    2a60:	98 e0       	ldi	r25, 0x08	; 8
    2a62:	be 01       	movw	r22, r28
    2a64:	4f ef       	ldi	r20, 0xFF	; 255
    2a66:	0e 94 90 08 	call	0x1120	; 0x1120 <displaySelectFont>
		RESETDRAWFLAG(DRAW_AWAYSCREEN);
    2a6a:	80 91 16 02 	lds	r24, 0x0216
    2a6e:	90 91 17 02 	lds	r25, 0x0217
    2a72:	8f 77       	andi	r24, 0x7F	; 127
    2a74:	90 93 17 02 	sts	0x0217, r25
    2a78:	80 93 16 02 	sts	0x0216, r24
		//First, clear the field.
		displayFillRect(AWAYSCREEN_X - 1, AWAYSCREEN_Y - 1, AWAYSCREEN_WIDTH + 2, AWAYSCREEN_HEIGHT + 2, WHITE);
    2a7c:	83 e0       	ldi	r24, 0x03	; 3
    2a7e:	66 e0       	ldi	r22, 0x06	; 6
    2a80:	49 e7       	ldi	r20, 0x79	; 121
    2a82:	23 e3       	ldi	r18, 0x33	; 51
    2a84:	00 e0       	ldi	r16, 0x00	; 0
    2a86:	0e 94 f3 0c 	call	0x19e6	; 0x19e6 <displayFillRect>
		displayDrawRect(AWAYSCREEN_X, AWAYSCREEN_Y, AWAYSCREEN_WIDTH, AWAYSCREEN_HEIGHT, BLACK);
    2a8a:	84 e0       	ldi	r24, 0x04	; 4
    2a8c:	67 e0       	ldi	r22, 0x07	; 7
    2a8e:	47 e7       	ldi	r20, 0x77	; 119
    2a90:	21 e3       	ldi	r18, 0x31	; 49
    2a92:	0f ef       	ldi	r16, 0xFF	; 255
    2a94:	0e 94 5b 0e 	call	0x1cb6	; 0x1cb6 <displayDrawRect>
		
		//Day of week
		displayGotoXY(AWAYSCREEN_OKCANCEL_X + 2, AWAYSCREEN_FIELDS_Y + 2);
    2a98:	8b e0       	ldi	r24, 0x0B	; 11
    2a9a:	6a e1       	ldi	r22, 0x1A	; 26
    2a9c:	0e 94 4d 09 	call	0x129a	; 0x129a <displayGotoXY>
		displayPuts(dayNames[timeOfReturn.date.day]);
    2aa0:	e0 91 20 02 	lds	r30, 0x0220
    2aa4:	f0 e0       	ldi	r31, 0x00	; 0
    2aa6:	ee 0f       	add	r30, r30
    2aa8:	ff 1f       	adc	r31, r31
    2aaa:	e7 58       	subi	r30, 0x87	; 135
    2aac:	fe 4f       	sbci	r31, 0xFE	; 254
    2aae:	80 81       	ld	r24, Z
    2ab0:	91 81       	ldd	r25, Z+1	; 0x01
    2ab2:	0e 94 fc 0b 	call	0x17f8	; 0x17f8 <displayPuts>
		displayDrawRect(AWAYSCREEN_OKCANCEL_X, AWAYSCREEN_FIELDS_Y, AWAYSCREEN_OKCANCEL_WIDTH, AWAYSCREEN_FIELDS_HEIGHT, BLACK);
    2ab6:	89 e0       	ldi	r24, 0x09	; 9
    2ab8:	68 e1       	ldi	r22, 0x18	; 24
    2aba:	4f e0       	ldi	r20, 0x0F	; 15
    2abc:	2f e0       	ldi	r18, 0x0F	; 15
    2abe:	0e 94 5b 0e 	call	0x1cb6	; 0x1cb6 <displayDrawRect>
		//Do that calc!
		
		displaySelectFont(SMALLVALUEFONT, displayReadFontData,BLACK);
    2ac2:	80 e8       	ldi	r24, 0x80	; 128
    2ac4:	93 e0       	ldi	r25, 0x03	; 3
    2ac6:	be 01       	movw	r22, r28
    2ac8:	4f ef       	ldi	r20, 0xFF	; 255
    2aca:	0e 94 90 08 	call	0x1120	; 0x1120 <displaySelectFont>
		//Date
		displayGotoXY(AWAYSCREEN_OKCANCEL_X + AWAYSCREEN_OKCANCEL_WIDTH + AWAYSCREEN_X_DIFF + 3, AWAYSCREEN_FIELDS_Y + 2);
    2ace:	80 e2       	ldi	r24, 0x20	; 32
    2ad0:	6a e1       	ldi	r22, 0x1A	; 26
    2ad2:	0e 94 4d 09 	call	0x129a	; 0x129a <displayGotoXY>
		drawNumber(timeOfReturn.date.date);
    2ad6:	80 91 21 02 	lds	r24, 0x0221
    2ada:	0e 94 07 15 	call	0x2a0e	; 0x2a0e <drawNumber>
		displayDrawRect(AWAYSCREEN_OKCANCEL_X + AWAYSCREEN_OKCANCEL_WIDTH + AWAYSCREEN_X_DIFF, AWAYSCREEN_FIELDS_Y, AWAYSCREEN_BUTTONS_WIDTH, AWAYSCREEN_FIELDS_HEIGHT, BLACK);
    2ade:	8d e1       	ldi	r24, 0x1D	; 29
    2ae0:	68 e1       	ldi	r22, 0x18	; 24
    2ae2:	43 e1       	ldi	r20, 0x13	; 19
    2ae4:	2f e0       	ldi	r18, 0x0F	; 15
    2ae6:	0e 94 5b 0e 	call	0x1cb6	; 0x1cb6 <displayDrawRect>
		
		//Slash
		displayDrawLine(AWAYSCREEN_OKCANCEL_X + AWAYSCREEN_OKCANCEL_WIDTH + AWAYSCREEN_X_DIFF + (AWAYSCREEN_X_DIFF + AWAYSCREEN_BUTTONS_WIDTH * 1) - 2,
    2aea:	83 e3       	ldi	r24, 0x33	; 51
    2aec:	68 e1       	ldi	r22, 0x18	; 24
    2aee:	43 e3       	ldi	r20, 0x33	; 51
    2af0:	2e e1       	ldi	r18, 0x1E	; 30
    2af2:	0e 94 83 0e 	call	0x1d06	; 0x1d06 <displayDrawLine>
					AWAYSCREEN_FIELDS_Y, AWAYSCREEN_OKCANCEL_X + AWAYSCREEN_OKCANCEL_WIDTH + AWAYSCREEN_X_DIFF + (AWAYSCREEN_X_DIFF + AWAYSCREEN_BUTTONS_WIDTH * 1) - 2,
					AWAYSCREEN_FIELDS_Y + (AWAYSCREEN_FIELDS_HEIGHT/2)-1, BLACK);
		
		displayDrawLine(AWAYSCREEN_OKCANCEL_X + AWAYSCREEN_OKCANCEL_WIDTH + AWAYSCREEN_X_DIFF + (AWAYSCREEN_X_DIFF + AWAYSCREEN_BUTTONS_WIDTH * 1) - 3,
    2af6:	82 e3       	ldi	r24, 0x32	; 50
    2af8:	6f e1       	ldi	r22, 0x1F	; 31
    2afa:	42 e3       	ldi	r20, 0x32	; 50
    2afc:	27 e2       	ldi	r18, 0x27	; 39
    2afe:	0e 94 83 0e 	call	0x1d06	; 0x1d06 <displayDrawLine>
					AWAYSCREEN_FIELDS_Y + (AWAYSCREEN_FIELDS_HEIGHT/2), AWAYSCREEN_OKCANCEL_X + AWAYSCREEN_OKCANCEL_WIDTH + AWAYSCREEN_X_DIFF + (AWAYSCREEN_X_DIFF + AWAYSCREEN_BUTTONS_WIDTH * 1) - 3,
					AWAYSCREEN_FIELDS_Y + AWAYSCREEN_FIELDS_HEIGHT, BLACK);
		//Month
		displayGotoXY(AWAYSCREEN_OKCANCEL_X + AWAYSCREEN_OKCANCEL_WIDTH + AWAYSCREEN_X_DIFF + ((AWAYSCREEN_X_DIFF + AWAYSCREEN_BUTTONS_WIDTH) * 1) + 3, AWAYSCREEN_FIELDS_Y + 2);
    2b02:	88 e3       	ldi	r24, 0x38	; 56
    2b04:	6a e1       	ldi	r22, 0x1A	; 26
    2b06:	0e 94 4d 09 	call	0x129a	; 0x129a <displayGotoXY>
		drawNumber(timeOfReturn.date.month);
    2b0a:	80 91 22 02 	lds	r24, 0x0222
    2b0e:	0e 94 07 15 	call	0x2a0e	; 0x2a0e <drawNumber>
		displayDrawRect(AWAYSCREEN_OKCANCEL_X + AWAYSCREEN_OKCANCEL_WIDTH + AWAYSCREEN_X_DIFF + ((AWAYSCREEN_X_DIFF + AWAYSCREEN_BUTTONS_WIDTH) * 1), AWAYSCREEN_FIELDS_Y, AWAYSCREEN_BUTTONS_WIDTH, AWAYSCREEN_FIELDS_HEIGHT, BLACK);
    2b12:	85 e3       	ldi	r24, 0x35	; 53
    2b14:	68 e1       	ldi	r22, 0x18	; 24
    2b16:	43 e1       	ldi	r20, 0x13	; 19
    2b18:	2f e0       	ldi	r18, 0x0F	; 15
    2b1a:	0e 94 5b 0e 	call	0x1cb6	; 0x1cb6 <displayDrawRect>
		
		
		//Time
		displayGotoXY(AWAYSCREEN_OKCANCEL_X + AWAYSCREEN_OKCANCEL_WIDTH + AWAYSCREEN_X_DIFF + ((AWAYSCREEN_X_DIFF + AWAYSCREEN_BUTTONS_WIDTH) * 2) + 3, AWAYSCREEN_FIELDS_Y + 2);
    2b1e:	80 e5       	ldi	r24, 0x50	; 80
    2b20:	6a e1       	ldi	r22, 0x1A	; 26
    2b22:	0e 94 4d 09 	call	0x129a	; 0x129a <displayGotoXY>
		drawNumber(timeOfReturn.time.hours);
    2b26:	80 91 1f 02 	lds	r24, 0x021F
    2b2a:	0e 94 07 15 	call	0x2a0e	; 0x2a0e <drawNumber>
		displayDrawRect(AWAYSCREEN_OKCANCEL_X + AWAYSCREEN_OKCANCEL_WIDTH + AWAYSCREEN_X_DIFF + ((AWAYSCREEN_X_DIFF + AWAYSCREEN_BUTTONS_WIDTH) * 2), AWAYSCREEN_FIELDS_Y, AWAYSCREEN_BUTTONS_WIDTH, AWAYSCREEN_FIELDS_HEIGHT, BLACK);
    2b2e:	8d e4       	ldi	r24, 0x4D	; 77
    2b30:	68 e1       	ldi	r22, 0x18	; 24
    2b32:	43 e1       	ldi	r20, 0x13	; 19
    2b34:	2f e0       	ldi	r18, 0x0F	; 15
    2b36:	0e 94 5b 0e 	call	0x1cb6	; 0x1cb6 <displayDrawRect>
		
		//Double dot
		displaySetDot(AWAYSCREEN_OKCANCEL_X + AWAYSCREEN_OKCANCEL_WIDTH + AWAYSCREEN_X_DIFF + ((AWAYSCREEN_X_DIFF + AWAYSCREEN_BUTTONS_WIDTH) * 3) - 2, AWAYSCREEN_FIELDS_Y + 5, BLACK);
    2b3a:	83 e6       	ldi	r24, 0x63	; 99
    2b3c:	6d e1       	ldi	r22, 0x1D	; 29
    2b3e:	4f ef       	ldi	r20, 0xFF	; 255
    2b40:	0e 94 2f 0c 	call	0x185e	; 0x185e <displaySetDot>
		displaySetDot(AWAYSCREEN_OKCANCEL_X + AWAYSCREEN_OKCANCEL_WIDTH + AWAYSCREEN_X_DIFF + ((AWAYSCREEN_X_DIFF + AWAYSCREEN_BUTTONS_WIDTH) * 3) - 3, AWAYSCREEN_FIELDS_Y + 5, BLACK);
    2b44:	82 e6       	ldi	r24, 0x62	; 98
    2b46:	6d e1       	ldi	r22, 0x1D	; 29
    2b48:	4f ef       	ldi	r20, 0xFF	; 255
    2b4a:	0e 94 2f 0c 	call	0x185e	; 0x185e <displaySetDot>
		displaySetDot(AWAYSCREEN_OKCANCEL_X + AWAYSCREEN_OKCANCEL_WIDTH + AWAYSCREEN_X_DIFF + ((AWAYSCREEN_X_DIFF + AWAYSCREEN_BUTTONS_WIDTH) * 3) - 2, AWAYSCREEN_FIELDS_Y + 6, BLACK);
    2b4e:	83 e6       	ldi	r24, 0x63	; 99
    2b50:	6e e1       	ldi	r22, 0x1E	; 30
    2b52:	4f ef       	ldi	r20, 0xFF	; 255
    2b54:	0e 94 2f 0c 	call	0x185e	; 0x185e <displaySetDot>
		displaySetDot(AWAYSCREEN_OKCANCEL_X + AWAYSCREEN_OKCANCEL_WIDTH + AWAYSCREEN_X_DIFF + ((AWAYSCREEN_X_DIFF + AWAYSCREEN_BUTTONS_WIDTH) * 3) - 3, AWAYSCREEN_FIELDS_Y + 6, BLACK);
    2b58:	82 e6       	ldi	r24, 0x62	; 98
    2b5a:	6e e1       	ldi	r22, 0x1E	; 30
    2b5c:	4f ef       	ldi	r20, 0xFF	; 255
    2b5e:	0e 94 2f 0c 	call	0x185e	; 0x185e <displaySetDot>
		
		displaySetDot(AWAYSCREEN_OKCANCEL_X + AWAYSCREEN_OKCANCEL_WIDTH + AWAYSCREEN_X_DIFF + ((AWAYSCREEN_X_DIFF + AWAYSCREEN_BUTTONS_WIDTH) * 3) - 2, AWAYSCREEN_FIELDS_Y + 9, BLACK);
    2b62:	83 e6       	ldi	r24, 0x63	; 99
    2b64:	61 e2       	ldi	r22, 0x21	; 33
    2b66:	4f ef       	ldi	r20, 0xFF	; 255
    2b68:	0e 94 2f 0c 	call	0x185e	; 0x185e <displaySetDot>
		displaySetDot(AWAYSCREEN_OKCANCEL_X + AWAYSCREEN_OKCANCEL_WIDTH + AWAYSCREEN_X_DIFF + ((AWAYSCREEN_X_DIFF + AWAYSCREEN_BUTTONS_WIDTH) * 3) - 3, AWAYSCREEN_FIELDS_Y + 9, BLACK);
    2b6c:	82 e6       	ldi	r24, 0x62	; 98
    2b6e:	61 e2       	ldi	r22, 0x21	; 33
    2b70:	4f ef       	ldi	r20, 0xFF	; 255
    2b72:	0e 94 2f 0c 	call	0x185e	; 0x185e <displaySetDot>
		displaySetDot(AWAYSCREEN_OKCANCEL_X + AWAYSCREEN_OKCANCEL_WIDTH + AWAYSCREEN_X_DIFF + ((AWAYSCREEN_X_DIFF + AWAYSCREEN_BUTTONS_WIDTH) * 3) - 2, AWAYSCREEN_FIELDS_Y + 10, BLACK);
    2b76:	83 e6       	ldi	r24, 0x63	; 99
    2b78:	62 e2       	ldi	r22, 0x22	; 34
    2b7a:	4f ef       	ldi	r20, 0xFF	; 255
    2b7c:	0e 94 2f 0c 	call	0x185e	; 0x185e <displaySetDot>
		displaySetDot(AWAYSCREEN_OKCANCEL_X + AWAYSCREEN_OKCANCEL_WIDTH + AWAYSCREEN_X_DIFF + ((AWAYSCREEN_X_DIFF + AWAYSCREEN_BUTTONS_WIDTH) * 3) - 3, AWAYSCREEN_FIELDS_Y + 10, BLACK);
    2b80:	82 e6       	ldi	r24, 0x62	; 98
    2b82:	62 e2       	ldi	r22, 0x22	; 34
    2b84:	4f ef       	ldi	r20, 0xFF	; 255
    2b86:	0e 94 2f 0c 	call	0x185e	; 0x185e <displaySetDot>
		
		displayGotoXY(AWAYSCREEN_OKCANCEL_X + AWAYSCREEN_OKCANCEL_WIDTH + AWAYSCREEN_X_DIFF + ((AWAYSCREEN_X_DIFF + AWAYSCREEN_BUTTONS_WIDTH) * 3) + 3, AWAYSCREEN_FIELDS_Y + 2);
    2b8a:	88 e6       	ldi	r24, 0x68	; 104
    2b8c:	6a e1       	ldi	r22, 0x1A	; 26
    2b8e:	0e 94 4d 09 	call	0x129a	; 0x129a <displayGotoXY>
		drawNumber(timeOfReturn.time.minute);
    2b92:	80 91 1e 02 	lds	r24, 0x021E
    2b96:	0e 94 07 15 	call	0x2a0e	; 0x2a0e <drawNumber>
		displayDrawRect(AWAYSCREEN_OKCANCEL_X + AWAYSCREEN_OKCANCEL_WIDTH + AWAYSCREEN_X_DIFF + ((AWAYSCREEN_X_DIFF + AWAYSCREEN_BUTTONS_WIDTH) * 3), AWAYSCREEN_FIELDS_Y, AWAYSCREEN_BUTTONS_WIDTH, AWAYSCREEN_FIELDS_HEIGHT, BLACK);
    2b9a:	85 e6       	ldi	r24, 0x65	; 101
    2b9c:	68 e1       	ldi	r22, 0x18	; 24
    2b9e:	43 e1       	ldi	r20, 0x13	; 19
    2ba0:	2f e0       	ldi	r18, 0x0F	; 15
    2ba2:	0e 94 5b 0e 	call	0x1cb6	; 0x1cb6 <displayDrawRect>
		
		//Draw the buttons:
		//Cancel
		displayDrawRect(AWAYSCREEN_OKCANCEL_X, AWAYSCREEN_TOPBUTTONS_Y, AWAYSCREEN_OKCANCEL_WIDTH, AWAYSCREEN_BUTTONS_HEIGHT, BLACK);
    2ba6:	89 e0       	ldi	r24, 0x09	; 9
    2ba8:	6b e0       	ldi	r22, 0x0B	; 11
    2baa:	4f e0       	ldi	r20, 0x0F	; 15
    2bac:	2a e0       	ldi	r18, 0x0A	; 10
    2bae:	0e 94 5b 0e 	call	0x1cb6	; 0x1cb6 <displayDrawRect>
		awayscreenButtonCancel.x = AWAYSCREEN_OKCANCEL_X;
    2bb2:	0f 2e       	mov	r0, r31
    2bb4:	f9 e0       	ldi	r31, 0x09	; 9
    2bb6:	ef 2e       	mov	r14, r31
    2bb8:	f0 2d       	mov	r31, r0
    2bba:	e0 92 fa 01 	sts	0x01FA, r14
		awayscreenButtonCancel.y = AWAYSCREEN_TOPBUTTONS_Y;
    2bbe:	0f 2e       	mov	r0, r31
    2bc0:	fb e0       	ldi	r31, 0x0B	; 11
    2bc2:	ff 2e       	mov	r15, r31
    2bc4:	f0 2d       	mov	r31, r0
    2bc6:	f0 92 fb 01 	sts	0x01FB, r15
		awayscreenButtonCancel.width = AWAYSCREEN_OKCANCEL_WIDTH;
    2bca:	0f 2e       	mov	r0, r31
    2bcc:	ff e0       	ldi	r31, 0x0F	; 15
    2bce:	df 2e       	mov	r13, r31
    2bd0:	f0 2d       	mov	r31, r0
    2bd2:	d0 92 fc 01 	sts	0x01FC, r13
		awayscreenButtonCancel.height = AWAYSCREEN_BUTTONS_HEIGHT;
    2bd6:	1a e0       	ldi	r17, 0x0A	; 10
    2bd8:	10 93 fd 01 	sts	0x01FD, r17
		displayDrawLine(awayscreenButtonCancel.x + 5, awayscreenButtonCancel.y + 3, awayscreenButtonCancel.x + 9, awayscreenButtonCancel.y + 7, BLACK);
    2bdc:	8e e0       	ldi	r24, 0x0E	; 14
    2bde:	6e e0       	ldi	r22, 0x0E	; 14
    2be0:	42 e1       	ldi	r20, 0x12	; 18
    2be2:	22 e1       	ldi	r18, 0x12	; 18
    2be4:	0e 94 83 0e 	call	0x1d06	; 0x1d06 <displayDrawLine>
		displayDrawLine(awayscreenButtonCancel.x + 9, awayscreenButtonCancel.y + 3, awayscreenButtonCancel.x + 5, awayscreenButtonCancel.y + 7, BLACK);
    2be8:	80 91 fa 01 	lds	r24, 0x01FA
    2bec:	20 91 fb 01 	lds	r18, 0x01FB
    2bf0:	62 2f       	mov	r22, r18
    2bf2:	6d 5f       	subi	r22, 0xFD	; 253
    2bf4:	48 2f       	mov	r20, r24
    2bf6:	4b 5f       	subi	r20, 0xFB	; 251
    2bf8:	29 5f       	subi	r18, 0xF9	; 249
    2bfa:	87 5f       	subi	r24, 0xF7	; 247
    2bfc:	0e 94 83 0e 	call	0x1d06	; 0x1d06 <displayDrawLine>
		
		//Ok
		displayDrawRect(AWAYSCREEN_OKCANCEL_X, AWAYSCREEN_BOTBUTTONS_Y, AWAYSCREEN_OKCANCEL_WIDTH, AWAYSCREEN_BUTTONS_HEIGHT, BLACK);
    2c00:	89 e0       	ldi	r24, 0x09	; 9
    2c02:	6a e2       	ldi	r22, 0x2A	; 42
    2c04:	4f e0       	ldi	r20, 0x0F	; 15
    2c06:	2a e0       	ldi	r18, 0x0A	; 10
    2c08:	0e 94 5b 0e 	call	0x1cb6	; 0x1cb6 <displayDrawRect>
		awayscreenButtonOk.x = AWAYSCREEN_OKCANCEL_X;
    2c0c:	e0 92 bf 01 	sts	0x01BF, r14
		awayscreenButtonOk.y = AWAYSCREEN_BOTBUTTONS_Y;
    2c10:	0f 2e       	mov	r0, r31
    2c12:	fa e2       	ldi	r31, 0x2A	; 42
    2c14:	ef 2e       	mov	r14, r31
    2c16:	f0 2d       	mov	r31, r0
    2c18:	e0 92 c0 01 	sts	0x01C0, r14
		awayscreenButtonOk.width = AWAYSCREEN_OKCANCEL_WIDTH;
    2c1c:	d0 92 c1 01 	sts	0x01C1, r13
		awayscreenButtonOk.height = AWAYSCREEN_BUTTONS_HEIGHT;
    2c20:	10 93 c2 01 	sts	0x01C2, r17
		displayDrawLine(awayscreenButtonOk.x + 4, awayscreenButtonOk.y + 5, awayscreenButtonOk.x + 6, awayscreenButtonOk.y + 7, BLACK);
    2c24:	8d e0       	ldi	r24, 0x0D	; 13
    2c26:	6f e2       	ldi	r22, 0x2F	; 47
    2c28:	4f e0       	ldi	r20, 0x0F	; 15
    2c2a:	21 e3       	ldi	r18, 0x31	; 49
    2c2c:	0e 94 83 0e 	call	0x1d06	; 0x1d06 <displayDrawLine>
		displayDrawLine(awayscreenButtonOk.x + 6, awayscreenButtonOk.y + 7, awayscreenButtonOk.x + 10, awayscreenButtonOk.y + 3, BLACK);
    2c30:	80 91 bf 01 	lds	r24, 0x01BF
    2c34:	20 91 c0 01 	lds	r18, 0x01C0
    2c38:	62 2f       	mov	r22, r18
    2c3a:	69 5f       	subi	r22, 0xF9	; 249
    2c3c:	48 2f       	mov	r20, r24
    2c3e:	46 5f       	subi	r20, 0xF6	; 246
    2c40:	2d 5f       	subi	r18, 0xFD	; 253
    2c42:	8a 5f       	subi	r24, 0xFA	; 250
    2c44:	0e 94 83 0e 	call	0x1d06	; 0x1d06 <displayDrawLine>
		
		//Up first
		//Up day
		awayscreenButtonDayUp.x = AWAYSCREEN_OKCANCEL_X + AWAYSCREEN_OKCANCEL_WIDTH + AWAYSCREEN_X_DIFF;
    2c48:	0f 2e       	mov	r0, r31
    2c4a:	fd e1       	ldi	r31, 0x1D	; 29
    2c4c:	df 2e       	mov	r13, r31
    2c4e:	f0 2d       	mov	r31, r0
    2c50:	d0 92 32 02 	sts	0x0232, r13
		awayscreenButtonDayUp.y = AWAYSCREEN_TOPBUTTONS_Y;
    2c54:	f0 92 33 02 	sts	0x0233, r15
		awayscreenButtonDayUp.width = AWAYSCREEN_BUTTONS_WIDTH;
    2c58:	03 e1       	ldi	r16, 0x13	; 19
    2c5a:	00 93 34 02 	sts	0x0234, r16
		awayscreenButtonDayUp.height = AWAYSCREEN_BUTTONS_HEIGHT;
    2c5e:	10 93 35 02 	sts	0x0235, r17
		drawUpButton(&awayscreenButtonDayUp);
    2c62:	82 e3       	ldi	r24, 0x32	; 50
    2c64:	92 e0       	ldi	r25, 0x02	; 2
    2c66:	0e 94 c1 14 	call	0x2982	; 0x2982 <drawUpButton>
		
		//Up month
		awayscreenButtonMonthUp.x = AWAYSCREEN_OKCANCEL_X + AWAYSCREEN_OKCANCEL_WIDTH + AWAYSCREEN_X_DIFF + ((AWAYSCREEN_X_DIFF + AWAYSCREEN_BUTTONS_WIDTH) * 1);
    2c6a:	0f 2e       	mov	r0, r31
    2c6c:	f5 e3       	ldi	r31, 0x35	; 53
    2c6e:	cf 2e       	mov	r12, r31
    2c70:	f0 2d       	mov	r31, r0
    2c72:	c0 92 ed 01 	sts	0x01ED, r12
		awayscreenButtonMonthUp.y = AWAYSCREEN_TOPBUTTONS_Y;
    2c76:	f0 92 ee 01 	sts	0x01EE, r15
		awayscreenButtonMonthUp.width = AWAYSCREEN_BUTTONS_WIDTH;
    2c7a:	00 93 ef 01 	sts	0x01EF, r16
		awayscreenButtonMonthUp.height = AWAYSCREEN_BUTTONS_HEIGHT;
    2c7e:	10 93 f0 01 	sts	0x01F0, r17
		drawUpButton(&awayscreenButtonMonthUp);
    2c82:	8d ee       	ldi	r24, 0xED	; 237
    2c84:	91 e0       	ldi	r25, 0x01	; 1
    2c86:	0e 94 c1 14 	call	0x2982	; 0x2982 <drawUpButton>
		
		//Up hour
		awayscreenButtonHourUp.x = AWAYSCREEN_OKCANCEL_X + AWAYSCREEN_OKCANCEL_WIDTH + AWAYSCREEN_X_DIFF + ((AWAYSCREEN_X_DIFF + AWAYSCREEN_BUTTONS_WIDTH) * 2);
    2c8a:	0f 2e       	mov	r0, r31
    2c8c:	fd e4       	ldi	r31, 0x4D	; 77
    2c8e:	bf 2e       	mov	r11, r31
    2c90:	f0 2d       	mov	r31, r0
    2c92:	b0 92 3d 02 	sts	0x023D, r11
		awayscreenButtonHourUp.y = AWAYSCREEN_TOPBUTTONS_Y;
    2c96:	f0 92 3e 02 	sts	0x023E, r15
		awayscreenButtonHourUp.width = AWAYSCREEN_BUTTONS_WIDTH;
    2c9a:	00 93 3f 02 	sts	0x023F, r16
		awayscreenButtonHourUp.height = AWAYSCREEN_BUTTONS_HEIGHT;
    2c9e:	10 93 40 02 	sts	0x0240, r17
		drawUpButton(&awayscreenButtonHourUp);
    2ca2:	8d e3       	ldi	r24, 0x3D	; 61
    2ca4:	92 e0       	ldi	r25, 0x02	; 2
    2ca6:	0e 94 c1 14 	call	0x2982	; 0x2982 <drawUpButton>
		
		//Up minutes
		awayscreenButtonMinuteUp.x = AWAYSCREEN_OKCANCEL_X + AWAYSCREEN_OKCANCEL_WIDTH + AWAYSCREEN_X_DIFF + ((AWAYSCREEN_X_DIFF + AWAYSCREEN_BUTTONS_WIDTH) * 3);
    2caa:	0f 2e       	mov	r0, r31
    2cac:	f5 e6       	ldi	r31, 0x65	; 101
    2cae:	af 2e       	mov	r10, r31
    2cb0:	f0 2d       	mov	r31, r0
    2cb2:	a0 92 0d 02 	sts	0x020D, r10
		awayscreenButtonMinuteUp.y = AWAYSCREEN_TOPBUTTONS_Y;
    2cb6:	f0 92 0e 02 	sts	0x020E, r15
		awayscreenButtonMinuteUp.width = AWAYSCREEN_BUTTONS_WIDTH;
    2cba:	00 93 0f 02 	sts	0x020F, r16
		awayscreenButtonMinuteUp.height = AWAYSCREEN_BUTTONS_HEIGHT;
    2cbe:	10 93 10 02 	sts	0x0210, r17
		drawUpButton(&awayscreenButtonMinuteUp);
    2cc2:	8d e0       	ldi	r24, 0x0D	; 13
    2cc4:	92 e0       	ldi	r25, 0x02	; 2
    2cc6:	0e 94 c1 14 	call	0x2982	; 0x2982 <drawUpButton>
		
		//Then down
		//Down day
		awayscreenButtonDayDown.x = AWAYSCREEN_OKCANCEL_X + AWAYSCREEN_OKCANCEL_WIDTH + AWAYSCREEN_X_DIFF;
    2cca:	d0 92 e9 01 	sts	0x01E9, r13
		awayscreenButtonDayDown.y = AWAYSCREEN_BOTBUTTONS_Y;
    2cce:	e0 92 ea 01 	sts	0x01EA, r14
		awayscreenButtonDayDown.width = AWAYSCREEN_BUTTONS_WIDTH;
    2cd2:	00 93 eb 01 	sts	0x01EB, r16
		awayscreenButtonDayDown.height = AWAYSCREEN_BUTTONS_HEIGHT;
    2cd6:	10 93 ec 01 	sts	0x01EC, r17
		drawDownButton(&awayscreenButtonDayDown);
    2cda:	89 ee       	ldi	r24, 0xE9	; 233
    2cdc:	91 e0       	ldi	r25, 0x01	; 1
    2cde:	0e 94 e4 14 	call	0x29c8	; 0x29c8 <drawDownButton>
		
		//Down month
		awayscreenButtonMonthDown.x = AWAYSCREEN_OKCANCEL_X + AWAYSCREEN_OKCANCEL_WIDTH + AWAYSCREEN_X_DIFF + ((AWAYSCREEN_X_DIFF + AWAYSCREEN_BUTTONS_WIDTH) * 1);
    2ce2:	c0 92 e1 01 	sts	0x01E1, r12
		awayscreenButtonMonthDown.y = AWAYSCREEN_BOTBUTTONS_Y;
    2ce6:	e0 92 e2 01 	sts	0x01E2, r14
		awayscreenButtonMonthDown.width = AWAYSCREEN_BUTTONS_WIDTH;
    2cea:	00 93 e3 01 	sts	0x01E3, r16
		awayscreenButtonMonthDown.height = AWAYSCREEN_BUTTONS_HEIGHT;
    2cee:	10 93 e4 01 	sts	0x01E4, r17
		drawDownButton(&awayscreenButtonMonthDown);
    2cf2:	81 ee       	ldi	r24, 0xE1	; 225
    2cf4:	91 e0       	ldi	r25, 0x01	; 1
    2cf6:	0e 94 e4 14 	call	0x29c8	; 0x29c8 <drawDownButton>
		
		//Down hour
		awayscreenButtonHourDown.x = AWAYSCREEN_OKCANCEL_X + AWAYSCREEN_OKCANCEL_WIDTH + AWAYSCREEN_X_DIFF + ((AWAYSCREEN_X_DIFF + AWAYSCREEN_BUTTONS_WIDTH) * 2);
    2cfa:	b0 92 f6 01 	sts	0x01F6, r11
		awayscreenButtonHourDown.y = AWAYSCREEN_BOTBUTTONS_Y;
    2cfe:	e0 92 f7 01 	sts	0x01F7, r14
		awayscreenButtonHourDown.width = AWAYSCREEN_BUTTONS_WIDTH;
    2d02:	00 93 f8 01 	sts	0x01F8, r16
		awayscreenButtonHourDown.height = AWAYSCREEN_BUTTONS_HEIGHT;
    2d06:	10 93 f9 01 	sts	0x01F9, r17
		drawDownButton(&awayscreenButtonHourDown);
    2d0a:	86 ef       	ldi	r24, 0xF6	; 246
    2d0c:	91 e0       	ldi	r25, 0x01	; 1
    2d0e:	0e 94 e4 14 	call	0x29c8	; 0x29c8 <drawDownButton>
		
		//Down minutes
		awayscreenButtonMinuteDown.x = AWAYSCREEN_OKCANCEL_X + AWAYSCREEN_OKCANCEL_WIDTH + AWAYSCREEN_X_DIFF + ((AWAYSCREEN_X_DIFF + AWAYSCREEN_BUTTONS_WIDTH) * 3);
    2d12:	a0 92 29 02 	sts	0x0229, r10
		awayscreenButtonMinuteDown.y = AWAYSCREEN_BOTBUTTONS_Y;
    2d16:	e0 92 2a 02 	sts	0x022A, r14
		awayscreenButtonMinuteDown.width = AWAYSCREEN_BUTTONS_WIDTH;
    2d1a:	00 93 2b 02 	sts	0x022B, r16
		awayscreenButtonMinuteDown.height = AWAYSCREEN_BUTTONS_HEIGHT;
    2d1e:	10 93 2c 02 	sts	0x022C, r17
		drawDownButton(&awayscreenButtonMinuteDown);
    2d22:	89 e2       	ldi	r24, 0x29	; 41
    2d24:	92 e0       	ldi	r25, 0x02	; 2
    2d26:	0e 94 e4 14 	call	0x29c8	; 0x29c8 <drawDownButton>
	}		
}
    2d2a:	df 91       	pop	r29
    2d2c:	cf 91       	pop	r28
    2d2e:	1f 91       	pop	r17
    2d30:	0f 91       	pop	r16
    2d32:	ff 90       	pop	r15
    2d34:	ef 90       	pop	r14
    2d36:	df 90       	pop	r13
    2d38:	cf 90       	pop	r12
    2d3a:	bf 90       	pop	r11
    2d3c:	af 90       	pop	r10
    2d3e:	08 95       	ret

00002d40 <drawMainScreenButtons>:

//Active. 0 = none, 1 = UP, 2 = DOWN, 2 = PRESET
void drawMainScreenButtons(const uint8_t active){
    2d40:	0f 93       	push	r16
    2d42:	1f 93       	push	r17
    2d44:	18 2f       	mov	r17, r24
	if(CHECKDRAWFLAG(DRAW_BUTTONS)){
    2d46:	80 91 16 02 	lds	r24, 0x0216
    2d4a:	90 91 17 02 	lds	r25, 0x0217
    2d4e:	91 ff       	sbrs	r25, 1
    2d50:	92 c0       	rjmp	.+292    	; 0x2e76 <drawMainScreenButtons+0x136>
		RESETDRAWFLAG(DRAW_BUTTONS);
    2d52:	9d 7f       	andi	r25, 0xFD	; 253
    2d54:	90 93 17 02 	sts	0x0217, r25
    2d58:	80 93 16 02 	sts	0x0216, r24
		displayFillRect(BUTTON_UP_X, BUTTON_UP_Y, BUTTON_UP_WIDTH, BUTTON_UP_HEIGHT, WHITE);
    2d5c:	80 e5       	ldi	r24, 0x50	; 80
    2d5e:	64 e2       	ldi	r22, 0x24	; 36
    2d60:	4c e0       	ldi	r20, 0x0C	; 12
    2d62:	28 e0       	ldi	r18, 0x08	; 8
    2d64:	00 e0       	ldi	r16, 0x00	; 0
    2d66:	0e 94 f3 0c 	call	0x19e6	; 0x19e6 <displayFillRect>
		displayFillRect(BUTTON_DOWN_X, BUTTON_DOWN_Y, BUTTON_DOWN_WIDTH, BUTTON_DOWN_HEIGHT, WHITE);
    2d6a:	80 e4       	ldi	r24, 0x40	; 64
    2d6c:	64 e2       	ldi	r22, 0x24	; 36
    2d6e:	4c e0       	ldi	r20, 0x0C	; 12
    2d70:	28 e0       	ldi	r18, 0x08	; 8
    2d72:	0e 94 f3 0c 	call	0x19e6	; 0x19e6 <displayFillRect>
		displayFillRect(BUTTON_PRES_X, BUTTON_PRES_Y, BUTTON_PRES_WIDTH, BUTTON_PRES_HEIGHT, WHITE);
    2d76:	80 e6       	ldi	r24, 0x60	; 96
    2d78:	64 e2       	ldi	r22, 0x24	; 36
    2d7a:	4c e0       	ldi	r20, 0x0C	; 12
    2d7c:	28 e0       	ldi	r18, 0x08	; 8
    2d7e:	0e 94 f3 0c 	call	0x19e6	; 0x19e6 <displayFillRect>
		
		displayFillRect(BUTTON_AWAY_X, BUTTON_AWAY_Y, BUTTON_AWAY_WIDTH, BUTTON_AWAY_HEIGHT, WHITE);
    2d82:	80 e7       	ldi	r24, 0x70	; 112
    2d84:	64 e2       	ldi	r22, 0x24	; 36
    2d86:	4c e0       	ldi	r20, 0x0C	; 12
    2d88:	28 e0       	ldi	r18, 0x08	; 8
    2d8a:	0e 94 f3 0c 	call	0x19e6	; 0x19e6 <displayFillRect>
	
		displayDrawRect(BUTTON_UP_X, BUTTON_UP_Y, BUTTON_UP_WIDTH, BUTTON_UP_HEIGHT, BLACK);
    2d8e:	80 e5       	ldi	r24, 0x50	; 80
    2d90:	64 e2       	ldi	r22, 0x24	; 36
    2d92:	4c e0       	ldi	r20, 0x0C	; 12
    2d94:	28 e0       	ldi	r18, 0x08	; 8
    2d96:	0f ef       	ldi	r16, 0xFF	; 255
    2d98:	0e 94 5b 0e 	call	0x1cb6	; 0x1cb6 <displayDrawRect>
		displayDrawRect(BUTTON_DOWN_X, BUTTON_DOWN_Y, BUTTON_DOWN_WIDTH, BUTTON_DOWN_HEIGHT, BLACK);
    2d9c:	80 e4       	ldi	r24, 0x40	; 64
    2d9e:	64 e2       	ldi	r22, 0x24	; 36
    2da0:	4c e0       	ldi	r20, 0x0C	; 12
    2da2:	28 e0       	ldi	r18, 0x08	; 8
    2da4:	0e 94 5b 0e 	call	0x1cb6	; 0x1cb6 <displayDrawRect>
		displayDrawRect(BUTTON_PRES_X, BUTTON_PRES_Y, BUTTON_PRES_WIDTH, BUTTON_PRES_HEIGHT, BLACK);
    2da8:	80 e6       	ldi	r24, 0x60	; 96
    2daa:	64 e2       	ldi	r22, 0x24	; 36
    2dac:	4c e0       	ldi	r20, 0x0C	; 12
    2dae:	28 e0       	ldi	r18, 0x08	; 8
    2db0:	0e 94 5b 0e 	call	0x1cb6	; 0x1cb6 <displayDrawRect>
		
		displayDrawRect(BUTTON_AWAY_X, BUTTON_AWAY_Y, BUTTON_AWAY_WIDTH, BUTTON_AWAY_HEIGHT, BLACK);
    2db4:	80 e7       	ldi	r24, 0x70	; 112
    2db6:	64 e2       	ldi	r22, 0x24	; 36
    2db8:	4c e0       	ldi	r20, 0x0C	; 12
    2dba:	28 e0       	ldi	r18, 0x08	; 8
    2dbc:	0e 94 5b 0e 	call	0x1cb6	; 0x1cb6 <displayDrawRect>
	
		//Draw the minus
		uint8_t x1 = BUTTON_DOWN_X+4;
		uint8_t x2 = x1 + 4;
		uint8_t y = BUTTON_DOWN_Y+4;
		displayDrawLine(x1,y,x2,y,BLACK);
    2dc0:	84 e4       	ldi	r24, 0x44	; 68
    2dc2:	68 e2       	ldi	r22, 0x28	; 40
    2dc4:	48 e4       	ldi	r20, 0x48	; 72
    2dc6:	28 e2       	ldi	r18, 0x28	; 40
    2dc8:	0e 94 83 0e 	call	0x1d06	; 0x1d06 <displayDrawLine>
		//Draw the plus
		x1 = BUTTON_UP_X+4;
		x2 = x1 + 4;
		uint8_t y1 = BUTTON_UP_Y+4;
	
		displayDrawLine(x1,y1,x2,y1,BLACK);
    2dcc:	84 e5       	ldi	r24, 0x54	; 84
    2dce:	68 e2       	ldi	r22, 0x28	; 40
    2dd0:	48 e5       	ldi	r20, 0x58	; 88
    2dd2:	28 e2       	ldi	r18, 0x28	; 40
    2dd4:	0e 94 83 0e 	call	0x1d06	; 0x1d06 <displayDrawLine>
	
		x1 = BUTTON_UP_X+6;
		y1 = BUTTON_UP_Y+2;
		uint8_t y2 = y1 + 4;
	
		displayDrawLine(x1,y1,x1,y2,BLACK);
    2dd8:	86 e5       	ldi	r24, 0x56	; 86
    2dda:	66 e2       	ldi	r22, 0x26	; 38
    2ddc:	46 e5       	ldi	r20, 0x56	; 86
    2dde:	2a e2       	ldi	r18, 0x2A	; 42
    2de0:	0e 94 83 0e 	call	0x1d06	; 0x1d06 <displayDrawLine>
	
	
		//And the arrow
		if(CHECKFLAG(FLAG_DRAWER)){
    2de4:	80 91 36 02 	lds	r24, 0x0236
    2de8:	85 ff       	sbrs	r24, 5
    2dea:	15 c0       	rjmp	.+42     	; 0x2e16 <drawMainScreenButtons+0xd6>
			displayFillRect(BUTTON_PRES_X+1, BUTTON_PRES_Y + BUTTON_PRES_HEIGHT-1,BUTTON_PRES_WIDTH-2, 2,WHITE);
    2dec:	81 e6       	ldi	r24, 0x61	; 97
    2dee:	6b e2       	ldi	r22, 0x2B	; 43
    2df0:	4a e0       	ldi	r20, 0x0A	; 10
    2df2:	22 e0       	ldi	r18, 0x02	; 2
    2df4:	00 e0       	ldi	r16, 0x00	; 0
    2df6:	0e 94 f3 0c 	call	0x19e6	; 0x19e6 <displayFillRect>
			x1 = BUTTON_PRES_X + 4;
			x2 = BUTTON_PRES_X + 6;
			y1 = BUTTON_PRES_Y + 5;
			y2 = BUTTON_PRES_Y + 3;
			displayDrawLine(x1,y1,x2,y2,BLACK);
    2dfa:	84 e6       	ldi	r24, 0x64	; 100
    2dfc:	69 e2       	ldi	r22, 0x29	; 41
    2dfe:	46 e6       	ldi	r20, 0x66	; 102
    2e00:	27 e2       	ldi	r18, 0x27	; 39
    2e02:	0f ef       	ldi	r16, 0xFF	; 255
    2e04:	0e 94 83 0e 	call	0x1d06	; 0x1d06 <displayDrawLine>
	
			x1 = BUTTON_PRES_X + 8;
			displayDrawLine(x1,y1,x2,y2,BLACK);
    2e08:	88 e6       	ldi	r24, 0x68	; 104
    2e0a:	69 e2       	ldi	r22, 0x29	; 41
    2e0c:	46 e6       	ldi	r20, 0x66	; 102
    2e0e:	27 e2       	ldi	r18, 0x27	; 39
    2e10:	0e 94 83 0e 	call	0x1d06	; 0x1d06 <displayDrawLine>
    2e14:	0d c0       	rjmp	.+26     	; 0x2e30 <drawMainScreenButtons+0xf0>
		}else{
			x1 = BUTTON_PRES_X + 4;
			x2 = BUTTON_PRES_X + 6;
			y1 = BUTTON_PRES_Y + 3;
			y2 = BUTTON_PRES_Y + 5;
			displayDrawLine(x1,y1,x2,y2,BLACK);
    2e16:	84 e6       	ldi	r24, 0x64	; 100
    2e18:	67 e2       	ldi	r22, 0x27	; 39
    2e1a:	46 e6       	ldi	r20, 0x66	; 102
    2e1c:	29 e2       	ldi	r18, 0x29	; 41
    2e1e:	0f ef       	ldi	r16, 0xFF	; 255
    2e20:	0e 94 83 0e 	call	0x1d06	; 0x1d06 <displayDrawLine>
	
			x1 = BUTTON_PRES_X + 8;
			displayDrawLine(x1,y1,x2,y2,BLACK);
    2e24:	88 e6       	ldi	r24, 0x68	; 104
    2e26:	67 e2       	ldi	r22, 0x27	; 39
    2e28:	46 e6       	ldi	r20, 0x66	; 102
    2e2a:	29 e2       	ldi	r18, 0x29	; 41
    2e2c:	0e 94 83 0e 	call	0x1d06	; 0x1d06 <displayDrawLine>
		}	
	
		//displayGotoXY(BUTTON_DOWN_X+((BUTTON_DOWN_WIDTH-8)/2)+1,BUTTON_DOWN_Y+((BUTTON_DOWN_HEIGHT-10)/2));
		//displayPutChar('-');
	
		if(active == 1){
    2e30:	11 30       	cpi	r17, 0x01	; 1
    2e32:	39 f4       	brne	.+14     	; 0x2e42 <drawMainScreenButtons+0x102>
			displayInvertRect(BUTTON_UP_X, BUTTON_UP_Y, BUTTON_UP_WIDTH, BUTTON_UP_HEIGHT);
    2e34:	80 e5       	ldi	r24, 0x50	; 80
    2e36:	64 e2       	ldi	r22, 0x24	; 36
    2e38:	4c e0       	ldi	r20, 0x0C	; 12
    2e3a:	28 e0       	ldi	r18, 0x08	; 8
    2e3c:	0e 94 55 0c 	call	0x18aa	; 0x18aa <displayInvertRect>
    2e40:	1a c0       	rjmp	.+52     	; 0x2e76 <drawMainScreenButtons+0x136>
		}else if(active == 2){
    2e42:	12 30       	cpi	r17, 0x02	; 2
    2e44:	39 f4       	brne	.+14     	; 0x2e54 <drawMainScreenButtons+0x114>
			displayInvertRect(BUTTON_DOWN_X, BUTTON_DOWN_Y, BUTTON_DOWN_WIDTH, BUTTON_DOWN_HEIGHT);
    2e46:	80 e4       	ldi	r24, 0x40	; 64
    2e48:	64 e2       	ldi	r22, 0x24	; 36
    2e4a:	4c e0       	ldi	r20, 0x0C	; 12
    2e4c:	28 e0       	ldi	r18, 0x08	; 8
    2e4e:	0e 94 55 0c 	call	0x18aa	; 0x18aa <displayInvertRect>
    2e52:	11 c0       	rjmp	.+34     	; 0x2e76 <drawMainScreenButtons+0x136>
		}else if(active == 3){
    2e54:	13 30       	cpi	r17, 0x03	; 3
    2e56:	39 f4       	brne	.+14     	; 0x2e66 <drawMainScreenButtons+0x126>
			displayInvertRect(BUTTON_PRES_X, BUTTON_PRES_Y, BUTTON_PRES_WIDTH, BUTTON_PRES_HEIGHT);
    2e58:	80 e6       	ldi	r24, 0x60	; 96
    2e5a:	64 e2       	ldi	r22, 0x24	; 36
    2e5c:	4c e0       	ldi	r20, 0x0C	; 12
    2e5e:	28 e0       	ldi	r18, 0x08	; 8
    2e60:	0e 94 55 0c 	call	0x18aa	; 0x18aa <displayInvertRect>
    2e64:	08 c0       	rjmp	.+16     	; 0x2e76 <drawMainScreenButtons+0x136>
		}else if(active == 4){
    2e66:	14 30       	cpi	r17, 0x04	; 4
    2e68:	31 f4       	brne	.+12     	; 0x2e76 <drawMainScreenButtons+0x136>
			displayInvertRect(BUTTON_AWAY_X, BUTTON_AWAY_Y, BUTTON_AWAY_WIDTH, BUTTON_AWAY_HEIGHT);
    2e6a:	80 e7       	ldi	r24, 0x70	; 112
    2e6c:	64 e2       	ldi	r22, 0x24	; 36
    2e6e:	4c e0       	ldi	r20, 0x0C	; 12
    2e70:	28 e0       	ldi	r18, 0x08	; 8
    2e72:	0e 94 55 0c 	call	0x18aa	; 0x18aa <displayInvertRect>
		}
	}		
}
    2e76:	1f 91       	pop	r17
    2e78:	0f 91       	pop	r16
    2e7a:	08 95       	ret

00002e7c <drawValues>:

void drawValues(){
    2e7c:	ef 92       	push	r14
    2e7e:	ff 92       	push	r15
    2e80:	0f 93       	push	r16
    2e82:	1f 93       	push	r17
	if(CHECKDRAWFLAG(DRAW_INTERN)){
    2e84:	80 91 16 02 	lds	r24, 0x0216
    2e88:	90 91 17 02 	lds	r25, 0x0217
    2e8c:	93 ff       	sbrs	r25, 3
    2e8e:	84 c0       	rjmp	.+264    	; 0x2f98 <drawValues+0x11c>
		RESETDRAWFLAG(DRAW_INTERN);
    2e90:	97 7f       	andi	r25, 0xF7	; 247
    2e92:	90 93 17 02 	sts	0x0217, r25
    2e96:	80 93 16 02 	sts	0x0216, r24
		displayFillRect(INTERN_X, INTERN_Y, 50, 20, WHITE);
    2e9a:	8c e0       	ldi	r24, 0x0C	; 12
    2e9c:	6f e0       	ldi	r22, 0x0F	; 15
    2e9e:	42 e3       	ldi	r20, 0x32	; 50
    2ea0:	24 e1       	ldi	r18, 0x14	; 20
    2ea2:	00 e0       	ldi	r16, 0x00	; 0
    2ea4:	0e 94 f3 0c 	call	0x19e6	; 0x19e6 <displayFillRect>
		displayGotoXY(INTERN_X, INTERN_Y);
    2ea8:	8c e0       	ldi	r24, 0x0C	; 12
    2eaa:	6f e0       	ldi	r22, 0x0F	; 15
    2eac:	0e 94 4d 09 	call	0x129a	; 0x129a <displayGotoXY>
		displaySelectFont(LARGEVALUEFONT, displayReadFontData, BLACK);
    2eb0:	88 e9       	ldi	r24, 0x98	; 152
    2eb2:	90 e0       	ldi	r25, 0x00	; 0
    2eb4:	6d e8       	ldi	r22, 0x8D	; 141
    2eb6:	78 e0       	ldi	r23, 0x08	; 8
    2eb8:	4f ef       	ldi	r20, 0xFF	; 255
    2eba:	0e 94 90 08 	call	0x1120	; 0x1120 <displaySelectFont>
	
		if(tempIntern.lastReading >= 10){
    2ebe:	e0 90 ca 01 	lds	r14, 0x01CA
    2ec2:	f0 90 cb 01 	lds	r15, 0x01CB
    2ec6:	00 91 cc 01 	lds	r16, 0x01CC
    2eca:	10 91 cd 01 	lds	r17, 0x01CD
    2ece:	c8 01       	movw	r24, r16
    2ed0:	b7 01       	movw	r22, r14
    2ed2:	20 e0       	ldi	r18, 0x00	; 0
    2ed4:	30 e0       	ldi	r19, 0x00	; 0
    2ed6:	40 e2       	ldi	r20, 0x20	; 32
    2ed8:	51 e4       	ldi	r21, 0x41	; 65
    2eda:	0e 94 2c 25 	call	0x4a58	; 0x4a58 <__gesf2>
    2ede:	88 23       	and	r24, r24
    2ee0:	a4 f0       	brlt	.+40     	; 0x2f0a <drawValues+0x8e>
			displayPutChar((tempIntern.lastReading / 10) + 48);
    2ee2:	c8 01       	movw	r24, r16
    2ee4:	b7 01       	movw	r22, r14
    2ee6:	20 e0       	ldi	r18, 0x00	; 0
    2ee8:	30 e0       	ldi	r19, 0x00	; 0
    2eea:	40 e2       	ldi	r20, 0x20	; 32
    2eec:	51 e4       	ldi	r21, 0x41	; 65
    2eee:	0e 94 e6 23 	call	0x47cc	; 0x47cc <__divsf3>
    2ef2:	20 e0       	ldi	r18, 0x00	; 0
    2ef4:	30 e0       	ldi	r19, 0x00	; 0
    2ef6:	40 e4       	ldi	r20, 0x40	; 64
    2ef8:	52 e4       	ldi	r21, 0x42	; 66
    2efa:	0e 94 7e 23 	call	0x46fc	; 0x46fc <__addsf3>
    2efe:	0e 94 4e 24 	call	0x489c	; 0x489c <__fixunssfsi>
    2f02:	86 2f       	mov	r24, r22
    2f04:	0e 94 7e 0a 	call	0x14fc	; 0x14fc <displayPutChar>
    2f08:	03 c0       	rjmp	.+6      	; 0x2f10 <drawValues+0x94>
		}else{
			displayPutChar('0');
    2f0a:	80 e3       	ldi	r24, 0x30	; 48
    2f0c:	0e 94 7e 0a 	call	0x14fc	; 0x14fc <displayPutChar>
		}
		displayPutChar(((uint8_t)tempIntern.lastReading % 10) + 48);
    2f10:	60 91 ca 01 	lds	r22, 0x01CA
    2f14:	70 91 cb 01 	lds	r23, 0x01CB
    2f18:	80 91 cc 01 	lds	r24, 0x01CC
    2f1c:	90 91 cd 01 	lds	r25, 0x01CD
    2f20:	0e 94 4e 24 	call	0x489c	; 0x489c <__fixunssfsi>
    2f24:	86 2f       	mov	r24, r22
    2f26:	1a e0       	ldi	r17, 0x0A	; 10
    2f28:	61 2f       	mov	r22, r17
    2f2a:	0e 94 93 25 	call	0x4b26	; 0x4b26 <__udivmodqi4>
    2f2e:	89 2f       	mov	r24, r25
    2f30:	80 5d       	subi	r24, 0xD0	; 208
    2f32:	0e 94 7e 0a 	call	0x14fc	; 0x14fc <displayPutChar>
		displayPutChar('.');
    2f36:	8e e2       	ldi	r24, 0x2E	; 46
    2f38:	0e 94 7e 0a 	call	0x14fc	; 0x14fc <displayPutChar>
		displayPutChar(((uint8_t)(tempIntern.lastReading * 10) % 10) + 48);
    2f3c:	60 91 ca 01 	lds	r22, 0x01CA
    2f40:	70 91 cb 01 	lds	r23, 0x01CB
    2f44:	80 91 cc 01 	lds	r24, 0x01CC
    2f48:	90 91 cd 01 	lds	r25, 0x01CD
    2f4c:	20 e0       	ldi	r18, 0x00	; 0
    2f4e:	30 e0       	ldi	r19, 0x00	; 0
    2f50:	40 e2       	ldi	r20, 0x20	; 32
    2f52:	51 e4       	ldi	r21, 0x41	; 65
    2f54:	0e 94 30 25 	call	0x4a60	; 0x4a60 <__mulsf3>
    2f58:	0e 94 4e 24 	call	0x489c	; 0x489c <__fixunssfsi>
    2f5c:	86 2f       	mov	r24, r22
    2f5e:	61 2f       	mov	r22, r17
    2f60:	0e 94 93 25 	call	0x4b26	; 0x4b26 <__udivmodqi4>
    2f64:	89 2f       	mov	r24, r25
    2f66:	80 5d       	subi	r24, 0xD0	; 208
    2f68:	0e 94 7e 0a 	call	0x14fc	; 0x14fc <displayPutChar>
	
		//Draw degree
		displayDrawCircle(INTERN_X+47,INTERN_Y, 3, BLACK)
    2f6c:	88 e3       	ldi	r24, 0x38	; 56
    2f6e:	6c e0       	ldi	r22, 0x0C	; 12
    2f70:	46 e0       	ldi	r20, 0x06	; 6
    2f72:	26 e0       	ldi	r18, 0x06	; 6
    2f74:	03 e0       	ldi	r16, 0x03	; 3
    2f76:	ee 24       	eor	r14, r14
    2f78:	ea 94       	dec	r14
    2f7a:	0e 94 84 0d 	call	0x1b08	; 0x1b08 <displayDrawRoundRect>
		displayDrawCircle(INTERN_X+47,INTERN_Y, 2, BLACK)
    2f7e:	89 e3       	ldi	r24, 0x39	; 57
    2f80:	6d e0       	ldi	r22, 0x0D	; 13
    2f82:	44 e0       	ldi	r20, 0x04	; 4
    2f84:	24 e0       	ldi	r18, 0x04	; 4
    2f86:	02 e0       	ldi	r16, 0x02	; 2
    2f88:	0e 94 84 0d 	call	0x1b08	; 0x1b08 <displayDrawRoundRect>
		
		//Draw the house
		loadImage(HOUSE_IN_X, HOUSE_IN_Y, internalTemp);
    2f8c:	82 e0       	ldi	r24, 0x02	; 2
    2f8e:	68 e1       	ldi	r22, 0x18	; 24
    2f90:	46 e7       	ldi	r20, 0x76	; 118
    2f92:	53 e0       	ldi	r21, 0x03	; 3
    2f94:	0e 94 7c 12 	call	0x24f8	; 0x24f8 <loadImage>
	}
	
	if(CHECKDRAWFLAG(DRAW_EXTERN)){
    2f98:	80 91 16 02 	lds	r24, 0x0216
    2f9c:	90 91 17 02 	lds	r25, 0x0217
    2fa0:	94 ff       	sbrs	r25, 4
    2fa2:	93 c0       	rjmp	.+294    	; 0x30ca <drawValues+0x24e>
		RESETDRAWFLAG(DRAW_EXTERN);
    2fa4:	9f 7e       	andi	r25, 0xEF	; 239
    2fa6:	90 93 17 02 	sts	0x0217, r25
    2faa:	80 93 16 02 	sts	0x0216, r24
		displayFillRect(EXTERN_X, EXTERN_Y, 30, 16, WHITE);
    2fae:	8c e0       	ldi	r24, 0x0C	; 12
    2fb0:	6c e2       	ldi	r22, 0x2C	; 44
    2fb2:	4e e1       	ldi	r20, 0x1E	; 30
    2fb4:	20 e1       	ldi	r18, 0x10	; 16
    2fb6:	00 e0       	ldi	r16, 0x00	; 0
    2fb8:	0e 94 f3 0c 	call	0x19e6	; 0x19e6 <displayFillRect>
		displayGotoXY(EXTERN_X, EXTERN_Y);
    2fbc:	8c e0       	ldi	r24, 0x0C	; 12
    2fbe:	6c e2       	ldi	r22, 0x2C	; 44
    2fc0:	0e 94 4d 09 	call	0x129a	; 0x129a <displayGotoXY>
		displaySelectFont(EXTERN_FONT, displayReadFontData, BLACK);
    2fc4:	80 e8       	ldi	r24, 0x80	; 128
    2fc6:	93 e0       	ldi	r25, 0x03	; 3
    2fc8:	6d e8       	ldi	r22, 0x8D	; 141
    2fca:	78 e0       	ldi	r23, 0x08	; 8
    2fcc:	4f ef       	ldi	r20, 0xFF	; 255
    2fce:	0e 94 90 08 	call	0x1120	; 0x1120 <displaySelectFont>
	
		if(tempExtern.lastReading < 0){
    2fd2:	60 91 fe 01 	lds	r22, 0x01FE
    2fd6:	70 91 ff 01 	lds	r23, 0x01FF
    2fda:	80 91 00 02 	lds	r24, 0x0200
    2fde:	90 91 01 02 	lds	r25, 0x0201
    2fe2:	20 e0       	ldi	r18, 0x00	; 0
    2fe4:	30 e0       	ldi	r19, 0x00	; 0
    2fe6:	a9 01       	movw	r20, r18
    2fe8:	0e 94 e2 23 	call	0x47c4	; 0x47c4 <__cmpsf2>
    2fec:	88 23       	and	r24, r24
    2fee:	24 f4       	brge	.+8      	; 0x2ff8 <drawValues+0x17c>
			displayPutChar('-');
    2ff0:	8d e2       	ldi	r24, 0x2D	; 45
    2ff2:	0e 94 7e 0a 	call	0x14fc	; 0x14fc <displayPutChar>
    2ff6:	03 c0       	rjmp	.+6      	; 0x2ffe <drawValues+0x182>
		}else{
			displayPutChar('+');
    2ff8:	8b e2       	ldi	r24, 0x2B	; 43
    2ffa:	0e 94 7e 0a 	call	0x14fc	; 0x14fc <displayPutChar>
		}
		if(tempExtern.lastReading >= 10){
    2ffe:	e0 90 fe 01 	lds	r14, 0x01FE
    3002:	f0 90 ff 01 	lds	r15, 0x01FF
    3006:	00 91 00 02 	lds	r16, 0x0200
    300a:	10 91 01 02 	lds	r17, 0x0201
    300e:	c8 01       	movw	r24, r16
    3010:	b7 01       	movw	r22, r14
    3012:	20 e0       	ldi	r18, 0x00	; 0
    3014:	30 e0       	ldi	r19, 0x00	; 0
    3016:	40 e2       	ldi	r20, 0x20	; 32
    3018:	51 e4       	ldi	r21, 0x41	; 65
    301a:	0e 94 2c 25 	call	0x4a58	; 0x4a58 <__gesf2>
    301e:	88 23       	and	r24, r24
    3020:	a4 f0       	brlt	.+40     	; 0x304a <drawValues+0x1ce>
			displayPutChar((tempExtern.lastReading / 10) + 48);
    3022:	c8 01       	movw	r24, r16
    3024:	b7 01       	movw	r22, r14
    3026:	20 e0       	ldi	r18, 0x00	; 0
    3028:	30 e0       	ldi	r19, 0x00	; 0
    302a:	40 e2       	ldi	r20, 0x20	; 32
    302c:	51 e4       	ldi	r21, 0x41	; 65
    302e:	0e 94 e6 23 	call	0x47cc	; 0x47cc <__divsf3>
    3032:	20 e0       	ldi	r18, 0x00	; 0
    3034:	30 e0       	ldi	r19, 0x00	; 0
    3036:	40 e4       	ldi	r20, 0x40	; 64
    3038:	52 e4       	ldi	r21, 0x42	; 66
    303a:	0e 94 7e 23 	call	0x46fc	; 0x46fc <__addsf3>
    303e:	0e 94 4e 24 	call	0x489c	; 0x489c <__fixunssfsi>
    3042:	86 2f       	mov	r24, r22
    3044:	0e 94 7e 0a 	call	0x14fc	; 0x14fc <displayPutChar>
    3048:	03 c0       	rjmp	.+6      	; 0x3050 <drawValues+0x1d4>
		}else{
			displayPutChar('0');
    304a:	80 e3       	ldi	r24, 0x30	; 48
    304c:	0e 94 7e 0a 	call	0x14fc	; 0x14fc <displayPutChar>
		}
		displayPutChar(((uint8_t)tempExtern.lastReading % 10) + 48);
    3050:	60 91 fe 01 	lds	r22, 0x01FE
    3054:	70 91 ff 01 	lds	r23, 0x01FF
    3058:	80 91 00 02 	lds	r24, 0x0200
    305c:	90 91 01 02 	lds	r25, 0x0201
    3060:	0e 94 4e 24 	call	0x489c	; 0x489c <__fixunssfsi>
    3064:	86 2f       	mov	r24, r22
    3066:	1a e0       	ldi	r17, 0x0A	; 10
    3068:	61 2f       	mov	r22, r17
    306a:	0e 94 93 25 	call	0x4b26	; 0x4b26 <__udivmodqi4>
    306e:	89 2f       	mov	r24, r25
    3070:	80 5d       	subi	r24, 0xD0	; 208
    3072:	0e 94 7e 0a 	call	0x14fc	; 0x14fc <displayPutChar>
		displayPutChar('.');
    3076:	8e e2       	ldi	r24, 0x2E	; 46
    3078:	0e 94 7e 0a 	call	0x14fc	; 0x14fc <displayPutChar>
		displayPutChar(((uint8_t)(tempExtern.lastReading * 10) % 10) + 48);
    307c:	60 91 fe 01 	lds	r22, 0x01FE
    3080:	70 91 ff 01 	lds	r23, 0x01FF
    3084:	80 91 00 02 	lds	r24, 0x0200
    3088:	90 91 01 02 	lds	r25, 0x0201
    308c:	20 e0       	ldi	r18, 0x00	; 0
    308e:	30 e0       	ldi	r19, 0x00	; 0
    3090:	40 e2       	ldi	r20, 0x20	; 32
    3092:	51 e4       	ldi	r21, 0x41	; 65
    3094:	0e 94 30 25 	call	0x4a60	; 0x4a60 <__mulsf3>
    3098:	0e 94 4e 24 	call	0x489c	; 0x489c <__fixunssfsi>
    309c:	86 2f       	mov	r24, r22
    309e:	61 2f       	mov	r22, r17
    30a0:	0e 94 93 25 	call	0x4b26	; 0x4b26 <__udivmodqi4>
    30a4:	89 2f       	mov	r24, r25
    30a6:	80 5d       	subi	r24, 0xD0	; 208
    30a8:	0e 94 7e 0a 	call	0x14fc	; 0x14fc <displayPutChar>
	
		//Draw degree
		displayDrawCircle(EXTERN_X+35,EXTERN_Y, 2, BLACK)
    30ac:	8d e2       	ldi	r24, 0x2D	; 45
    30ae:	6a e2       	ldi	r22, 0x2A	; 42
    30b0:	44 e0       	ldi	r20, 0x04	; 4
    30b2:	24 e0       	ldi	r18, 0x04	; 4
    30b4:	02 e0       	ldi	r16, 0x02	; 2
    30b6:	ee 24       	eor	r14, r14
    30b8:	ea 94       	dec	r14
    30ba:	0e 94 84 0d 	call	0x1b08	; 0x1b08 <displayDrawRoundRect>
		
		//Draw the house
		loadImage(HOUSE_EX_X, HOUSE_EX_Y, externalTemp);
    30be:	82 e0       	ldi	r24, 0x02	; 2
    30c0:	6f e2       	ldi	r22, 0x2F	; 47
    30c2:	4c e8       	ldi	r20, 0x8C	; 140
    30c4:	58 e0       	ldi	r21, 0x08	; 8
    30c6:	0e 94 7c 12 	call	0x24f8	; 0x24f8 <loadImage>
	}
	
	if(CHECKDRAWFLAG(DRAW_SET)){
    30ca:	80 91 16 02 	lds	r24, 0x0216
    30ce:	90 91 17 02 	lds	r25, 0x0217
    30d2:	90 ff       	sbrs	r25, 0
    30d4:	67 c0       	rjmp	.+206    	; 0x31a4 <drawValues+0x328>
		RESETDRAWFLAG(DRAW_SET);
    30d6:	9e 7f       	andi	r25, 0xFE	; 254
    30d8:	90 93 17 02 	sts	0x0217, r25
    30dc:	80 93 16 02 	sts	0x0216, r24
		//And the set temperature
		displaySelectFont(SMALLVALUEFONT,displayReadFontData,BLACK);
    30e0:	80 e8       	ldi	r24, 0x80	; 128
    30e2:	93 e0       	ldi	r25, 0x03	; 3
    30e4:	6d e8       	ldi	r22, 0x8D	; 141
    30e6:	78 e0       	ldi	r23, 0x08	; 8
    30e8:	4f ef       	ldi	r20, 0xFF	; 255
    30ea:	0e 94 90 08 	call	0x1120	; 0x1120 <displaySelectFont>
		//uint8_t fWidth = displayStringWidth(setTempStr);
		displayFillRect(SET_X, SET_Y, 24, UBUNTU_BOLD_14_HEIGHT, WHITE);
    30ee:	82 e4       	ldi	r24, 0x42	; 66
    30f0:	64 e1       	ldi	r22, 0x14	; 20
    30f2:	48 e1       	ldi	r20, 0x18	; 24
    30f4:	2e e0       	ldi	r18, 0x0E	; 14
    30f6:	00 e0       	ldi	r16, 0x00	; 0
    30f8:	0e 94 f3 0c 	call	0x19e6	; 0x19e6 <displayFillRect>
	
		displayGotoXY(SET_X, SET_Y);
    30fc:	82 e4       	ldi	r24, 0x42	; 66
    30fe:	64 e1       	ldi	r22, 0x14	; 20
    3100:	0e 94 4d 09 	call	0x129a	; 0x129a <displayGotoXY>
		displayPutChar((setTemp / 10) + 48);
    3104:	60 91 d9 01 	lds	r22, 0x01D9
    3108:	70 91 da 01 	lds	r23, 0x01DA
    310c:	80 91 db 01 	lds	r24, 0x01DB
    3110:	90 91 dc 01 	lds	r25, 0x01DC
    3114:	20 e0       	ldi	r18, 0x00	; 0
    3116:	30 e0       	ldi	r19, 0x00	; 0
    3118:	40 e2       	ldi	r20, 0x20	; 32
    311a:	51 e4       	ldi	r21, 0x41	; 65
    311c:	0e 94 e6 23 	call	0x47cc	; 0x47cc <__divsf3>
    3120:	20 e0       	ldi	r18, 0x00	; 0
    3122:	30 e0       	ldi	r19, 0x00	; 0
    3124:	40 e4       	ldi	r20, 0x40	; 64
    3126:	52 e4       	ldi	r21, 0x42	; 66
    3128:	0e 94 7e 23 	call	0x46fc	; 0x46fc <__addsf3>
    312c:	0e 94 4e 24 	call	0x489c	; 0x489c <__fixunssfsi>
    3130:	86 2f       	mov	r24, r22
    3132:	0e 94 7e 0a 	call	0x14fc	; 0x14fc <displayPutChar>
		displayPutChar(((uint8_t)setTemp % 10) + 48);
    3136:	60 91 d9 01 	lds	r22, 0x01D9
    313a:	70 91 da 01 	lds	r23, 0x01DA
    313e:	80 91 db 01 	lds	r24, 0x01DB
    3142:	90 91 dc 01 	lds	r25, 0x01DC
    3146:	0e 94 4e 24 	call	0x489c	; 0x489c <__fixunssfsi>
    314a:	86 2f       	mov	r24, r22
    314c:	1a e0       	ldi	r17, 0x0A	; 10
    314e:	61 2f       	mov	r22, r17
    3150:	0e 94 93 25 	call	0x4b26	; 0x4b26 <__udivmodqi4>
    3154:	89 2f       	mov	r24, r25
    3156:	80 5d       	subi	r24, 0xD0	; 208
    3158:	0e 94 7e 0a 	call	0x14fc	; 0x14fc <displayPutChar>
		displayPutChar('.');
    315c:	8e e2       	ldi	r24, 0x2E	; 46
    315e:	0e 94 7e 0a 	call	0x14fc	; 0x14fc <displayPutChar>
		displayPutChar(((uint8_t)(setTemp * 10) % 10) + 48);
    3162:	60 91 d9 01 	lds	r22, 0x01D9
    3166:	70 91 da 01 	lds	r23, 0x01DA
    316a:	80 91 db 01 	lds	r24, 0x01DB
    316e:	90 91 dc 01 	lds	r25, 0x01DC
    3172:	20 e0       	ldi	r18, 0x00	; 0
    3174:	30 e0       	ldi	r19, 0x00	; 0
    3176:	40 e2       	ldi	r20, 0x20	; 32
    3178:	51 e4       	ldi	r21, 0x41	; 65
    317a:	0e 94 30 25 	call	0x4a60	; 0x4a60 <__mulsf3>
    317e:	0e 94 4e 24 	call	0x489c	; 0x489c <__fixunssfsi>
    3182:	86 2f       	mov	r24, r22
    3184:	61 2f       	mov	r22, r17
    3186:	0e 94 93 25 	call	0x4b26	; 0x4b26 <__udivmodqi4>
    318a:	89 2f       	mov	r24, r25
    318c:	80 5d       	subi	r24, 0xD0	; 208
    318e:	0e 94 7e 0a 	call	0x14fc	; 0x14fc <displayPutChar>
	
		//Draw degree
		displayDrawCircle(SET_X+28,SET_Y, 2, BLACK)
    3192:	8c e5       	ldi	r24, 0x5C	; 92
    3194:	62 e1       	ldi	r22, 0x12	; 18
    3196:	44 e0       	ldi	r20, 0x04	; 4
    3198:	24 e0       	ldi	r18, 0x04	; 4
    319a:	02 e0       	ldi	r16, 0x02	; 2
    319c:	ee 24       	eor	r14, r14
    319e:	ea 94       	dec	r14
    31a0:	0e 94 84 0d 	call	0x1b08	; 0x1b08 <displayDrawRoundRect>
		//displayDrawRoundRect(DISPLAY_SCREEN_WIDTH/2,23,35,20,ROUNDNESS,BLACK);
	}	
}
    31a4:	1f 91       	pop	r17
    31a6:	0f 91       	pop	r16
    31a8:	ff 90       	pop	r15
    31aa:	ef 90       	pop	r14
    31ac:	08 95       	ret

000031ae <drawPresetDrawer>:

/*
 * PRESET DRAWER
 */
void drawPresetDrawer(void){
    31ae:	0f 93       	push	r16
	if(CHECKDRAWFLAG(DRAW_DRAWER)){
    31b0:	80 91 16 02 	lds	r24, 0x0216
    31b4:	90 91 17 02 	lds	r25, 0x0217
    31b8:	81 ff       	sbrs	r24, 1
    31ba:	3a c0       	rjmp	.+116    	; 0x3230 <drawPresetDrawer+0x82>
		RESETDRAWFLAG(DRAW_DRAWER);
    31bc:	8d 7f       	andi	r24, 0xFD	; 253
    31be:	90 93 17 02 	sts	0x0217, r25
    31c2:	80 93 16 02 	sts	0x0216, r24
		displayFillRect(BUTTON_PRES_X - 32, BUTTON_PRES_Y + BUTTON_PRES_HEIGHT + 1,BUTTON_PRES_WIDTH + 32, 12,WHITE);
    31c6:	80 e4       	ldi	r24, 0x40	; 64
    31c8:	6d e2       	ldi	r22, 0x2D	; 45
    31ca:	4c e2       	ldi	r20, 0x2C	; 44
    31cc:	2c e0       	ldi	r18, 0x0C	; 12
    31ce:	00 e0       	ldi	r16, 0x00	; 0
    31d0:	0e 94 f3 0c 	call	0x19e6	; 0x19e6 <displayFillRect>
		displayDrawRect(BUTTON_PRES_X - 32, BUTTON_PRES_Y + BUTTON_PRES_HEIGHT + 1,BUTTON_PRES_WIDTH + 32, 12,BLACK);
    31d4:	80 e4       	ldi	r24, 0x40	; 64
    31d6:	6d e2       	ldi	r22, 0x2D	; 45
    31d8:	4c e2       	ldi	r20, 0x2C	; 44
    31da:	2c e0       	ldi	r18, 0x0C	; 12
    31dc:	0f ef       	ldi	r16, 0xFF	; 255
    31de:	0e 94 5b 0e 	call	0x1cb6	; 0x1cb6 <displayDrawRect>
		displayFillRect(BUTTON_PRES_X+1, BUTTON_PRES_Y + BUTTON_PRES_HEIGHT-1,BUTTON_PRES_WIDTH-2, 2,WHITE);
    31e2:	81 e6       	ldi	r24, 0x61	; 97
    31e4:	6b e2       	ldi	r22, 0x2B	; 43
    31e6:	4a e0       	ldi	r20, 0x0A	; 10
    31e8:	22 e0       	ldi	r18, 0x02	; 2
    31ea:	00 e0       	ldi	r16, 0x00	; 0
    31ec:	0e 94 f3 0c 	call	0x19e6	; 0x19e6 <displayFillRect>
	
		loadImage(BUTTON_PRES_X - 32 + 3,BUTTON_PRES_Y + BUTTON_PRES_HEIGHT + 3,sun);
    31f0:	83 e4       	ldi	r24, 0x43	; 67
    31f2:	6f e2       	ldi	r22, 0x2F	; 47
    31f4:	40 e7       	ldi	r20, 0x70	; 112
    31f6:	50 e0       	ldi	r21, 0x00	; 0
    31f8:	0e 94 7c 12 	call	0x24f8	; 0x24f8 <loadImage>
		loadImage(BUTTON_PRES_X - 32 + 15,BUTTON_PRES_Y + BUTTON_PRES_HEIGHT + 3,Moon);
    31fc:	8f e4       	ldi	r24, 0x4F	; 79
    31fe:	6f e2       	ldi	r22, 0x2F	; 47
    3200:	44 e8       	ldi	r20, 0x84	; 132
    3202:	50 e0       	ldi	r21, 0x00	; 0
    3204:	0e 94 7c 12 	call	0x24f8	; 0x24f8 <loadImage>
	
		preset_sun.x = BUTTON_PRES_X - 32 + 3;
    3208:	83 e4       	ldi	r24, 0x43	; 67
    320a:	80 93 e5 01 	sts	0x01E5, r24
		preset_sun.y = BUTTON_PRES_Y + BUTTON_PRES_HEIGHT + 3;
    320e:	9f e2       	ldi	r25, 0x2F	; 47
    3210:	90 93 e6 01 	sts	0x01E6, r25
		preset_sun.width = 9;
    3214:	89 e0       	ldi	r24, 0x09	; 9
    3216:	80 93 e7 01 	sts	0x01E7, r24
		preset_sun.height = 9;
    321a:	80 93 e8 01 	sts	0x01E8, r24
	
		preset_moon.x = BUTTON_PRES_X - 32 + 15;
    321e:	2f e4       	ldi	r18, 0x4F	; 79
    3220:	20 93 f2 01 	sts	0x01F2, r18
		preset_moon.y = BUTTON_PRES_Y + BUTTON_PRES_HEIGHT + 3;
    3224:	90 93 f3 01 	sts	0x01F3, r25
		preset_moon.width = 9;
    3228:	80 93 f4 01 	sts	0x01F4, r24
		preset_moon.height = 9;
    322c:	80 93 f5 01 	sts	0x01F5, r24
	}	
}
    3230:	0f 91       	pop	r16
    3232:	08 95       	ret

00003234 <closePresetDrawer>:

void closePresetDrawer(void){
    3234:	0f 93       	push	r16
	displayFillRect(BUTTON_PRES_X - 32, BUTTON_PRES_Y + BUTTON_PRES_HEIGHT + 1,BUTTON_PRES_WIDTH + 32, 12,WHITE);
    3236:	80 e4       	ldi	r24, 0x40	; 64
    3238:	6d e2       	ldi	r22, 0x2D	; 45
    323a:	4c e2       	ldi	r20, 0x2C	; 44
    323c:	2c e0       	ldi	r18, 0x0C	; 12
    323e:	00 e0       	ldi	r16, 0x00	; 0
    3240:	0e 94 f3 0c 	call	0x19e6	; 0x19e6 <displayFillRect>
}
    3244:	0f 91       	pop	r16
    3246:	08 95       	ret

00003248 <drawPresetActive>:

void drawPresetActive(void){
    3248:	0f 93       	push	r16
	if(CHECKDRAWFLAG(DRAW_PRESET)){
    324a:	80 91 16 02 	lds	r24, 0x0216
    324e:	90 91 17 02 	lds	r25, 0x0217
    3252:	92 ff       	sbrs	r25, 2
    3254:	16 c0       	rjmp	.+44     	; 0x3282 <drawPresetActive+0x3a>
		RESETDRAWFLAG(DRAW_PRESET);
    3256:	9b 7f       	andi	r25, 0xFB	; 251
    3258:	90 93 17 02 	sts	0x0217, r25
    325c:	80 93 16 02 	sts	0x0216, r24
		displayFillRect(PRESET_X, PRESET_Y, 9, 9, WHITE);
    3260:	82 e6       	ldi	r24, 0x62	; 98
    3262:	65 e1       	ldi	r22, 0x15	; 21
    3264:	49 e0       	ldi	r20, 0x09	; 9
    3266:	29 e0       	ldi	r18, 0x09	; 9
    3268:	00 e0       	ldi	r16, 0x00	; 0
    326a:	0e 94 f3 0c 	call	0x19e6	; 0x19e6 <displayFillRect>
		loadImage(PRESET_X, PRESET_Y, activePreset->image);
    326e:	e0 91 41 02 	lds	r30, 0x0241
    3272:	f0 91 42 02 	lds	r31, 0x0242
    3276:	40 81       	ld	r20, Z
    3278:	51 81       	ldd	r21, Z+1	; 0x01
    327a:	82 e6       	ldi	r24, 0x62	; 98
    327c:	65 e1       	ldi	r22, 0x15	; 21
    327e:	0e 94 7c 12 	call	0x24f8	; 0x24f8 <loadImage>
	}	
}
    3282:	0f 91       	pop	r16
    3284:	08 95       	ret

00003286 <drawMainScreen>:
		displayPutChar((currentDateTime.date.year % 10) + 48);
	}	
}


void drawMainScreen(){
    3286:	0f 93       	push	r16
	displaySelectFont(TEXTFONT, displayReadFontData,BLACK);
    3288:	86 e9       	ldi	r24, 0x96	; 150
    328a:	98 e0       	ldi	r25, 0x08	; 8
    328c:	6d e8       	ldi	r22, 0x8D	; 141
    328e:	78 e0       	ldi	r23, 0x08	; 8
    3290:	4f ef       	ldi	r20, 0xFF	; 255
    3292:	0e 94 90 08 	call	0x1120	; 0x1120 <displaySelectFont>
	if(CHECKDRAWFLAG(DRAW_CLEAR)){
    3296:	80 91 16 02 	lds	r24, 0x0216
    329a:	90 91 17 02 	lds	r25, 0x0217
    329e:	95 ff       	sbrs	r25, 5
    32a0:	0c c0       	rjmp	.+24     	; 0x32ba <drawMainScreen+0x34>
		RESETDRAWFLAG(DRAW_CLEAR);
    32a2:	9f 7d       	andi	r25, 0xDF	; 223
    32a4:	90 93 17 02 	sts	0x0217, r25
    32a8:	80 93 16 02 	sts	0x0216, r24
		displayClearScreen();
    32ac:	80 e0       	ldi	r24, 0x00	; 0
    32ae:	60 e0       	ldi	r22, 0x00	; 0
    32b0:	4f e7       	ldi	r20, 0x7F	; 127
    32b2:	2f e3       	ldi	r18, 0x3F	; 63
    32b4:	00 e0       	ldi	r16, 0x00	; 0
    32b6:	0e 94 f3 0c 	call	0x19e6	; 0x19e6 <displayFillRect>
	}
	if(!CHECKFLAG(FLAG_AWAYSCREEN)){
    32ba:	80 91 36 02 	lds	r24, 0x0236
    32be:	90 91 37 02 	lds	r25, 0x0237
    32c2:	90 fd       	sbrc	r25, 0
    32c4:	32 c0       	rjmp	.+100    	; 0x332a <drawMainScreen+0xa4>
		drawTopHeader();
    32c6:	0e 94 a9 14 	call	0x2952	; 0x2952 <drawTopHeader>
		drawValues();
    32ca:	0e 94 3e 17 	call	0x2e7c	; 0x2e7c <drawValues>
		drawPresetActive();
    32ce:	0e 94 24 19 	call	0x3248	; 0x3248 <drawPresetActive>
		drawTtlBar();
    32d2:	0e 94 5e 12 	call	0x24bc	; 0x24bc <drawTtlBar>
		
		if(CHECKDRAWFLAG(DRAW_CV_ON)){
    32d6:	80 91 16 02 	lds	r24, 0x0216
    32da:	90 91 17 02 	lds	r25, 0x0217
    32de:	80 ff       	sbrs	r24, 0
    32e0:	0b c0       	rjmp	.+22     	; 0x32f8 <drawMainScreen+0x72>
			RESETDRAWFLAG(DRAW_CV_ON);
    32e2:	8e 7f       	andi	r24, 0xFE	; 254
    32e4:	90 93 17 02 	sts	0x0217, r25
    32e8:	80 93 16 02 	sts	0x0216, r24
			loadImage(FLAME_X,FLAME_Y, flame);
    32ec:	88 e7       	ldi	r24, 0x78	; 120
    32ee:	65 e3       	ldi	r22, 0x35	; 53
    32f0:	4e ec       	ldi	r20, 0xCE	; 206
    32f2:	5b e0       	ldi	r21, 0x0B	; 11
    32f4:	0e 94 7c 12 	call	0x24f8	; 0x24f8 <loadImage>
		}
		if(CHECKDRAWFLAG(DRAW_CV_OFF)){
    32f8:	80 91 16 02 	lds	r24, 0x0216
    32fc:	90 91 17 02 	lds	r25, 0x0217
    3300:	96 ff       	sbrs	r25, 6
    3302:	0c c0       	rjmp	.+24     	; 0x331c <drawMainScreen+0x96>
			RESETDRAWFLAG(DRAW_CV_OFF);
    3304:	9f 7b       	andi	r25, 0xBF	; 191
    3306:	90 93 17 02 	sts	0x0217, r25
    330a:	80 93 16 02 	sts	0x0216, r24
			displayFillRect(FLAME_X,FLAME_Y,7,9,WHITE);
    330e:	88 e7       	ldi	r24, 0x78	; 120
    3310:	65 e3       	ldi	r22, 0x35	; 53
    3312:	47 e0       	ldi	r20, 0x07	; 7
    3314:	29 e0       	ldi	r18, 0x09	; 9
    3316:	00 e0       	ldi	r16, 0x00	; 0
    3318:	0e 94 f3 0c 	call	0x19e6	; 0x19e6 <displayFillRect>
		}
	
		//And.. the buttons!
		drawMainScreenButtons(button_pressed);
    331c:	80 91 18 02 	lds	r24, 0x0218
    3320:	0e 94 a0 16 	call	0x2d40	; 0x2d40 <drawMainScreenButtons>
	
		drawPresetDrawer();
    3324:	0e 94 d7 18 	call	0x31ae	; 0x31ae <drawPresetDrawer>
    3328:	02 c0       	rjmp	.+4      	; 0x332e <drawMainScreen+0xa8>
	}else{
		drawAwayScreen();
    332a:	0e 94 1f 15 	call	0x2a3e	; 0x2a3e <drawAwayScreen>
	}	
	
	//Put it in the squares
	buttonDown.x = BUTTON_DOWN_X;
    332e:	80 e4       	ldi	r24, 0x40	; 64
    3330:	80 93 43 02 	sts	0x0243, r24
	buttonDown.y = BUTTON_DOWN_Y;
    3334:	24 e2       	ldi	r18, 0x24	; 36
    3336:	20 93 44 02 	sts	0x0244, r18
	buttonDown.width = BUTTON_DOWN_WIDTH;
    333a:	9c e0       	ldi	r25, 0x0C	; 12
    333c:	90 93 45 02 	sts	0x0245, r25
	buttonDown.height = BUTTON_DOWN_HEIGHT;
    3340:	88 e0       	ldi	r24, 0x08	; 8
    3342:	80 93 46 02 	sts	0x0246, r24
	
	buttonUp.x = BUTTON_UP_X;
    3346:	30 e5       	ldi	r19, 0x50	; 80
    3348:	30 93 19 02 	sts	0x0219, r19
	buttonUp.y = BUTTON_UP_Y;
    334c:	20 93 1a 02 	sts	0x021A, r18
	buttonUp.width = BUTTON_UP_WIDTH;
    3350:	90 93 1b 02 	sts	0x021B, r25
	buttonUp.height = BUTTON_UP_HEIGHT;
    3354:	80 93 1c 02 	sts	0x021C, r24
	
	buttonPreset.x = BUTTON_PRES_X;
    3358:	30 e6       	ldi	r19, 0x60	; 96
    335a:	30 93 bb 01 	sts	0x01BB, r19
	buttonPreset.y = BUTTON_PRES_Y;
    335e:	20 93 bc 01 	sts	0x01BC, r18
	buttonPreset.width = BUTTON_PRES_WIDTH;
    3362:	90 93 bd 01 	sts	0x01BD, r25
	buttonPreset.height = BUTTON_PRES_HEIGHT;
    3366:	80 93 be 01 	sts	0x01BE, r24
	
	buttonAway.x = BUTTON_AWAY_X;
    336a:	30 e7       	ldi	r19, 0x70	; 112
    336c:	30 93 11 02 	sts	0x0211, r19
	buttonAway.y = BUTTON_AWAY_Y;
    3370:	20 93 12 02 	sts	0x0212, r18
	buttonAway.width = BUTTON_AWAY_WIDTH;
    3374:	90 93 13 02 	sts	0x0213, r25
	buttonAway.height = BUTTON_AWAY_HEIGHT;
    3378:	80 93 14 02 	sts	0x0214, r24
}
    337c:	0f 91       	pop	r16
    337e:	08 95       	ret

00003380 <turnLcdOn>:
#include "Headers/ds1307.h"

lcdPos stylus;
lcdPos oldStylus;

void turnLcdOn(void){
    3380:	df 93       	push	r29
    3382:	cf 93       	push	r28
    3384:	00 d0       	rcall	.+0      	; 0x3386 <turnLcdOn+0x6>
    3386:	cd b7       	in	r28, 0x3d	; 61
    3388:	de b7       	in	r29, 0x3e	; 62
	LCD_AAN();
    338a:	42 9a       	sbi	0x08, 2	; 8
	SETFLAG(FLAG_AWAKE);
    338c:	80 91 36 02 	lds	r24, 0x0236
    3390:	90 91 37 02 	lds	r25, 0x0237
    3394:	82 60       	ori	r24, 0x02	; 2
    3396:	90 93 37 02 	sts	0x0237, r25
    339a:	80 93 36 02 	sts	0x0236, r24
	for(volatile uint16_t i=0; i<15000; i++);
    339e:	1a 82       	std	Y+2, r1	; 0x02
    33a0:	19 82       	std	Y+1, r1	; 0x01
    33a2:	89 81       	ldd	r24, Y+1	; 0x01
    33a4:	9a 81       	ldd	r25, Y+2	; 0x02
    33a6:	2a e3       	ldi	r18, 0x3A	; 58
    33a8:	88 39       	cpi	r24, 0x98	; 152
    33aa:	92 07       	cpc	r25, r18
    33ac:	58 f4       	brcc	.+22     	; 0x33c4 <turnLcdOn+0x44>
    33ae:	89 81       	ldd	r24, Y+1	; 0x01
    33b0:	9a 81       	ldd	r25, Y+2	; 0x02
    33b2:	01 96       	adiw	r24, 0x01	; 1
    33b4:	9a 83       	std	Y+2, r25	; 0x02
    33b6:	89 83       	std	Y+1, r24	; 0x01
    33b8:	89 81       	ldd	r24, Y+1	; 0x01
    33ba:	9a 81       	ldd	r25, Y+2	; 0x02
    33bc:	2a e3       	ldi	r18, 0x3A	; 58
    33be:	88 39       	cpi	r24, 0x98	; 152
    33c0:	92 07       	cpc	r25, r18
    33c2:	a8 f3       	brcs	.-22     	; 0x33ae <turnLcdOn+0x2e>
	displayInit(0);
    33c4:	80 e0       	ldi	r24, 0x00	; 0
    33c6:	0e 94 b8 0f 	call	0x1f70	; 0x1f70 <displayInit>
	drawMainScreen();
    33ca:	0e 94 43 19 	call	0x3286	; 0x3286 <drawMainScreen>
}
    33ce:	0f 90       	pop	r0
    33d0:	0f 90       	pop	r0
    33d2:	cf 91       	pop	r28
    33d4:	df 91       	pop	r29
    33d6:	08 95       	ret

000033d8 <isIn>:
		loadImage(PRESET_X, PRESET_Y, activePreset->image);
	}	
}


uint8_t isIn(const lcdPos *pos, const square *obj){
    33d8:	fc 01       	movw	r30, r24
    33da:	db 01       	movw	r26, r22
	if((pos->x >= obj->x) && (pos->x <= (obj->width + obj->x))){
    33dc:	20 81       	ld	r18, Z
    33de:	4c 91       	ld	r20, X
    33e0:	24 17       	cp	r18, r20
    33e2:	e8 f0       	brcs	.+58     	; 0x341e <isIn+0x46>
    33e4:	30 e0       	ldi	r19, 0x00	; 0
    33e6:	12 96       	adiw	r26, 0x02	; 2
    33e8:	8c 91       	ld	r24, X
    33ea:	12 97       	sbiw	r26, 0x02	; 2
    33ec:	90 e0       	ldi	r25, 0x00	; 0
    33ee:	84 0f       	add	r24, r20
    33f0:	91 1d       	adc	r25, r1
    33f2:	82 17       	cp	r24, r18
    33f4:	93 07       	cpc	r25, r19
    33f6:	ac f0       	brlt	.+42     	; 0x3422 <isIn+0x4a>
		//X is correct!
		if((pos->y >= obj->y) && (pos->y <= (obj->height + obj->y))){
    33f8:	41 81       	ldd	r20, Z+1	; 0x01
    33fa:	11 96       	adiw	r26, 0x01	; 1
    33fc:	8c 91       	ld	r24, X
    33fe:	11 97       	sbiw	r26, 0x01	; 1
    3400:	48 17       	cp	r20, r24
    3402:	88 f0       	brcs	.+34     	; 0x3426 <isIn+0x4e>
    3404:	50 e0       	ldi	r21, 0x00	; 0
    3406:	13 96       	adiw	r26, 0x03	; 3
    3408:	2c 91       	ld	r18, X
    340a:	13 97       	sbiw	r26, 0x03	; 3
    340c:	30 e0       	ldi	r19, 0x00	; 0
    340e:	28 0f       	add	r18, r24
    3410:	31 1d       	adc	r19, r1
		loadImage(PRESET_X, PRESET_Y, activePreset->image);
	}	
}


uint8_t isIn(const lcdPos *pos, const square *obj){
    3412:	81 e0       	ldi	r24, 0x01	; 1
    3414:	24 17       	cp	r18, r20
    3416:	35 07       	cpc	r19, r21
    3418:	3c f4       	brge	.+14     	; 0x3428 <isIn+0x50>
    341a:	80 e0       	ldi	r24, 0x00	; 0
    341c:	08 95       	ret
			return 1;
		}else{
			return 0;
		}
	}else{
		return 0;
    341e:	80 e0       	ldi	r24, 0x00	; 0
    3420:	08 95       	ret
    3422:	80 e0       	ldi	r24, 0x00	; 0
    3424:	08 95       	ret
		//X is correct!
		if((pos->y >= obj->y) && (pos->y <= (obj->height + obj->y))){
			//And so is Y!
			return 1;
		}else{
			return 0;
    3426:	80 e0       	ldi	r24, 0x00	; 0
		}
	}else{
		return 0;
	}
}
    3428:	08 95       	ret

0000342a <isDifferent>:

uint8_t isDifferent(const lcdPos *p1, const lcdPos *p2){
    342a:	fc 01       	movw	r30, r24
    342c:	db 01       	movw	r26, r22
	uint8_t diff = 0;
	if((p1->x <= (p2->x-2)) || (p1->x >= (p2->x+2))){
    342e:	20 81       	ld	r18, Z
    3430:	30 e0       	ldi	r19, 0x00	; 0
    3432:	8c 91       	ld	r24, X
    3434:	90 e0       	ldi	r25, 0x00	; 0
    3436:	ac 01       	movw	r20, r24
    3438:	42 50       	subi	r20, 0x02	; 2
    343a:	50 40       	sbci	r21, 0x00	; 0
    343c:	42 17       	cp	r20, r18
    343e:	53 07       	cpc	r21, r19
    3440:	4c f4       	brge	.+18     	; 0x3454 <isDifferent+0x2a>
    3442:	ac 01       	movw	r20, r24
    3444:	4e 5f       	subi	r20, 0xFE	; 254
    3446:	5f 4f       	sbci	r21, 0xFF	; 255
	}else{
		return 0;
	}
}

uint8_t isDifferent(const lcdPos *p1, const lcdPos *p2){
    3448:	81 e0       	ldi	r24, 0x01	; 1
    344a:	24 17       	cp	r18, r20
    344c:	35 07       	cpc	r19, r21
    344e:	1c f4       	brge	.+6      	; 0x3456 <isDifferent+0x2c>
    3450:	80 e0       	ldi	r24, 0x00	; 0
    3452:	01 c0       	rjmp	.+2      	; 0x3456 <isDifferent+0x2c>
	uint8_t diff = 0;
	if((p1->x <= (p2->x-2)) || (p1->x >= (p2->x+2))){
		diff |= DIFF_X;
    3454:	81 e0       	ldi	r24, 0x01	; 1
	}
	if((p1->y <= (p2->y-2)) || (p1->y >= (p2->y+2))){
    3456:	21 81       	ldd	r18, Z+1	; 0x01
    3458:	30 e0       	ldi	r19, 0x00	; 0
    345a:	11 96       	adiw	r26, 0x01	; 1
    345c:	4c 91       	ld	r20, X
    345e:	11 97       	sbiw	r26, 0x01	; 1
    3460:	50 e0       	ldi	r21, 0x00	; 0
    3462:	ba 01       	movw	r22, r20
    3464:	62 50       	subi	r22, 0x02	; 2
    3466:	70 40       	sbci	r23, 0x00	; 0
    3468:	62 17       	cp	r22, r18
    346a:	73 07       	cpc	r23, r19
    346c:	2c f4       	brge	.+10     	; 0x3478 <isDifferent+0x4e>
    346e:	4e 5f       	subi	r20, 0xFE	; 254
    3470:	5f 4f       	sbci	r21, 0xFF	; 255
    3472:	24 17       	cp	r18, r20
    3474:	35 07       	cpc	r19, r21
    3476:	0c f0       	brlt	.+2      	; 0x347a <isDifferent+0x50>
		diff |= DIFF_Y;
    3478:	82 60       	ori	r24, 0x02	; 2
	}	
	if(p1->isPressed != p2->isPressed){
    347a:	22 81       	ldd	r18, Z+2	; 0x02
    347c:	12 96       	adiw	r26, 0x02	; 2
    347e:	9c 91       	ld	r25, X
    3480:	12 97       	sbiw	r26, 0x02	; 2
    3482:	29 13       	cpse	r18, r25
		diff |= DIFF_P;
    3484:	84 60       	ori	r24, 0x04	; 4
	}
	return diff;
}
    3486:	08 95       	ret

00003488 <readPos>:

/*
 * TOUCHSCREEN
 */

lcdPos readPos(void){
    3488:	df 92       	push	r13
    348a:	ef 92       	push	r14
    348c:	ff 92       	push	r15
    348e:	0f 93       	push	r16
    3490:	1f 93       	push	r17
    3492:	df 93       	push	r29
    3494:	cf 93       	push	r28
    3496:	00 d0       	rcall	.+0      	; 0x3498 <readPos+0x10>
    3498:	0f 92       	push	r0
    349a:	cd b7       	in	r28, 0x3d	; 61
    349c:	de b7       	in	r29, 0x3e	; 62
	lcdPos retPos;
	//read X
	//1 = output
    //0 = input
	//        76543210
	DDR_TOUCH &= ~(_BV(TOUCH_1) | _BV(TOUCH_2) | _BV(TOUCH_3) | _BV(TOUCH_4)); //DDRA &= 0b11110000;
    349e:	81 b1       	in	r24, 0x01	; 1
    34a0:	80 7f       	andi	r24, 0xF0	; 240
    34a2:	81 b9       	out	0x01, r24	; 1
	DDR_TOUCH |= _BV(TOUCH_1) | _BV(TOUCH_3); //DDRA |= 0b00000101;
    34a4:	81 b1       	in	r24, 0x01	; 1
    34a6:	85 60       	ori	r24, 0x05	; 5
    34a8:	81 b9       	out	0x01, r24	; 1
	PORT_TOUCH &= ~(_BV(TOUCH_1) | _BV(TOUCH_2) | _BV(TOUCH_3) | _BV(TOUCH_4));// PORTA &=0b11110000;
    34aa:	82 b1       	in	r24, 0x02	; 2
    34ac:	80 7f       	andi	r24, 0xF0	; 240
    34ae:	82 b9       	out	0x02, r24	; 2
	PORT_TOUCH |= _BV(TOUCH_3);//PORTA |=0b00000100;
    34b0:	12 9a       	sbi	0x02, 2	; 2
	
	//_delay_ms(20);

    uint8_t resX = read_adc(TOUCH_2);
    34b2:	81 e0       	ldi	r24, 0x01	; 1
    34b4:	0e 94 4f 08 	call	0x109e	; 0x109e <read_adc>
    34b8:	18 2f       	mov	r17, r24
	uint8_t rawX = resX;
	uint8_t a3 = read_adc(TOUCH_4);
    34ba:	83 e0       	ldi	r24, 0x03	; 3
    34bc:	0e 94 4f 08 	call	0x109e	; 0x109e <read_adc>
    34c0:	e8 2e       	mov	r14, r24
	
	//printf("rawX: %i   A3: %i   dif: %i\r\n",rawX,a3,a3-rawX);
	
	resX = resX - 22;
    34c2:	61 2f       	mov	r22, r17
    34c4:	66 51       	subi	r22, 0x16	; 22
	retPos.x = resX / 1.5625;
    34c6:	70 e0       	ldi	r23, 0x00	; 0
    34c8:	88 27       	eor	r24, r24
    34ca:	77 fd       	sbrc	r23, 7
    34cc:	80 95       	com	r24
    34ce:	98 2f       	mov	r25, r24
    34d0:	0e 94 7c 24 	call	0x48f8	; 0x48f8 <__floatsisf>
    34d4:	20 e0       	ldi	r18, 0x00	; 0
    34d6:	30 e0       	ldi	r19, 0x00	; 0
    34d8:	48 ec       	ldi	r20, 0xC8	; 200
    34da:	5f e3       	ldi	r21, 0x3F	; 63
    34dc:	0e 94 e6 23 	call	0x47cc	; 0x47cc <__divsf3>
    34e0:	0e 94 4e 24 	call	0x489c	; 0x489c <__fixunssfsi>
    34e4:	f6 2e       	mov	r15, r22
	
	//Read Y
	//1 = output
    //0 = input
	//        76543210
	DDR_TOUCH &= ~(_BV(TOUCH_1) | _BV(TOUCH_2) | _BV(TOUCH_3) | _BV(TOUCH_4)); //DDRA &= 0b11110000;
    34e6:	81 b1       	in	r24, 0x01	; 1
    34e8:	80 7f       	andi	r24, 0xF0	; 240
    34ea:	81 b9       	out	0x01, r24	; 1
	DDR_TOUCH |= _BV(TOUCH_2) | _BV(TOUCH_4); //DDRA |= 0b00001010;
    34ec:	81 b1       	in	r24, 0x01	; 1
    34ee:	8a 60       	ori	r24, 0x0A	; 10
    34f0:	81 b9       	out	0x01, r24	; 1
	PORT_TOUCH &= ~(_BV(TOUCH_1) | _BV(TOUCH_2) | _BV(TOUCH_3) | _BV(TOUCH_4));// PORTA &=0b11110000;
    34f2:	82 b1       	in	r24, 0x02	; 2
    34f4:	80 7f       	andi	r24, 0xF0	; 240
    34f6:	82 b9       	out	0x02, r24	; 2
	PORT_TOUCH |= _BV(TOUCH_4); //PORTA |=0b00001000;
    34f8:	13 9a       	sbi	0x02, 3	; 2
	
	//_delay_ms(20);

    uint8_t resY = 255 - read_adc(TOUCH_1);
    34fa:	80 e0       	ldi	r24, 0x00	; 0
    34fc:	0e 94 4f 08 	call	0x109e	; 0x109e <read_adc>
    3500:	08 2f       	mov	r16, r24
    3502:	00 95       	com	r16
	uint8_t rawY = resY;
	uint8_t a2 = 255 - read_adc(TOUCH_3);
    3504:	82 e0       	ldi	r24, 0x02	; 2
    3506:	0e 94 4f 08 	call	0x109e	; 0x109e <read_adc>
    350a:	d8 2e       	mov	r13, r24
	resY = resY - 40;
    350c:	60 2f       	mov	r22, r16
    350e:	68 52       	subi	r22, 0x28	; 40
	retPos.y = resY / 2.765625;
    3510:	70 e0       	ldi	r23, 0x00	; 0
    3512:	88 27       	eor	r24, r24
    3514:	77 fd       	sbrc	r23, 7
    3516:	80 95       	com	r24
    3518:	98 2f       	mov	r25, r24
    351a:	0e 94 7c 24 	call	0x48f8	; 0x48f8 <__floatsisf>
    351e:	20 e0       	ldi	r18, 0x00	; 0
    3520:	30 e0       	ldi	r19, 0x00	; 0
    3522:	41 e3       	ldi	r20, 0x31	; 49
    3524:	50 e4       	ldi	r21, 0x40	; 64
    3526:	0e 94 e6 23 	call	0x47cc	; 0x47cc <__divsf3>
    352a:	0e 94 4e 24 	call	0x489c	; 0x489c <__fixunssfsi>
    352e:	76 2f       	mov	r23, r22
	
	
	
	if(((a3 - rawX) == 0) && ((a2 - rawY) == 0)){
    3530:	1e 15       	cp	r17, r14
    3532:	31 f4       	brne	.+12     	; 0x3540 <readPos+0xb8>
	
	//_delay_ms(20);

    uint8_t resY = 255 - read_adc(TOUCH_1);
	uint8_t rawY = resY;
	uint8_t a2 = 255 - read_adc(TOUCH_3);
    3534:	d0 94       	com	r13

/*
 * TOUCHSCREEN
 */

lcdPos readPos(void){
    3536:	81 e0       	ldi	r24, 0x01	; 1
    3538:	0d 15       	cp	r16, r13
    353a:	19 f0       	breq	.+6      	; 0x3542 <readPos+0xba>
    353c:	80 e0       	ldi	r24, 0x00	; 0
    353e:	01 c0       	rjmp	.+2      	; 0x3542 <readPos+0xba>
	
	
	if(((a3 - rawX) == 0) && ((a2 - rawY) == 0)){
		retPos.isPressed = 1;
	}else{
		retPos.isPressed = 0;
    3540:	80 e0       	ldi	r24, 0x00	; 0
	}
	
	return retPos;
}
    3542:	6f 2d       	mov	r22, r15
    3544:	90 e0       	ldi	r25, 0x00	; 0
    3546:	0f 90       	pop	r0
    3548:	0f 90       	pop	r0
    354a:	0f 90       	pop	r0
    354c:	cf 91       	pop	r28
    354e:	df 91       	pop	r29
    3550:	1f 91       	pop	r17
    3552:	0f 91       	pop	r16
    3554:	ff 90       	pop	r15
    3556:	ef 90       	pop	r14
    3558:	df 90       	pop	r13
    355a:	08 95       	ret

0000355c <readAndHandleScreen>:


void readAndHandleScreen(void){
    355c:	ef 92       	push	r14
    355e:	ff 92       	push	r15
    3560:	0f 93       	push	r16
    3562:	1f 93       	push	r17
    3564:	df 93       	push	r29
    3566:	cf 93       	push	r28
    3568:	00 d0       	rcall	.+0      	; 0x356a <readAndHandleScreen+0xe>
    356a:	0f 92       	push	r0
    356c:	cd b7       	in	r28, 0x3d	; 61
    356e:	de b7       	in	r29, 0x3e	; 62
	if(CHECKFLAG(FLAG_AWAKE)){
    3570:	80 91 36 02 	lds	r24, 0x0236
    3574:	81 ff       	sbrs	r24, 1
    3576:	6f c3       	rjmp	.+1758   	; 0x3c56 <readAndHandleScreen+0x6fa>
		stylus = readPos();
    3578:	0e 94 44 1a 	call	0x3488	; 0x3488 <readPos>
    357c:	69 83       	std	Y+1, r22	; 0x01
    357e:	7a 83       	std	Y+2, r23	; 0x02
    3580:	8b 83       	std	Y+3, r24	; 0x03
    3582:	a5 eb       	ldi	r26, 0xB5	; 181
    3584:	b1 e0       	ldi	r27, 0x01	; 1
    3586:	fe 01       	movw	r30, r28
    3588:	31 96       	adiw	r30, 0x01	; 1
    358a:	83 e0       	ldi	r24, 0x03	; 3
    358c:	01 90       	ld	r0, Z+
    358e:	0d 92       	st	X+, r0
    3590:	81 50       	subi	r24, 0x01	; 1
    3592:	e1 f7       	brne	.-8      	; 0x358c <readAndHandleScreen+0x30>
		uint8_t posDiff = 0;
		if((posDiff = isDifferent(&stylus, &oldStylus))){
    3594:	85 eb       	ldi	r24, 0xB5	; 181
    3596:	91 e0       	ldi	r25, 0x01	; 1
    3598:	68 eb       	ldi	r22, 0xB8	; 184
    359a:	71 e0       	ldi	r23, 0x01	; 1
    359c:	0e 94 15 1a 	call	0x342a	; 0x342a <isDifferent>
    35a0:	88 23       	and	r24, r24
    35a2:	09 f4       	brne	.+2      	; 0x35a6 <readAndHandleScreen+0x4a>
    35a4:	31 c3       	rjmp	.+1634   	; 0x3c08 <readAndHandleScreen+0x6ac>
			if(posDiff & DIFF_P){
    35a6:	82 ff       	sbrs	r24, 2
    35a8:	26 c3       	rjmp	.+1612   	; 0x3bf6 <readAndHandleScreen+0x69a>
				if(stylus.isPressed){
    35aa:	80 91 b7 01 	lds	r24, 0x01B7
    35ae:	88 23       	and	r24, r24
    35b0:	09 f4       	brne	.+2      	; 0x35b4 <readAndHandleScreen+0x58>
    35b2:	14 c3       	rjmp	.+1576   	; 0x3bdc <readAndHandleScreen+0x680>
					if(!CHECKFLAG(FLAG_AWAYSCREEN)){
    35b4:	00 91 36 02 	lds	r16, 0x0236
    35b8:	10 91 37 02 	lds	r17, 0x0237
    35bc:	10 fd       	sbrc	r17, 0
    35be:	07 c1       	rjmp	.+526    	; 0x37ce <readAndHandleScreen+0x272>
					
						if(isIn(&stylus,&buttonDown)){
    35c0:	85 eb       	ldi	r24, 0xB5	; 181
    35c2:	91 e0       	ldi	r25, 0x01	; 1
    35c4:	63 e4       	ldi	r22, 0x43	; 67
    35c6:	72 e0       	ldi	r23, 0x02	; 2
    35c8:	0e 94 ec 19 	call	0x33d8	; 0x33d8 <isIn>
    35cc:	88 23       	and	r24, r24
    35ce:	19 f1       	breq	.+70     	; 0x3616 <readAndHandleScreen+0xba>
							button_pressed = 2;
    35d0:	82 e0       	ldi	r24, 0x02	; 2
    35d2:	80 93 18 02 	sts	0x0218, r24
							SETDRAWFLAG(DRAW_BUTTONS);
    35d6:	80 91 16 02 	lds	r24, 0x0216
    35da:	90 91 17 02 	lds	r25, 0x0217
    35de:	92 60       	ori	r25, 0x02	; 2
    35e0:	90 93 17 02 	sts	0x0217, r25
    35e4:	80 93 16 02 	sts	0x0216, r24
							setTemp-=0.5;
    35e8:	60 91 d9 01 	lds	r22, 0x01D9
    35ec:	70 91 da 01 	lds	r23, 0x01DA
    35f0:	80 91 db 01 	lds	r24, 0x01DB
    35f4:	90 91 dc 01 	lds	r25, 0x01DC
    35f8:	20 e0       	ldi	r18, 0x00	; 0
    35fa:	30 e0       	ldi	r19, 0x00	; 0
    35fc:	40 e0       	ldi	r20, 0x00	; 0
    35fe:	5f e3       	ldi	r21, 0x3F	; 63
    3600:	0e 94 7d 23 	call	0x46fa	; 0x46fa <__subsf3>
    3604:	60 93 d9 01 	sts	0x01D9, r22
    3608:	70 93 da 01 	sts	0x01DA, r23
    360c:	80 93 db 01 	sts	0x01DB, r24
    3610:	90 93 dc 01 	sts	0x01DC, r25
    3614:	73 c0       	rjmp	.+230    	; 0x36fc <readAndHandleScreen+0x1a0>
						}else if(isIn(&stylus,&buttonUp)){
    3616:	85 eb       	ldi	r24, 0xB5	; 181
    3618:	91 e0       	ldi	r25, 0x01	; 1
    361a:	69 e1       	ldi	r22, 0x19	; 25
    361c:	72 e0       	ldi	r23, 0x02	; 2
    361e:	0e 94 ec 19 	call	0x33d8	; 0x33d8 <isIn>
    3622:	88 23       	and	r24, r24
    3624:	19 f1       	breq	.+70     	; 0x366c <readAndHandleScreen+0x110>
							button_pressed = 1;
    3626:	81 e0       	ldi	r24, 0x01	; 1
    3628:	80 93 18 02 	sts	0x0218, r24
							SETDRAWFLAG(DRAW_BUTTONS);
    362c:	80 91 16 02 	lds	r24, 0x0216
    3630:	90 91 17 02 	lds	r25, 0x0217
    3634:	92 60       	ori	r25, 0x02	; 2
    3636:	90 93 17 02 	sts	0x0217, r25
    363a:	80 93 16 02 	sts	0x0216, r24
							setTemp+=0.5;
    363e:	60 91 d9 01 	lds	r22, 0x01D9
    3642:	70 91 da 01 	lds	r23, 0x01DA
    3646:	80 91 db 01 	lds	r24, 0x01DB
    364a:	90 91 dc 01 	lds	r25, 0x01DC
    364e:	20 e0       	ldi	r18, 0x00	; 0
    3650:	30 e0       	ldi	r19, 0x00	; 0
    3652:	40 e0       	ldi	r20, 0x00	; 0
    3654:	5f e3       	ldi	r21, 0x3F	; 63
    3656:	0e 94 7e 23 	call	0x46fc	; 0x46fc <__addsf3>
    365a:	60 93 d9 01 	sts	0x01D9, r22
    365e:	70 93 da 01 	sts	0x01DA, r23
    3662:	80 93 db 01 	sts	0x01DB, r24
    3666:	90 93 dc 01 	sts	0x01DC, r25
    366a:	48 c0       	rjmp	.+144    	; 0x36fc <readAndHandleScreen+0x1a0>
						}else if(isIn(&stylus, &buttonPreset)){
    366c:	85 eb       	ldi	r24, 0xB5	; 181
    366e:	91 e0       	ldi	r25, 0x01	; 1
    3670:	6b eb       	ldi	r22, 0xBB	; 187
    3672:	71 e0       	ldi	r23, 0x01	; 1
    3674:	0e 94 ec 19 	call	0x33d8	; 0x33d8 <isIn>
    3678:	88 23       	and	r24, r24
    367a:	31 f1       	breq	.+76     	; 0x36c8 <readAndHandleScreen+0x16c>
							button_pressed = 3;
    367c:	83 e0       	ldi	r24, 0x03	; 3
    367e:	80 93 18 02 	sts	0x0218, r24
							SETDRAWFLAG(DRAW_BUTTONS);
							SETDRAWFLAG(DRAW_DRAWER);
    3682:	80 91 16 02 	lds	r24, 0x0216
    3686:	90 91 17 02 	lds	r25, 0x0217
    368a:	82 60       	ori	r24, 0x02	; 2
    368c:	92 60       	ori	r25, 0x02	; 2
    368e:	90 93 17 02 	sts	0x0217, r25
    3692:	80 93 16 02 	sts	0x0216, r24
							if(CHECKFLAG(FLAG_DRAWER)){
    3696:	05 ff       	sbrs	r16, 5
    3698:	0c c0       	rjmp	.+24     	; 0x36b2 <readAndHandleScreen+0x156>
								closePresetDrawer();
    369a:	0e 94 1a 19 	call	0x3234	; 0x3234 <closePresetDrawer>
								RESETFLAG(FLAG_DRAWER);
    369e:	80 91 36 02 	lds	r24, 0x0236
    36a2:	90 91 37 02 	lds	r25, 0x0237
    36a6:	8f 7d       	andi	r24, 0xDF	; 223
    36a8:	90 93 37 02 	sts	0x0237, r25
    36ac:	80 93 36 02 	sts	0x0236, r24
    36b0:	25 c0       	rjmp	.+74     	; 0x36fc <readAndHandleScreen+0x1a0>
							}else{
								SETDRAWFLAG(DRAW_DRAWER);	
    36b2:	82 60       	ori	r24, 0x02	; 2
    36b4:	90 93 17 02 	sts	0x0217, r25
    36b8:	80 93 16 02 	sts	0x0216, r24
								SETFLAG(FLAG_DRAWER);
    36bc:	00 62       	ori	r16, 0x20	; 32
    36be:	10 93 37 02 	sts	0x0237, r17
    36c2:	00 93 36 02 	sts	0x0236, r16
    36c6:	1a c0       	rjmp	.+52     	; 0x36fc <readAndHandleScreen+0x1a0>
							}							
						}else if(isIn(&stylus, &buttonAway)){
    36c8:	85 eb       	ldi	r24, 0xB5	; 181
    36ca:	91 e0       	ldi	r25, 0x01	; 1
    36cc:	61 e1       	ldi	r22, 0x11	; 17
    36ce:	72 e0       	ldi	r23, 0x02	; 2
    36d0:	0e 94 ec 19 	call	0x33d8	; 0x33d8 <isIn>
    36d4:	88 23       	and	r24, r24
    36d6:	91 f0       	breq	.+36     	; 0x36fc <readAndHandleScreen+0x1a0>
							button_pressed = 4;
    36d8:	84 e0       	ldi	r24, 0x04	; 4
    36da:	80 93 18 02 	sts	0x0218, r24
							SETDRAWFLAG(DRAW_BUTTONS);
							SETDRAWFLAG(DRAW_AWAYSCREEN);
    36de:	80 91 16 02 	lds	r24, 0x0216
    36e2:	90 91 17 02 	lds	r25, 0x0217
    36e6:	80 68       	ori	r24, 0x80	; 128
    36e8:	92 60       	ori	r25, 0x02	; 2
    36ea:	90 93 17 02 	sts	0x0217, r25
    36ee:	80 93 16 02 	sts	0x0216, r24
							SETFLAG(FLAG_AWAYSCREEN);
    36f2:	11 60       	ori	r17, 0x01	; 1
    36f4:	10 93 37 02 	sts	0x0237, r17
    36f8:	00 93 36 02 	sts	0x0236, r16
						}
					
						if(CHECKFLAG(FLAG_DRAWER)){
    36fc:	00 91 36 02 	lds	r16, 0x0236
    3700:	10 91 37 02 	lds	r17, 0x0237
    3704:	05 ff       	sbrs	r16, 5
    3706:	75 c2       	rjmp	.+1258   	; 0x3bf2 <readAndHandleScreen+0x696>
							if(isIn(&stylus,&preset_sun)){
    3708:	85 eb       	ldi	r24, 0xB5	; 181
    370a:	91 e0       	ldi	r25, 0x01	; 1
    370c:	65 ee       	ldi	r22, 0xE5	; 229
    370e:	71 e0       	ldi	r23, 0x01	; 1
    3710:	0e 94 ec 19 	call	0x33d8	; 0x33d8 <isIn>
    3714:	88 23       	and	r24, r24
    3716:	59 f1       	breq	.+86     	; 0x376e <readAndHandleScreen+0x212>
								activePreset = &prs_sun;
    3718:	82 e5       	ldi	r24, 0x52	; 82
    371a:	91 e0       	ldi	r25, 0x01	; 1
    371c:	90 93 42 02 	sts	0x0242, r25
    3720:	80 93 41 02 	sts	0x0241, r24
								setTemp = activePreset->setTemp;
    3724:	80 91 54 01 	lds	r24, 0x0154
    3728:	90 91 55 01 	lds	r25, 0x0155
    372c:	a0 91 56 01 	lds	r26, 0x0156
    3730:	b0 91 57 01 	lds	r27, 0x0157
    3734:	80 93 d9 01 	sts	0x01D9, r24
    3738:	90 93 da 01 	sts	0x01DA, r25
    373c:	a0 93 db 01 	sts	0x01DB, r26
    3740:	b0 93 dc 01 	sts	0x01DC, r27
								closePresetDrawer();
    3744:	0e 94 1a 19 	call	0x3234	; 0x3234 <closePresetDrawer>
								RESETFLAG(FLAG_DRAWER);
    3748:	80 91 36 02 	lds	r24, 0x0236
    374c:	90 91 37 02 	lds	r25, 0x0237
    3750:	8f 7d       	andi	r24, 0xDF	; 223
    3752:	90 93 37 02 	sts	0x0237, r25
    3756:	80 93 36 02 	sts	0x0236, r24
								SETDRAWFLAG(DRAW_PRESET);
    375a:	80 91 16 02 	lds	r24, 0x0216
    375e:	90 91 17 02 	lds	r25, 0x0217
    3762:	94 60       	ori	r25, 0x04	; 4
    3764:	90 93 17 02 	sts	0x0217, r25
    3768:	80 93 16 02 	sts	0x0216, r24
    376c:	42 c2       	rjmp	.+1156   	; 0x3bf2 <readAndHandleScreen+0x696>
							}else if(isIn(&stylus, &preset_moon)){
    376e:	85 eb       	ldi	r24, 0xB5	; 181
    3770:	91 e0       	ldi	r25, 0x01	; 1
    3772:	62 ef       	ldi	r22, 0xF2	; 242
    3774:	71 e0       	ldi	r23, 0x01	; 1
    3776:	0e 94 ec 19 	call	0x33d8	; 0x33d8 <isIn>
    377a:	88 23       	and	r24, r24
    377c:	09 f4       	brne	.+2      	; 0x3780 <readAndHandleScreen+0x224>
    377e:	39 c2       	rjmp	.+1138   	; 0x3bf2 <readAndHandleScreen+0x696>
								activePreset = &prs_moon;
    3780:	8b e5       	ldi	r24, 0x5B	; 91
    3782:	91 e0       	ldi	r25, 0x01	; 1
    3784:	90 93 42 02 	sts	0x0242, r25
    3788:	80 93 41 02 	sts	0x0241, r24
								setTemp = activePreset->setTemp;
    378c:	80 91 5d 01 	lds	r24, 0x015D
    3790:	90 91 5e 01 	lds	r25, 0x015E
    3794:	a0 91 5f 01 	lds	r26, 0x015F
    3798:	b0 91 60 01 	lds	r27, 0x0160
    379c:	80 93 d9 01 	sts	0x01D9, r24
    37a0:	90 93 da 01 	sts	0x01DA, r25
    37a4:	a0 93 db 01 	sts	0x01DB, r26
    37a8:	b0 93 dc 01 	sts	0x01DC, r27
								RESETFLAG(FLAG_DRAWER);
    37ac:	0f 7d       	andi	r16, 0xDF	; 223
    37ae:	10 93 37 02 	sts	0x0237, r17
    37b2:	00 93 36 02 	sts	0x0236, r16
								closePresetDrawer();
    37b6:	0e 94 1a 19 	call	0x3234	; 0x3234 <closePresetDrawer>
								SETDRAWFLAG(DRAW_PRESET);
    37ba:	80 91 16 02 	lds	r24, 0x0216
    37be:	90 91 17 02 	lds	r25, 0x0217
    37c2:	94 60       	ori	r25, 0x04	; 4
    37c4:	90 93 17 02 	sts	0x0217, r25
    37c8:	80 93 16 02 	sts	0x0216, r24
    37cc:	12 c2       	rjmp	.+1060   	; 0x3bf2 <readAndHandleScreen+0x696>
							}
						}
					}else{
						if(isIn(&stylus, &awayscreenButtonCancel)){
    37ce:	85 eb       	ldi	r24, 0xB5	; 181
    37d0:	91 e0       	ldi	r25, 0x01	; 1
    37d2:	6a ef       	ldi	r22, 0xFA	; 250
    37d4:	71 e0       	ldi	r23, 0x01	; 1
    37d6:	0e 94 ec 19 	call	0x33d8	; 0x33d8 <isIn>
    37da:	88 23       	and	r24, r24
    37dc:	81 f0       	breq	.+32     	; 0x37fe <readAndHandleScreen+0x2a2>
							RESETFLAG(FLAG_AWAYSCREEN);
							RESETFLAG(FLAG_AWAY);
    37de:	1c 7f       	andi	r17, 0xFC	; 252
    37e0:	10 93 37 02 	sts	0x0237, r17
    37e4:	00 93 36 02 	sts	0x0236, r16
							SETDRAWFLAG(DRAW_ALL);
							SETDRAWFLAG(DRAW_CLEAR);
    37e8:	80 91 16 02 	lds	r24, 0x0216
    37ec:	90 91 17 02 	lds	r25, 0x0217
    37f0:	88 67       	ori	r24, 0x78	; 120
    37f2:	9f 63       	ori	r25, 0x3F	; 63
    37f4:	90 93 17 02 	sts	0x0217, r25
    37f8:	80 93 16 02 	sts	0x0216, r24
    37fc:	fa c1       	rjmp	.+1012   	; 0x3bf2 <readAndHandleScreen+0x696>
						}else if(isIn(&stylus, &awayscreenButtonOk)){
    37fe:	85 eb       	ldi	r24, 0xB5	; 181
    3800:	91 e0       	ldi	r25, 0x01	; 1
    3802:	6f eb       	ldi	r22, 0xBF	; 191
    3804:	71 e0       	ldi	r23, 0x01	; 1
    3806:	0e 94 ec 19 	call	0x33d8	; 0x33d8 <isIn>
    380a:	88 23       	and	r24, r24
    380c:	89 f0       	breq	.+34     	; 0x3830 <readAndHandleScreen+0x2d4>
							SETFLAG(FLAG_AWAY);
    380e:	12 60       	ori	r17, 0x02	; 2
							//Store those dates somewhere.. Probably EEPROM
							//Well, if we have them!
							RESETFLAG(FLAG_AWAYSCREEN);
    3810:	1e 7f       	andi	r17, 0xFE	; 254
    3812:	10 93 37 02 	sts	0x0237, r17
    3816:	00 93 36 02 	sts	0x0236, r16
							SETDRAWFLAG(DRAW_ALL);
							SETDRAWFLAG(DRAW_CLEAR);
    381a:	80 91 16 02 	lds	r24, 0x0216
    381e:	90 91 17 02 	lds	r25, 0x0217
    3822:	88 67       	ori	r24, 0x78	; 120
    3824:	9f 63       	ori	r25, 0x3F	; 63
    3826:	90 93 17 02 	sts	0x0217, r25
    382a:	80 93 16 02 	sts	0x0216, r24
    382e:	e1 c1       	rjmp	.+962    	; 0x3bf2 <readAndHandleScreen+0x696>
						}else if(isIn(&stylus, &awayscreenButtonDayUp)){
    3830:	85 eb       	ldi	r24, 0xB5	; 181
    3832:	91 e0       	ldi	r25, 0x01	; 1
    3834:	62 e3       	ldi	r22, 0x32	; 50
    3836:	72 e0       	ldi	r23, 0x02	; 2
    3838:	0e 94 ec 19 	call	0x33d8	; 0x33d8 <isIn>
    383c:	88 23       	and	r24, r24
    383e:	69 f1       	breq	.+90     	; 0x389a <readAndHandleScreen+0x33e>
							SETDRAWFLAG(DRAW_AWAYSCREEN);
    3840:	80 91 16 02 	lds	r24, 0x0216
    3844:	90 91 17 02 	lds	r25, 0x0217
    3848:	80 68       	ori	r24, 0x80	; 128
    384a:	90 93 17 02 	sts	0x0217, r25
    384e:	80 93 16 02 	sts	0x0216, r24
							timeOfReturn.date.date ++;
    3852:	80 91 21 02 	lds	r24, 0x0221
    3856:	8f 5f       	subi	r24, 0xFF	; 255
    3858:	80 93 21 02 	sts	0x0221, r24
							if(maxDays(&timeOfReturn.date) < timeOfReturn.date.date){
    385c:	80 e2       	ldi	r24, 0x20	; 32
    385e:	92 e0       	ldi	r25, 0x02	; 2
    3860:	0e 94 ed 0f 	call	0x1fda	; 0x1fda <maxDays>
    3864:	90 91 21 02 	lds	r25, 0x0221
    3868:	89 17       	cp	r24, r25
    386a:	90 f4       	brcc	.+36     	; 0x3890 <readAndHandleScreen+0x334>
								timeOfReturn.date.date = 1;
    386c:	81 e0       	ldi	r24, 0x01	; 1
    386e:	80 93 21 02 	sts	0x0221, r24
								timeOfReturn.date.month++;
    3872:	80 91 22 02 	lds	r24, 0x0222
    3876:	8f 5f       	subi	r24, 0xFF	; 255
    3878:	80 93 22 02 	sts	0x0222, r24
								if(timeOfReturn.date.month == 13){
    387c:	8d 30       	cpi	r24, 0x0D	; 13
    387e:	41 f4       	brne	.+16     	; 0x3890 <readAndHandleScreen+0x334>
									timeOfReturn.date.year++;
    3880:	80 91 23 02 	lds	r24, 0x0223
    3884:	8f 5f       	subi	r24, 0xFF	; 255
    3886:	80 93 23 02 	sts	0x0223, r24
									timeOfReturn.date.month = 1;
    388a:	81 e0       	ldi	r24, 0x01	; 1
    388c:	80 93 22 02 	sts	0x0222, r24
								}
							}
							getDayOfWeek(&timeOfReturn.date);
    3890:	80 e2       	ldi	r24, 0x20	; 32
    3892:	92 e0       	ldi	r25, 0x02	; 2
    3894:	0e 94 01 10 	call	0x2002	; 0x2002 <getDayOfWeek>
    3898:	ac c1       	rjmp	.+856    	; 0x3bf2 <readAndHandleScreen+0x696>
						}else if(isIn(&stylus, &awayscreenButtonDayDown)){
    389a:	85 eb       	ldi	r24, 0xB5	; 181
    389c:	91 e0       	ldi	r25, 0x01	; 1
    389e:	69 ee       	ldi	r22, 0xE9	; 233
    38a0:	71 e0       	ldi	r23, 0x01	; 1
    38a2:	0e 94 ec 19 	call	0x33d8	; 0x33d8 <isIn>
    38a6:	88 23       	and	r24, r24
    38a8:	51 f1       	breq	.+84     	; 0x38fe <readAndHandleScreen+0x3a2>
							SETDRAWFLAG(DRAW_AWAYSCREEN);
    38aa:	80 91 16 02 	lds	r24, 0x0216
    38ae:	90 91 17 02 	lds	r25, 0x0217
    38b2:	80 68       	ori	r24, 0x80	; 128
    38b4:	90 93 17 02 	sts	0x0217, r25
    38b8:	80 93 16 02 	sts	0x0216, r24
							timeOfReturn.date.date --;
    38bc:	80 91 21 02 	lds	r24, 0x0221
    38c0:	81 50       	subi	r24, 0x01	; 1
    38c2:	80 93 21 02 	sts	0x0221, r24
							if(timeOfReturn.date.date == 0){
    38c6:	88 23       	and	r24, r24
    38c8:	a9 f4       	brne	.+42     	; 0x38f4 <readAndHandleScreen+0x398>
								timeOfReturn.date.month--;
    38ca:	80 91 22 02 	lds	r24, 0x0222
    38ce:	81 50       	subi	r24, 0x01	; 1
    38d0:	80 93 22 02 	sts	0x0222, r24
								if(timeOfReturn.date.month == 0){
    38d4:	88 23       	and	r24, r24
    38d6:	41 f4       	brne	.+16     	; 0x38e8 <readAndHandleScreen+0x38c>
									timeOfReturn.date.year--;
    38d8:	80 91 23 02 	lds	r24, 0x0223
    38dc:	81 50       	subi	r24, 0x01	; 1
    38de:	80 93 23 02 	sts	0x0223, r24
									timeOfReturn.date.month = 12;
    38e2:	8c e0       	ldi	r24, 0x0C	; 12
    38e4:	80 93 22 02 	sts	0x0222, r24
								}
								timeOfReturn.date.date = maxDays(&timeOfReturn.date);
    38e8:	80 e2       	ldi	r24, 0x20	; 32
    38ea:	92 e0       	ldi	r25, 0x02	; 2
    38ec:	0e 94 ed 0f 	call	0x1fda	; 0x1fda <maxDays>
    38f0:	80 93 21 02 	sts	0x0221, r24
							}
							getDayOfWeek(&timeOfReturn.date);
    38f4:	80 e2       	ldi	r24, 0x20	; 32
    38f6:	92 e0       	ldi	r25, 0x02	; 2
    38f8:	0e 94 01 10 	call	0x2002	; 0x2002 <getDayOfWeek>
    38fc:	7a c1       	rjmp	.+756    	; 0x3bf2 <readAndHandleScreen+0x696>
						}else if(isIn(&stylus, &awayscreenButtonMonthUp)){
    38fe:	85 eb       	ldi	r24, 0xB5	; 181
    3900:	91 e0       	ldi	r25, 0x01	; 1
    3902:	6d ee       	ldi	r22, 0xED	; 237
    3904:	71 e0       	ldi	r23, 0x01	; 1
    3906:	0e 94 ec 19 	call	0x33d8	; 0x33d8 <isIn>
    390a:	88 23       	and	r24, r24
    390c:	41 f1       	breq	.+80     	; 0x395e <readAndHandleScreen+0x402>
							SETDRAWFLAG(DRAW_AWAYSCREEN);
    390e:	80 91 16 02 	lds	r24, 0x0216
    3912:	90 91 17 02 	lds	r25, 0x0217
    3916:	80 68       	ori	r24, 0x80	; 128
    3918:	90 93 17 02 	sts	0x0217, r25
    391c:	80 93 16 02 	sts	0x0216, r24
							timeOfReturn.date.month++;
    3920:	80 91 22 02 	lds	r24, 0x0222
    3924:	8f 5f       	subi	r24, 0xFF	; 255
    3926:	80 93 22 02 	sts	0x0222, r24
							if(timeOfReturn.date.month == 13){
    392a:	8d 30       	cpi	r24, 0x0D	; 13
    392c:	41 f4       	brne	.+16     	; 0x393e <readAndHandleScreen+0x3e2>
								timeOfReturn.date.year++;
    392e:	80 91 23 02 	lds	r24, 0x0223
    3932:	8f 5f       	subi	r24, 0xFF	; 255
    3934:	80 93 23 02 	sts	0x0223, r24
								timeOfReturn.date.month = 1;
    3938:	81 e0       	ldi	r24, 0x01	; 1
    393a:	80 93 22 02 	sts	0x0222, r24
							}
							if(maxDays(&timeOfReturn.date) < timeOfReturn.date.date){
    393e:	80 e2       	ldi	r24, 0x20	; 32
    3940:	92 e0       	ldi	r25, 0x02	; 2
    3942:	0e 94 ed 0f 	call	0x1fda	; 0x1fda <maxDays>
    3946:	90 91 21 02 	lds	r25, 0x0221
    394a:	89 17       	cp	r24, r25
    394c:	08 f0       	brcs	.+2      	; 0x3950 <readAndHandleScreen+0x3f4>
    394e:	51 c1       	rjmp	.+674    	; 0x3bf2 <readAndHandleScreen+0x696>
								timeOfReturn.date.date = maxDays(&timeOfReturn.date);
    3950:	80 e2       	ldi	r24, 0x20	; 32
    3952:	92 e0       	ldi	r25, 0x02	; 2
    3954:	0e 94 ed 0f 	call	0x1fda	; 0x1fda <maxDays>
    3958:	80 93 21 02 	sts	0x0221, r24
    395c:	4a c1       	rjmp	.+660    	; 0x3bf2 <readAndHandleScreen+0x696>
							}								
						}else if(isIn(&stylus, &awayscreenButtonMonthDown)){
    395e:	85 eb       	ldi	r24, 0xB5	; 181
    3960:	91 e0       	ldi	r25, 0x01	; 1
    3962:	61 ee       	ldi	r22, 0xE1	; 225
    3964:	71 e0       	ldi	r23, 0x01	; 1
    3966:	0e 94 ec 19 	call	0x33d8	; 0x33d8 <isIn>
    396a:	88 23       	and	r24, r24
    396c:	41 f1       	breq	.+80     	; 0x39be <readAndHandleScreen+0x462>
							SETDRAWFLAG(DRAW_AWAYSCREEN);
    396e:	80 91 16 02 	lds	r24, 0x0216
    3972:	90 91 17 02 	lds	r25, 0x0217
    3976:	80 68       	ori	r24, 0x80	; 128
    3978:	90 93 17 02 	sts	0x0217, r25
    397c:	80 93 16 02 	sts	0x0216, r24
							timeOfReturn.date.month--;
    3980:	80 91 22 02 	lds	r24, 0x0222
    3984:	81 50       	subi	r24, 0x01	; 1
    3986:	80 93 22 02 	sts	0x0222, r24
							if(timeOfReturn.date.month == 0){
    398a:	88 23       	and	r24, r24
    398c:	41 f4       	brne	.+16     	; 0x399e <readAndHandleScreen+0x442>
								timeOfReturn.date.year--;
    398e:	80 91 23 02 	lds	r24, 0x0223
    3992:	81 50       	subi	r24, 0x01	; 1
    3994:	80 93 23 02 	sts	0x0223, r24
								timeOfReturn.date.month = 12;
    3998:	8c e0       	ldi	r24, 0x0C	; 12
    399a:	80 93 22 02 	sts	0x0222, r24
							}
							if(maxDays(&timeOfReturn.date) < timeOfReturn.date.date){
    399e:	80 e2       	ldi	r24, 0x20	; 32
    39a0:	92 e0       	ldi	r25, 0x02	; 2
    39a2:	0e 94 ed 0f 	call	0x1fda	; 0x1fda <maxDays>
    39a6:	90 91 21 02 	lds	r25, 0x0221
    39aa:	89 17       	cp	r24, r25
    39ac:	08 f0       	brcs	.+2      	; 0x39b0 <readAndHandleScreen+0x454>
    39ae:	21 c1       	rjmp	.+578    	; 0x3bf2 <readAndHandleScreen+0x696>
								timeOfReturn.date.date = maxDays(&timeOfReturn.date);
    39b0:	80 e2       	ldi	r24, 0x20	; 32
    39b2:	92 e0       	ldi	r25, 0x02	; 2
    39b4:	0e 94 ed 0f 	call	0x1fda	; 0x1fda <maxDays>
    39b8:	80 93 21 02 	sts	0x0221, r24
    39bc:	1a c1       	rjmp	.+564    	; 0x3bf2 <readAndHandleScreen+0x696>
							}								
						}else if(isIn(&stylus, &awayscreenButtonHourUp)){
    39be:	85 eb       	ldi	r24, 0xB5	; 181
    39c0:	91 e0       	ldi	r25, 0x01	; 1
    39c2:	6d e3       	ldi	r22, 0x3D	; 61
    39c4:	72 e0       	ldi	r23, 0x02	; 2
    39c6:	0e 94 ec 19 	call	0x33d8	; 0x33d8 <isIn>
    39ca:	88 23       	and	r24, r24
    39cc:	b9 f1       	breq	.+110    	; 0x3a3c <readAndHandleScreen+0x4e0>
							SETDRAWFLAG(DRAW_AWAYSCREEN);
    39ce:	80 91 16 02 	lds	r24, 0x0216
    39d2:	90 91 17 02 	lds	r25, 0x0217
    39d6:	80 68       	ori	r24, 0x80	; 128
    39d8:	90 93 17 02 	sts	0x0217, r25
    39dc:	80 93 16 02 	sts	0x0216, r24
							timeOfReturn.time.hours++;
    39e0:	80 91 1f 02 	lds	r24, 0x021F
    39e4:	8f 5f       	subi	r24, 0xFF	; 255
    39e6:	80 93 1f 02 	sts	0x021F, r24
							if(timeOfReturn.time.hours == 24){
    39ea:	88 31       	cpi	r24, 0x18	; 24
    39ec:	09 f0       	breq	.+2      	; 0x39f0 <readAndHandleScreen+0x494>
    39ee:	01 c1       	rjmp	.+514    	; 0x3bf2 <readAndHandleScreen+0x696>
								timeOfReturn.time.hours = 0;
    39f0:	10 92 1f 02 	sts	0x021F, r1
								timeOfReturn.date.date ++;
    39f4:	80 91 21 02 	lds	r24, 0x0221
    39f8:	8f 5f       	subi	r24, 0xFF	; 255
    39fa:	80 93 21 02 	sts	0x0221, r24
								if(maxDays(&timeOfReturn.date) < timeOfReturn.date.date){
    39fe:	80 e2       	ldi	r24, 0x20	; 32
    3a00:	92 e0       	ldi	r25, 0x02	; 2
    3a02:	0e 94 ed 0f 	call	0x1fda	; 0x1fda <maxDays>
    3a06:	90 91 21 02 	lds	r25, 0x0221
    3a0a:	89 17       	cp	r24, r25
    3a0c:	90 f4       	brcc	.+36     	; 0x3a32 <readAndHandleScreen+0x4d6>
									timeOfReturn.date.date = 1;
    3a0e:	81 e0       	ldi	r24, 0x01	; 1
    3a10:	80 93 21 02 	sts	0x0221, r24
									timeOfReturn.date.month++;
    3a14:	80 91 22 02 	lds	r24, 0x0222
    3a18:	8f 5f       	subi	r24, 0xFF	; 255
    3a1a:	80 93 22 02 	sts	0x0222, r24
									if(timeOfReturn.date.month == 13){
    3a1e:	8d 30       	cpi	r24, 0x0D	; 13
    3a20:	41 f4       	brne	.+16     	; 0x3a32 <readAndHandleScreen+0x4d6>
										timeOfReturn.date.year++;
    3a22:	80 91 23 02 	lds	r24, 0x0223
    3a26:	8f 5f       	subi	r24, 0xFF	; 255
    3a28:	80 93 23 02 	sts	0x0223, r24
										timeOfReturn.date.month = 1;
    3a2c:	81 e0       	ldi	r24, 0x01	; 1
    3a2e:	80 93 22 02 	sts	0x0222, r24
									}
								}
								getDayOfWeek(&timeOfReturn.date);
    3a32:	80 e2       	ldi	r24, 0x20	; 32
    3a34:	92 e0       	ldi	r25, 0x02	; 2
    3a36:	0e 94 01 10 	call	0x2002	; 0x2002 <getDayOfWeek>
    3a3a:	db c0       	rjmp	.+438    	; 0x3bf2 <readAndHandleScreen+0x696>
							}
						}else if(isIn(&stylus, &awayscreenButtonHourDown)){
    3a3c:	85 eb       	ldi	r24, 0xB5	; 181
    3a3e:	91 e0       	ldi	r25, 0x01	; 1
    3a40:	66 ef       	ldi	r22, 0xF6	; 246
    3a42:	71 e0       	ldi	r23, 0x01	; 1
    3a44:	0e 94 ec 19 	call	0x33d8	; 0x33d8 <isIn>
    3a48:	88 23       	and	r24, r24
    3a4a:	a9 f1       	breq	.+106    	; 0x3ab6 <readAndHandleScreen+0x55a>
							SETDRAWFLAG(DRAW_AWAYSCREEN);
    3a4c:	80 91 16 02 	lds	r24, 0x0216
    3a50:	90 91 17 02 	lds	r25, 0x0217
    3a54:	80 68       	ori	r24, 0x80	; 128
    3a56:	90 93 17 02 	sts	0x0217, r25
    3a5a:	80 93 16 02 	sts	0x0216, r24
							if(timeOfReturn.time.hours == 0){
    3a5e:	80 91 1f 02 	lds	r24, 0x021F
    3a62:	88 23       	and	r24, r24
    3a64:	21 f5       	brne	.+72     	; 0x3aae <readAndHandleScreen+0x552>
								timeOfReturn.time.hours = 23;
    3a66:	87 e1       	ldi	r24, 0x17	; 23
    3a68:	80 93 1f 02 	sts	0x021F, r24
								timeOfReturn.date.date --;
    3a6c:	80 91 21 02 	lds	r24, 0x0221
    3a70:	81 50       	subi	r24, 0x01	; 1
    3a72:	80 93 21 02 	sts	0x0221, r24
								if(timeOfReturn.date.date == 0){
    3a76:	88 23       	and	r24, r24
    3a78:	a9 f4       	brne	.+42     	; 0x3aa4 <readAndHandleScreen+0x548>
									timeOfReturn.date.month--;
    3a7a:	80 91 22 02 	lds	r24, 0x0222
    3a7e:	81 50       	subi	r24, 0x01	; 1
    3a80:	80 93 22 02 	sts	0x0222, r24
									if(timeOfReturn.date.month == 0){
    3a84:	88 23       	and	r24, r24
    3a86:	41 f4       	brne	.+16     	; 0x3a98 <readAndHandleScreen+0x53c>
										timeOfReturn.date.year--;
    3a88:	80 91 23 02 	lds	r24, 0x0223
    3a8c:	81 50       	subi	r24, 0x01	; 1
    3a8e:	80 93 23 02 	sts	0x0223, r24
										timeOfReturn.date.month = 12;
    3a92:	8c e0       	ldi	r24, 0x0C	; 12
    3a94:	80 93 22 02 	sts	0x0222, r24
									}
									timeOfReturn.date.date = maxDays(&timeOfReturn.date);
    3a98:	80 e2       	ldi	r24, 0x20	; 32
    3a9a:	92 e0       	ldi	r25, 0x02	; 2
    3a9c:	0e 94 ed 0f 	call	0x1fda	; 0x1fda <maxDays>
    3aa0:	80 93 21 02 	sts	0x0221, r24
								}
								getDayOfWeek(&timeOfReturn.date);
    3aa4:	80 e2       	ldi	r24, 0x20	; 32
    3aa6:	92 e0       	ldi	r25, 0x02	; 2
    3aa8:	0e 94 01 10 	call	0x2002	; 0x2002 <getDayOfWeek>
    3aac:	a2 c0       	rjmp	.+324    	; 0x3bf2 <readAndHandleScreen+0x696>
							}else{
								timeOfReturn.time.hours--;
    3aae:	81 50       	subi	r24, 0x01	; 1
    3ab0:	80 93 1f 02 	sts	0x021F, r24
    3ab4:	9e c0       	rjmp	.+316    	; 0x3bf2 <readAndHandleScreen+0x696>
							}
						}else if(isIn(&stylus, &awayscreenButtonMinuteUp)){
    3ab6:	85 eb       	ldi	r24, 0xB5	; 181
    3ab8:	91 e0       	ldi	r25, 0x01	; 1
    3aba:	6d e0       	ldi	r22, 0x0D	; 13
    3abc:	72 e0       	ldi	r23, 0x02	; 2
    3abe:	0e 94 ec 19 	call	0x33d8	; 0x33d8 <isIn>
    3ac2:	88 23       	and	r24, r24
    3ac4:	09 f4       	brne	.+2      	; 0x3ac8 <readAndHandleScreen+0x56c>
    3ac6:	41 c0       	rjmp	.+130    	; 0x3b4a <readAndHandleScreen+0x5ee>
							SETDRAWFLAG(DRAW_AWAYSCREEN);
    3ac8:	80 91 16 02 	lds	r24, 0x0216
    3acc:	90 91 17 02 	lds	r25, 0x0217
    3ad0:	80 68       	ori	r24, 0x80	; 128
    3ad2:	90 93 17 02 	sts	0x0217, r25
    3ad6:	80 93 16 02 	sts	0x0216, r24
							timeOfReturn.time.minute++;
    3ada:	80 91 1e 02 	lds	r24, 0x021E
    3ade:	8f 5f       	subi	r24, 0xFF	; 255
    3ae0:	80 93 1e 02 	sts	0x021E, r24
							if(timeOfReturn.time.minute == 60){
    3ae4:	8c 33       	cpi	r24, 0x3C	; 60
    3ae6:	09 f0       	breq	.+2      	; 0x3aea <readAndHandleScreen+0x58e>
    3ae8:	84 c0       	rjmp	.+264    	; 0x3bf2 <readAndHandleScreen+0x696>
								timeOfReturn.time.minute = 0;
    3aea:	10 92 1e 02 	sts	0x021E, r1
								timeOfReturn.time.hours++;
    3aee:	80 91 1f 02 	lds	r24, 0x021F
    3af2:	8f 5f       	subi	r24, 0xFF	; 255
    3af4:	80 93 1f 02 	sts	0x021F, r24
								if(timeOfReturn.time.hours == 24){
    3af8:	88 31       	cpi	r24, 0x18	; 24
    3afa:	09 f0       	breq	.+2      	; 0x3afe <readAndHandleScreen+0x5a2>
    3afc:	7a c0       	rjmp	.+244    	; 0x3bf2 <readAndHandleScreen+0x696>
									timeOfReturn.time.hours = 0;
    3afe:	10 92 1f 02 	sts	0x021F, r1
									timeOfReturn.date.date ++;
    3b02:	80 91 21 02 	lds	r24, 0x0221
    3b06:	8f 5f       	subi	r24, 0xFF	; 255
    3b08:	80 93 21 02 	sts	0x0221, r24
									if(maxDays(&timeOfReturn.date) < timeOfReturn.date.date){
    3b0c:	80 e2       	ldi	r24, 0x20	; 32
    3b0e:	92 e0       	ldi	r25, 0x02	; 2
    3b10:	0e 94 ed 0f 	call	0x1fda	; 0x1fda <maxDays>
    3b14:	90 91 21 02 	lds	r25, 0x0221
    3b18:	89 17       	cp	r24, r25
    3b1a:	90 f4       	brcc	.+36     	; 0x3b40 <readAndHandleScreen+0x5e4>
										timeOfReturn.date.date = 1;
    3b1c:	81 e0       	ldi	r24, 0x01	; 1
    3b1e:	80 93 21 02 	sts	0x0221, r24
										timeOfReturn.date.month++;
    3b22:	80 91 22 02 	lds	r24, 0x0222
    3b26:	8f 5f       	subi	r24, 0xFF	; 255
    3b28:	80 93 22 02 	sts	0x0222, r24
										if(timeOfReturn.date.month == 13){
    3b2c:	8d 30       	cpi	r24, 0x0D	; 13
    3b2e:	41 f4       	brne	.+16     	; 0x3b40 <readAndHandleScreen+0x5e4>
											timeOfReturn.date.year++;
    3b30:	80 91 23 02 	lds	r24, 0x0223
    3b34:	8f 5f       	subi	r24, 0xFF	; 255
    3b36:	80 93 23 02 	sts	0x0223, r24
											timeOfReturn.date.month = 1;
    3b3a:	81 e0       	ldi	r24, 0x01	; 1
    3b3c:	80 93 22 02 	sts	0x0222, r24
										}
									}
									getDayOfWeek(&timeOfReturn.date);
    3b40:	80 e2       	ldi	r24, 0x20	; 32
    3b42:	92 e0       	ldi	r25, 0x02	; 2
    3b44:	0e 94 01 10 	call	0x2002	; 0x2002 <getDayOfWeek>
    3b48:	54 c0       	rjmp	.+168    	; 0x3bf2 <readAndHandleScreen+0x696>
								}									
							}
						}else if(isIn(&stylus, &awayscreenButtonMinuteDown)){
    3b4a:	85 eb       	ldi	r24, 0xB5	; 181
    3b4c:	91 e0       	ldi	r25, 0x01	; 1
    3b4e:	69 e2       	ldi	r22, 0x29	; 41
    3b50:	72 e0       	ldi	r23, 0x02	; 2
    3b52:	0e 94 ec 19 	call	0x33d8	; 0x33d8 <isIn>
    3b56:	88 23       	and	r24, r24
    3b58:	09 f4       	brne	.+2      	; 0x3b5c <readAndHandleScreen+0x600>
    3b5a:	4b c0       	rjmp	.+150    	; 0x3bf2 <readAndHandleScreen+0x696>
							SETDRAWFLAG(DRAW_AWAYSCREEN);
    3b5c:	80 91 16 02 	lds	r24, 0x0216
    3b60:	90 91 17 02 	lds	r25, 0x0217
    3b64:	80 68       	ori	r24, 0x80	; 128
    3b66:	90 93 17 02 	sts	0x0217, r25
    3b6a:	80 93 16 02 	sts	0x0216, r24
							
							if(timeOfReturn.time.minute == 0){
    3b6e:	80 91 1e 02 	lds	r24, 0x021E
    3b72:	88 23       	and	r24, r24
    3b74:	79 f5       	brne	.+94     	; 0x3bd4 <readAndHandleScreen+0x678>
								timeOfReturn.time.minute = 59;
    3b76:	8b e3       	ldi	r24, 0x3B	; 59
    3b78:	80 93 1e 02 	sts	0x021E, r24
								if(timeOfReturn.time.hours == 0){
    3b7c:	80 91 1f 02 	lds	r24, 0x021F
    3b80:	88 23       	and	r24, r24
    3b82:	21 f5       	brne	.+72     	; 0x3bcc <readAndHandleScreen+0x670>
									timeOfReturn.time.hours = 23;
    3b84:	87 e1       	ldi	r24, 0x17	; 23
    3b86:	80 93 1f 02 	sts	0x021F, r24
									timeOfReturn.date.date --;
    3b8a:	80 91 21 02 	lds	r24, 0x0221
    3b8e:	81 50       	subi	r24, 0x01	; 1
    3b90:	80 93 21 02 	sts	0x0221, r24
									if(timeOfReturn.date.date == 0){
    3b94:	88 23       	and	r24, r24
    3b96:	a9 f4       	brne	.+42     	; 0x3bc2 <readAndHandleScreen+0x666>
										timeOfReturn.date.month--;
    3b98:	80 91 22 02 	lds	r24, 0x0222
    3b9c:	81 50       	subi	r24, 0x01	; 1
    3b9e:	80 93 22 02 	sts	0x0222, r24
										if(timeOfReturn.date.month == 0){
    3ba2:	88 23       	and	r24, r24
    3ba4:	41 f4       	brne	.+16     	; 0x3bb6 <readAndHandleScreen+0x65a>
											timeOfReturn.date.year--;
    3ba6:	80 91 23 02 	lds	r24, 0x0223
    3baa:	81 50       	subi	r24, 0x01	; 1
    3bac:	80 93 23 02 	sts	0x0223, r24
											timeOfReturn.date.month = 12;
    3bb0:	8c e0       	ldi	r24, 0x0C	; 12
    3bb2:	80 93 22 02 	sts	0x0222, r24
										}
										timeOfReturn.date.date = maxDays(&timeOfReturn.date);
    3bb6:	80 e2       	ldi	r24, 0x20	; 32
    3bb8:	92 e0       	ldi	r25, 0x02	; 2
    3bba:	0e 94 ed 0f 	call	0x1fda	; 0x1fda <maxDays>
    3bbe:	80 93 21 02 	sts	0x0221, r24
									}
									getDayOfWeek(&timeOfReturn.date);
    3bc2:	80 e2       	ldi	r24, 0x20	; 32
    3bc4:	92 e0       	ldi	r25, 0x02	; 2
    3bc6:	0e 94 01 10 	call	0x2002	; 0x2002 <getDayOfWeek>
    3bca:	13 c0       	rjmp	.+38     	; 0x3bf2 <readAndHandleScreen+0x696>
								}else{
									timeOfReturn.time.hours--;
    3bcc:	81 50       	subi	r24, 0x01	; 1
    3bce:	80 93 1f 02 	sts	0x021F, r24
    3bd2:	0f c0       	rjmp	.+30     	; 0x3bf2 <readAndHandleScreen+0x696>
								}
							}else{
								timeOfReturn.time.minute--;
    3bd4:	81 50       	subi	r24, 0x01	; 1
    3bd6:	80 93 1e 02 	sts	0x021E, r24
    3bda:	0b c0       	rjmp	.+22     	; 0x3bf2 <readAndHandleScreen+0x696>
							}
						}
					}
				}else{
					//That means it went up!
					SETDRAWFLAG(DRAW_BUTTONS);
    3bdc:	80 91 16 02 	lds	r24, 0x0216
    3be0:	90 91 17 02 	lds	r25, 0x0217
    3be4:	92 60       	ori	r25, 0x02	; 2
    3be6:	90 93 17 02 	sts	0x0217, r25
    3bea:	80 93 16 02 	sts	0x0216, r24
					button_pressed = 0;
    3bee:	10 92 18 02 	sts	0x0218, r1
				}
				lastAction = 0;
    3bf2:	10 92 38 02 	sts	0x0238, r1
			}				
			oldStylus = stylus;
    3bf6:	a8 eb       	ldi	r26, 0xB8	; 184
    3bf8:	b1 e0       	ldi	r27, 0x01	; 1
    3bfa:	e5 eb       	ldi	r30, 0xB5	; 181
    3bfc:	f1 e0       	ldi	r31, 0x01	; 1
    3bfe:	83 e0       	ldi	r24, 0x03	; 3
    3c00:	01 90       	ld	r0, Z+
    3c02:	0d 92       	st	X+, r0
    3c04:	81 50       	subi	r24, 0x01	; 1
    3c06:	e1 f7       	brne	.-8      	; 0x3c00 <readAndHandleScreen+0x6a4>
				
		}
		if(oldSetTemp != setTemp){
    3c08:	e0 90 d9 01 	lds	r14, 0x01D9
    3c0c:	f0 90 da 01 	lds	r15, 0x01DA
    3c10:	00 91 db 01 	lds	r16, 0x01DB
    3c14:	10 91 dc 01 	lds	r17, 0x01DC
    3c18:	60 91 dd 01 	lds	r22, 0x01DD
    3c1c:	70 91 de 01 	lds	r23, 0x01DE
    3c20:	80 91 df 01 	lds	r24, 0x01DF
    3c24:	90 91 e0 01 	lds	r25, 0x01E0
    3c28:	a8 01       	movw	r20, r16
    3c2a:	97 01       	movw	r18, r14
    3c2c:	0e 94 e2 23 	call	0x47c4	; 0x47c4 <__cmpsf2>
    3c30:	88 23       	and	r24, r24
    3c32:	89 f0       	breq	.+34     	; 0x3c56 <readAndHandleScreen+0x6fa>
			oldSetTemp = setTemp;
    3c34:	e0 92 dd 01 	sts	0x01DD, r14
    3c38:	f0 92 de 01 	sts	0x01DE, r15
    3c3c:	00 93 df 01 	sts	0x01DF, r16
    3c40:	10 93 e0 01 	sts	0x01E0, r17
			SETDRAWFLAG(DRAW_SET);
    3c44:	80 91 16 02 	lds	r24, 0x0216
    3c48:	90 91 17 02 	lds	r25, 0x0217
    3c4c:	91 60       	ori	r25, 0x01	; 1
    3c4e:	90 93 17 02 	sts	0x0217, r25
    3c52:	80 93 16 02 	sts	0x0216, r24
		}
	}
    3c56:	0f 90       	pop	r0
    3c58:	0f 90       	pop	r0
    3c5a:	0f 90       	pop	r0
    3c5c:	cf 91       	pop	r28
    3c5e:	df 91       	pop	r29
    3c60:	1f 91       	pop	r17
    3c62:	0f 91       	pop	r16
    3c64:	ff 90       	pop	r15
    3c66:	ef 90       	pop	r14
    3c68:	08 95       	ret

00003c6a <init_io>:

void init_io(void){
	//Init direction registers
	// 1 = output
	// 0 = input
	DDR_BUTTONS &= ~(BUTTON_WAKE | BUTTON_ON | BUTTON_OFF);
    3c6a:	87 b1       	in	r24, 0x07	; 7
    3c6c:	87 7c       	andi	r24, 0xC7	; 199
    3c6e:	87 b9       	out	0x07, r24	; 7
	PORT_BUTTONS |= BUTTON_WAKE | BUTTON_ON | BUTTON_OFF;
    3c70:	88 b1       	in	r24, 0x08	; 8
    3c72:	88 63       	ori	r24, 0x38	; 56
    3c74:	88 b9       	out	0x08, r24	; 8
	
	DDR_LCD |= LCD;
    3c76:	3a 9a       	sbi	0x07, 2	; 7
	PORT_LCD &= ~LCD;
    3c78:	42 98       	cbi	0x08, 2	; 8
	
	DDR_CVP |= CVP_ON | CVP_OFF;
    3c7a:	87 b1       	in	r24, 0x07	; 7
    3c7c:	80 6c       	ori	r24, 0xC0	; 192
    3c7e:	87 b9       	out	0x07, r24	; 7
	PORT_CVP &= ~(CVP_ON | CVP_OFF);
    3c80:	88 b1       	in	r24, 0x08	; 8
    3c82:	8f 73       	andi	r24, 0x3F	; 63
    3c84:	88 b9       	out	0x08, r24	; 8
	
	DDR_LED |= LED;
    3c86:	0c 9a       	sbi	0x01, 4	; 1
	PORT_LED &= ~LED;
    3c88:	14 98       	cbi	0x02, 4	; 2
	
	//Enable pin change interrupt:
	PCICR |= (1 << PCIE2);
    3c8a:	e8 e6       	ldi	r30, 0x68	; 104
    3c8c:	f0 e0       	ldi	r31, 0x00	; 0
    3c8e:	80 81       	ld	r24, Z
    3c90:	84 60       	ori	r24, 0x04	; 4
    3c92:	80 83       	st	Z, r24
	PCMSK2 |= (1 << PCINT19);
    3c94:	ed e6       	ldi	r30, 0x6D	; 109
    3c96:	f0 e0       	ldi	r31, 0x00	; 0
    3c98:	80 81       	ld	r24, Z
    3c9a:	88 60       	ori	r24, 0x08	; 8
    3c9c:	80 83       	st	Z, r24
	
}
    3c9e:	08 95       	ret

00003ca0 <checkButtons>:


void checkButtons(void){
	if(CHECKFLAG(FLAG_AWAKE)){
    3ca0:	80 91 36 02 	lds	r24, 0x0236
    3ca4:	81 ff       	sbrs	r24, 1
    3ca6:	47 c0       	rjmp	.+142    	; 0x3d36 <checkButtons+0x96>
		if((PIN_BUTTONS & BUTTON_ON) == 0){
    3ca8:	34 99       	sbic	0x06, 4	; 6
    3caa:	21 c0       	rjmp	.+66     	; 0x3cee <checkButtons+0x4e>
			//Set preset
			activePreset = &prs_sun;
    3cac:	82 e5       	ldi	r24, 0x52	; 82
    3cae:	91 e0       	ldi	r25, 0x01	; 1
    3cb0:	90 93 42 02 	sts	0x0242, r25
    3cb4:	80 93 41 02 	sts	0x0241, r24
			setTemp = activePreset->setTemp;
    3cb8:	80 91 54 01 	lds	r24, 0x0154
    3cbc:	90 91 55 01 	lds	r25, 0x0155
    3cc0:	a0 91 56 01 	lds	r26, 0x0156
    3cc4:	b0 91 57 01 	lds	r27, 0x0157
    3cc8:	80 93 d9 01 	sts	0x01D9, r24
    3ccc:	90 93 da 01 	sts	0x01DA, r25
    3cd0:	a0 93 db 01 	sts	0x01DB, r26
    3cd4:	b0 93 dc 01 	sts	0x01DC, r27
			SETDRAWFLAG(DRAW_PRESET);
    3cd8:	80 91 16 02 	lds	r24, 0x0216
    3cdc:	90 91 17 02 	lds	r25, 0x0217
    3ce0:	94 60       	ori	r25, 0x04	; 4
    3ce2:	90 93 17 02 	sts	0x0217, r25
    3ce6:	80 93 16 02 	sts	0x0216, r24
			lastAction = 0;
    3cea:	10 92 38 02 	sts	0x0238, r1
		}
		if((PIN_BUTTONS & BUTTON_OFF) == 0){
    3cee:	35 99       	sbic	0x06, 5	; 6
    3cf0:	23 c0       	rjmp	.+70     	; 0x3d38 <checkButtons+0x98>
			//Set preset
			activePreset = &prs_moon;
    3cf2:	8b e5       	ldi	r24, 0x5B	; 91
    3cf4:	91 e0       	ldi	r25, 0x01	; 1
    3cf6:	90 93 42 02 	sts	0x0242, r25
    3cfa:	80 93 41 02 	sts	0x0241, r24
			setTemp = activePreset->setTemp;
    3cfe:	80 91 5d 01 	lds	r24, 0x015D
    3d02:	90 91 5e 01 	lds	r25, 0x015E
    3d06:	a0 91 5f 01 	lds	r26, 0x015F
    3d0a:	b0 91 60 01 	lds	r27, 0x0160
    3d0e:	80 93 d9 01 	sts	0x01D9, r24
    3d12:	90 93 da 01 	sts	0x01DA, r25
    3d16:	a0 93 db 01 	sts	0x01DB, r26
    3d1a:	b0 93 dc 01 	sts	0x01DC, r27
			SETDRAWFLAG(DRAW_PRESET);
    3d1e:	80 91 16 02 	lds	r24, 0x0216
    3d22:	90 91 17 02 	lds	r25, 0x0217
    3d26:	94 60       	ori	r25, 0x04	; 4
    3d28:	90 93 17 02 	sts	0x0217, r25
    3d2c:	80 93 16 02 	sts	0x0216, r24
			lastAction = 0;
    3d30:	10 92 38 02 	sts	0x0238, r1
    3d34:	08 95       	ret
		}
	}else{
		if((PIN_BUTTONS & BUTTON_WAKE) == 0){
    3d36:	86 b1       	in	r24, 0x06	; 6
    3d38:	08 95       	ret

00003d3a <__vector_6>:
			lastAction = 0;	*/
		}
	}
}

ISR(PCINT2_vect){
    3d3a:	1f 92       	push	r1
    3d3c:	0f 92       	push	r0
    3d3e:	0f b6       	in	r0, 0x3f	; 63
    3d40:	0f 92       	push	r0
    3d42:	11 24       	eor	r1, r1
    3d44:	8f 93       	push	r24
    3d46:	9f 93       	push	r25
	if(!CHECKFLAG(FLAG_AWAKE)){
    3d48:	80 91 36 02 	lds	r24, 0x0236
    3d4c:	90 91 37 02 	lds	r25, 0x0237
    3d50:	81 fd       	sbrc	r24, 1
    3d52:	08 c0       	rjmp	.+16     	; 0x3d64 <__vector_6+0x2a>
		//Come out of sleep mode
		SETFLAG(FLAG_WAKE);
    3d54:	94 60       	ori	r25, 0x04	; 4
    3d56:	90 93 37 02 	sts	0x0237, r25
    3d5a:	80 93 36 02 	sts	0x0236, r24
		sleep_disable();
    3d5e:	83 b7       	in	r24, 0x33	; 51
    3d60:	8e 7f       	andi	r24, 0xFE	; 254
    3d62:	83 bf       	out	0x33, r24	; 51
	}
	if(PORT_LED & LED){
    3d64:	14 9b       	sbis	0x02, 4	; 2
    3d66:	02 c0       	rjmp	.+4      	; 0x3d6c <__vector_6+0x32>
		LED_UIT();
    3d68:	14 98       	cbi	0x02, 4	; 2
    3d6a:	01 c0       	rjmp	.+2      	; 0x3d6e <__vector_6+0x34>
	}else{
		LED_AAN();
    3d6c:	14 9a       	sbi	0x02, 4	; 2
	}
    3d6e:	9f 91       	pop	r25
    3d70:	8f 91       	pop	r24
    3d72:	0f 90       	pop	r0
    3d74:	0f be       	out	0x3f, r0	; 63
    3d76:	0f 90       	pop	r0
    3d78:	1f 90       	pop	r1
    3d7a:	18 95       	reti

00003d7c <main>:
#include "Headers/ds1307.h"
#include "Headers/timer.h"



int main(void){
    3d7c:	6f 92       	push	r6
    3d7e:	7f 92       	push	r7
    3d80:	8f 92       	push	r8
    3d82:	9f 92       	push	r9
    3d84:	af 92       	push	r10
    3d86:	bf 92       	push	r11
    3d88:	cf 92       	push	r12
    3d8a:	df 92       	push	r13
    3d8c:	ef 92       	push	r14
    3d8e:	ff 92       	push	r15
    3d90:	0f 93       	push	r16
    3d92:	1f 93       	push	r17
    3d94:	cf 93       	push	r28
    3d96:	df 93       	push	r29
	activePreset = &prs_sun;
    3d98:	82 e5       	ldi	r24, 0x52	; 82
    3d9a:	91 e0       	ldi	r25, 0x01	; 1
    3d9c:	90 93 42 02 	sts	0x0242, r25
    3da0:	80 93 41 02 	sts	0x0241, r24
	init_pwm();
    3da4:	0e 94 83 21 	call	0x4306	; 0x4306 <init_pwm>
	PWM_BACKLIGHT = 255;
    3da8:	8f ef       	ldi	r24, 0xFF	; 255
    3daa:	80 93 b3 00 	sts	0x00B3, r24
	init_adc();
    3dae:	0e 94 3c 08 	call	0x1078	; 0x1078 <init_adc>
	init_io();
    3db2:	0e 94 35 1e 	call	0x3c6a	; 0x3c6a <init_io>
	init_display();
    3db6:	0e 94 52 13 	call	0x26a4	; 0x26a4 <init_display>
	init_uart();
    3dba:	0e 94 2d 23 	call	0x465a	; 0x465a <init_uart>
	init_ds1820();
    3dbe:	0e 94 f6 20 	call	0x41ec	; 0x41ec <init_ds1820>
	init_ds1307();
    3dc2:	0e 94 e1 0f 	call	0x1fc2	; 0x1fc2 <init_ds1307>
	init_timer1();
    3dc6:	0e 94 94 21 	call	0x4328	; 0x4328 <init_timer1>
	sei();
    3dca:	78 94       	sei
	
	
	printf("Init complete!\r\n");
    3dcc:	82 e4       	ldi	r24, 0x42	; 66
    3dce:	91 e0       	ldi	r25, 0x01	; 1
    3dd0:	0e 94 db 25 	call	0x4bb6	; 0x4bb6 <puts>
	SETDRAWFLAG(DRAW_ALL);
    3dd4:	80 91 16 02 	lds	r24, 0x0216
    3dd8:	90 91 17 02 	lds	r25, 0x0217
    3ddc:	88 67       	ori	r24, 0x78	; 120
    3dde:	9f 61       	ori	r25, 0x1F	; 31
    3de0:	90 93 17 02 	sts	0x0217, r25
    3de4:	80 93 16 02 	sts	0x0216, r24
	SETFLAG(FLAG_AWAKE);
    3de8:	80 91 36 02 	lds	r24, 0x0236
    3dec:	90 91 37 02 	lds	r25, 0x0237
    3df0:	82 60       	ori	r24, 0x02	; 2
    3df2:	90 93 37 02 	sts	0x0237, r25
    3df6:	80 93 36 02 	sts	0x0236, r24
	toWrite.time.minute = 35;
	toWrite.time.hours = 13;
	
	Write_DS1307(&toWrite);
	*/
	Read_DS1307(&currentDateTime);
    3dfa:	83 ec       	ldi	r24, 0xC3	; 195
    3dfc:	91 e0       	ldi	r25, 0x01	; 1
    3dfe:	0e 94 f0 10 	call	0x21e0	; 0x21e0 <Read_DS1307>
	ds1820_read(&tempIntern);
    3e02:	8a ec       	ldi	r24, 0xCA	; 202
    3e04:	91 e0       	ldi	r25, 0x01	; 1
    3e06:	0e 94 3e 21 	call	0x427c	; 0x427c <ds1820_read>
	ds1820_read(&tempExtern);
    3e0a:	8e ef       	ldi	r24, 0xFE	; 254
    3e0c:	91 e0       	ldi	r25, 0x01	; 1
    3e0e:	0e 94 3e 21 	call	0x427c	; 0x427c <ds1820_read>
	
	drawMainScreen();
    3e12:	0e 94 43 19 	call	0x3286	; 0x3286 <drawMainScreen>
	CV_OFF();
    3e16:	46 9a       	sbi	0x08, 6	; 8
    3e18:	87 ea       	ldi	r24, 0xA7	; 167
    3e1a:	91 e6       	ldi	r25, 0x61	; 97
    3e1c:	01 97       	sbiw	r24, 0x01	; 1
    3e1e:	f1 f7       	brne	.-4      	; 0x3e1c <main+0xa0>
    3e20:	00 c0       	rjmp	.+0      	; 0x3e22 <main+0xa6>
    3e22:	00 00       	nop
    3e24:	46 98       	cbi	0x08, 6	; 8
    3e26:	80 91 16 02 	lds	r24, 0x0216
    3e2a:	90 91 17 02 	lds	r25, 0x0217
    3e2e:	90 64       	ori	r25, 0x40	; 64
    3e30:	90 93 17 02 	sts	0x0217, r25
    3e34:	80 93 16 02 	sts	0x0216, r24
	
	timeOfReturn.date.date = 11;
    3e38:	8b e0       	ldi	r24, 0x0B	; 11
    3e3a:	80 93 21 02 	sts	0x0221, r24
	timeOfReturn.date.month = 02;
    3e3e:	82 e0       	ldi	r24, 0x02	; 2
    3e40:	80 93 22 02 	sts	0x0222, r24
	timeOfReturn.date.year = 13;
    3e44:	8d e0       	ldi	r24, 0x0D	; 13
    3e46:	80 93 23 02 	sts	0x0223, r24
	timeOfReturn.time.hours = 19;
    3e4a:	83 e1       	ldi	r24, 0x13	; 19
    3e4c:	80 93 1f 02 	sts	0x021F, r24
	timeOfReturn.time.minute = 20;
    3e50:	84 e1       	ldi	r24, 0x14	; 20
    3e52:	80 93 1e 02 	sts	0x021E, r24
	
	getDayOfWeek(&timeOfReturn.date);
    3e56:	80 e2       	ldi	r24, 0x20	; 32
    3e58:	92 e0       	ldi	r25, 0x02	; 2
    3e5a:	0e 94 01 10 	call	0x2002	; 0x2002 <getDayOfWeek>
	//SETFLAG(FLAG_AWAYSCREEN);
	//SETDRAWFLAG(DRAW_AWAYSCREEN);
	
	drawMainScreen();
    3e5e:	0e 94 43 19 	call	0x3286	; 0x3286 <drawMainScreen>
	power_timer0_disable();
    3e62:	e4 e6       	ldi	r30, 0x64	; 100
    3e64:	f0 e0       	ldi	r31, 0x00	; 0
    3e66:	80 81       	ld	r24, Z
    3e68:	80 62       	ori	r24, 0x20	; 32
    3e6a:	80 83       	st	Z, r24
	power_spi_disable();
    3e6c:	80 81       	ld	r24, Z
    3e6e:	84 60       	ori	r24, 0x04	; 4
    3e70:	80 83       	st	Z, r24
	set_sleep_mode(SLEEP_MODE_STANDBY);
    3e72:	83 b7       	in	r24, 0x33	; 51
    3e74:	81 7f       	andi	r24, 0xF1	; 241
    3e76:	8c 60       	ori	r24, 0x0C	; 12
    3e78:	83 bf       	out	0x33, r24	; 51
		if(CHECKFLAG(FLAG_AWAKE)){
			checkButtons();
			readAndHandleScreen();
			drawMainScreen();
			if(CHECKFLAG(FLAG_READTIME)){
				Read_DS1307(&currentDateTime);
    3e7a:	0f 2e       	mov	r0, r31
    3e7c:	f3 ec       	ldi	r31, 0xC3	; 195
    3e7e:	6f 2e       	mov	r6, r31
    3e80:	f1 e0       	ldi	r31, 0x01	; 1
    3e82:	7f 2e       	mov	r7, r31
    3e84:	f0 2d       	mov	r31, r0
				SETFLAG(FLAG_READTIME);
				lastAction = 0;	
				SETFLAG(FLAG_AWAKE);
				RESETFLAG(FLAG_WAKE);
				
				power_twi_enable();
    3e86:	c4 e6       	ldi	r28, 0x64	; 100
    3e88:	d0 e0       	ldi	r29, 0x00	; 0
			}
		}
		
		timer();
		
		if(tempIntern.lastReading <= setTemp-0.5 && !CHECKFLAG(FLAG_CV_ON) && !CHECKFLAG(FLAG_BATTERYTOOLOW)){
    3e8a:	0f 2e       	mov	r0, r31
    3e8c:	fa ec       	ldi	r31, 0xCA	; 202
    3e8e:	8f 2e       	mov	r8, r31
    3e90:	f1 e0       	ldi	r31, 0x01	; 1
    3e92:	9f 2e       	mov	r9, r31
    3e94:	f0 2d       	mov	r31, r0
	drawMainScreen();
	power_timer0_disable();
	power_spi_disable();
	set_sleep_mode(SLEEP_MODE_STANDBY);
    while(1){
		if(CHECKFLAG(FLAG_AWAKE)){
    3e96:	80 91 36 02 	lds	r24, 0x0236
    3e9a:	90 91 37 02 	lds	r25, 0x0237
    3e9e:	81 ff       	sbrs	r24, 1
    3ea0:	17 c0       	rjmp	.+46     	; 0x3ed0 <main+0x154>
			checkButtons();
    3ea2:	0e 94 50 1e 	call	0x3ca0	; 0x3ca0 <checkButtons>
			readAndHandleScreen();
    3ea6:	0e 94 ae 1a 	call	0x355c	; 0x355c <readAndHandleScreen>
			drawMainScreen();
    3eaa:	0e 94 43 19 	call	0x3286	; 0x3286 <drawMainScreen>
			if(CHECKFLAG(FLAG_READTIME)){
    3eae:	80 91 36 02 	lds	r24, 0x0236
    3eb2:	87 ff       	sbrs	r24, 7
    3eb4:	37 c0       	rjmp	.+110    	; 0x3f24 <main+0x1a8>
				Read_DS1307(&currentDateTime);
    3eb6:	c3 01       	movw	r24, r6
    3eb8:	0e 94 f0 10 	call	0x21e0	; 0x21e0 <Read_DS1307>
				RESETFLAG(FLAG_READTIME);
    3ebc:	80 91 36 02 	lds	r24, 0x0236
    3ec0:	90 91 37 02 	lds	r25, 0x0237
    3ec4:	8f 77       	andi	r24, 0x7F	; 127
    3ec6:	90 93 37 02 	sts	0x0237, r25
    3eca:	80 93 36 02 	sts	0x0236, r24
    3ece:	2a c0       	rjmp	.+84     	; 0x3f24 <main+0x1a8>
			}
		}else{
			if(CHECKFLAG(FLAG_WAKE)){
    3ed0:	92 ff       	sbrs	r25, 2
    3ed2:	28 c0       	rjmp	.+80     	; 0x3f24 <main+0x1a8>
				turnLcdOn();
    3ed4:	0e 94 c0 19 	call	0x3380	; 0x3380 <turnLcdOn>
				SETDRAWFLAG(DRAW_ALL);
    3ed8:	20 91 16 02 	lds	r18, 0x0216
    3edc:	30 91 17 02 	lds	r19, 0x0217
    3ee0:	28 67       	ori	r18, 0x78	; 120
    3ee2:	3f 61       	ori	r19, 0x1F	; 31
    3ee4:	30 93 17 02 	sts	0x0217, r19
    3ee8:	20 93 16 02 	sts	0x0216, r18
				if(CHECKFLAG(FLAG_CV_ON)){
    3eec:	80 91 36 02 	lds	r24, 0x0236
    3ef0:	90 91 37 02 	lds	r25, 0x0237
    3ef4:	80 ff       	sbrs	r24, 0
    3ef6:	05 c0       	rjmp	.+10     	; 0x3f02 <main+0x186>
					SETDRAWFLAG(DRAW_CV_ON);
    3ef8:	21 60       	ori	r18, 0x01	; 1
    3efa:	30 93 17 02 	sts	0x0217, r19
    3efe:	20 93 16 02 	sts	0x0216, r18
				}
				SETFLAG(FLAG_READTIME);
				lastAction = 0;	
    3f02:	10 92 38 02 	sts	0x0238, r1
				SETFLAG(FLAG_AWAKE);
    3f06:	82 68       	ori	r24, 0x82	; 130
				RESETFLAG(FLAG_WAKE);
    3f08:	9b 7f       	andi	r25, 0xFB	; 251
    3f0a:	90 93 37 02 	sts	0x0237, r25
    3f0e:	80 93 36 02 	sts	0x0236, r24
				
				power_twi_enable();
    3f12:	88 81       	ld	r24, Y
    3f14:	8f 77       	andi	r24, 0x7F	; 127
    3f16:	88 83       	st	Y, r24
				power_timer2_enable();
    3f18:	88 81       	ld	r24, Y
    3f1a:	8f 7b       	andi	r24, 0xBF	; 191
    3f1c:	88 83       	st	Y, r24
				power_adc_enable();
    3f1e:	88 81       	ld	r24, Y
    3f20:	8e 7f       	andi	r24, 0xFE	; 254
    3f22:	88 83       	st	Y, r24
			}
		}
		
		timer();
    3f24:	0e 94 a7 21 	call	0x434e	; 0x434e <timer>
		
		if(tempIntern.lastReading <= setTemp-0.5 && !CHECKFLAG(FLAG_CV_ON) && !CHECKFLAG(FLAG_BATTERYTOOLOW)){
    3f28:	f4 01       	movw	r30, r8
    3f2a:	e0 80       	ld	r14, Z
    3f2c:	f1 80       	ldd	r15, Z+1	; 0x01
    3f2e:	02 81       	ldd	r16, Z+2	; 0x02
    3f30:	13 81       	ldd	r17, Z+3	; 0x03
    3f32:	a0 90 d9 01 	lds	r10, 0x01D9
    3f36:	b0 90 da 01 	lds	r11, 0x01DA
    3f3a:	c0 90 db 01 	lds	r12, 0x01DB
    3f3e:	d0 90 dc 01 	lds	r13, 0x01DC
    3f42:	c6 01       	movw	r24, r12
    3f44:	b5 01       	movw	r22, r10
    3f46:	20 e0       	ldi	r18, 0x00	; 0
    3f48:	30 e0       	ldi	r19, 0x00	; 0
    3f4a:	40 e0       	ldi	r20, 0x00	; 0
    3f4c:	5f e3       	ldi	r21, 0x3F	; 63
    3f4e:	0e 94 7d 23 	call	0x46fa	; 0x46fa <__subsf3>
    3f52:	9b 01       	movw	r18, r22
    3f54:	ac 01       	movw	r20, r24
    3f56:	c8 01       	movw	r24, r16
    3f58:	b7 01       	movw	r22, r14
    3f5a:	0e 94 e2 23 	call	0x47c4	; 0x47c4 <__cmpsf2>
    3f5e:	18 16       	cp	r1, r24
    3f60:	fc f0       	brlt	.+62     	; 0x3fa0 <main+0x224>
    3f62:	80 91 36 02 	lds	r24, 0x0236
    3f66:	90 91 37 02 	lds	r25, 0x0237
    3f6a:	80 fd       	sbrc	r24, 0
    3f6c:	19 c0       	rjmp	.+50     	; 0x3fa0 <main+0x224>
    3f6e:	86 fd       	sbrc	r24, 6
    3f70:	17 c0       	rjmp	.+46     	; 0x3fa0 <main+0x224>
			SETFLAG(FLAG_CV_ON);
    3f72:	81 60       	ori	r24, 0x01	; 1
    3f74:	90 93 37 02 	sts	0x0237, r25
    3f78:	80 93 36 02 	sts	0x0236, r24
			CV_ON();			
    3f7c:	47 9a       	sbi	0x08, 7	; 8
    3f7e:	87 ea       	ldi	r24, 0xA7	; 167
    3f80:	91 e6       	ldi	r25, 0x61	; 97
    3f82:	01 97       	sbiw	r24, 0x01	; 1
    3f84:	f1 f7       	brne	.-4      	; 0x3f82 <main+0x206>
    3f86:	00 c0       	rjmp	.+0      	; 0x3f88 <main+0x20c>
    3f88:	00 00       	nop
    3f8a:	47 98       	cbi	0x08, 7	; 8
    3f8c:	80 91 16 02 	lds	r24, 0x0216
    3f90:	90 91 17 02 	lds	r25, 0x0217
    3f94:	81 60       	ori	r24, 0x01	; 1
    3f96:	90 93 17 02 	sts	0x0217, r25
    3f9a:	80 93 16 02 	sts	0x0216, r24
    3f9e:	7b cf       	rjmp	.-266    	; 0x3e96 <main+0x11a>
		}else if(tempIntern.lastReading >= setTemp && CHECKFLAG(FLAG_CV_ON)){
    3fa0:	c8 01       	movw	r24, r16
    3fa2:	b7 01       	movw	r22, r14
    3fa4:	a6 01       	movw	r20, r12
    3fa6:	95 01       	movw	r18, r10
    3fa8:	0e 94 2c 25 	call	0x4a58	; 0x4a58 <__gesf2>
    3fac:	88 23       	and	r24, r24
    3fae:	0c f4       	brge	.+2      	; 0x3fb2 <main+0x236>
    3fb0:	72 cf       	rjmp	.-284    	; 0x3e96 <main+0x11a>
    3fb2:	80 91 36 02 	lds	r24, 0x0236
    3fb6:	90 91 37 02 	lds	r25, 0x0237
    3fba:	80 ff       	sbrs	r24, 0
    3fbc:	6c cf       	rjmp	.-296    	; 0x3e96 <main+0x11a>
			RESETFLAG(FLAG_CV_ON);
    3fbe:	8e 7f       	andi	r24, 0xFE	; 254
    3fc0:	90 93 37 02 	sts	0x0237, r25
    3fc4:	80 93 36 02 	sts	0x0236, r24
			CV_OFF();				
    3fc8:	46 9a       	sbi	0x08, 6	; 8
    3fca:	e7 ea       	ldi	r30, 0xA7	; 167
    3fcc:	f1 e6       	ldi	r31, 0x61	; 97
    3fce:	31 97       	sbiw	r30, 0x01	; 1
    3fd0:	f1 f7       	brne	.-4      	; 0x3fce <main+0x252>
    3fd2:	00 c0       	rjmp	.+0      	; 0x3fd4 <main+0x258>
    3fd4:	00 00       	nop
    3fd6:	46 98       	cbi	0x08, 6	; 8
    3fd8:	80 91 16 02 	lds	r24, 0x0216
    3fdc:	90 91 17 02 	lds	r25, 0x0217
    3fe0:	90 64       	ori	r25, 0x40	; 64
    3fe2:	90 93 17 02 	sts	0x0217, r25
    3fe6:	80 93 16 02 	sts	0x0216, r24
    3fea:	55 cf       	rjmp	.-342    	; 0x3e96 <main+0x11a>

00003fec <ow_input_pin_state>:
#include <util/atomic.h>
#include "Headers/config.h"
#include "Headers/onewire.h"


uint8_t ow_input_pin_state(tempSensor* sensor){
    3fec:	fc 01       	movw	r30, r24
	return (*sensor->pin & sensor->loc); //OW_GET_IN();
    3fee:	a2 85       	ldd	r26, Z+10	; 0x0a
    3ff0:	b3 85       	ldd	r27, Z+11	; 0x0b
    3ff2:	9c 91       	ld	r25, X
    3ff4:	86 85       	ldd	r24, Z+14	; 0x0e
}
    3ff6:	89 23       	and	r24, r25
    3ff8:	08 95       	ret

00003ffa <ow_parasite_enable>:

void ow_parasite_enable(tempSensor *sensor){
    3ffa:	fc 01       	movw	r30, r24
	*sensor->port |= sensor->loc; //OW_OUT_HIGH();
    3ffc:	a0 85       	ldd	r26, Z+8	; 0x08
    3ffe:	b1 85       	ldd	r27, Z+9	; 0x09
    4000:	9c 91       	ld	r25, X
    4002:	86 85       	ldd	r24, Z+14	; 0x0e
    4004:	89 2b       	or	r24, r25
    4006:	8c 93       	st	X, r24
	 *sensor->ddr |= sensor->loc; //OW_DIR_OUT();
    4008:	a4 85       	ldd	r26, Z+12	; 0x0c
    400a:	b5 85       	ldd	r27, Z+13	; 0x0d
    400c:	9c 91       	ld	r25, X
    400e:	86 85       	ldd	r24, Z+14	; 0x0e
    4010:	89 2b       	or	r24, r25
    4012:	8c 93       	st	X, r24
}
    4014:	08 95       	ret

00004016 <ow_parasite_disable>:

void ow_parasite_disable(tempSensor *sensor){
    4016:	fc 01       	movw	r30, r24
	*sensor->ddr &= ~sensor->loc; //OW_DIR_IN();
    4018:	a4 85       	ldd	r26, Z+12	; 0x0c
    401a:	b5 85       	ldd	r27, Z+13	; 0x0d
    401c:	9c 91       	ld	r25, X
    401e:	86 85       	ldd	r24, Z+14	; 0x0e
    4020:	80 95       	com	r24
    4022:	89 23       	and	r24, r25
    4024:	8c 93       	st	X, r24
#if (!OW_USE_INTERNAL_PULLUP)
	*sensor->port &= ~sensor->loc; //OW_OUT_LOW();
    4026:	a0 85       	ldd	r26, Z+8	; 0x08
    4028:	b1 85       	ldd	r27, Z+9	; 0x09
    402a:	9c 91       	ld	r25, X
    402c:	86 85       	ldd	r24, Z+14	; 0x0e
    402e:	80 95       	com	r24
    4030:	89 23       	and	r24, r25
    4032:	8c 93       	st	X, r24
#endif
}
    4034:	08 95       	ret

00004036 <ow_reset>:


uint8_t ow_reset(tempSensor *sensor){
    4036:	0f 93       	push	r16
    4038:	1f 93       	push	r17
    403a:	cf 93       	push	r28
    403c:	df 93       	push	r29
    403e:	ec 01       	movw	r28, r24
	uint8_t err;
	
	*sensor->port &= ~sensor->loc; //OW_OUT_LOW();
    4040:	e8 85       	ldd	r30, Y+8	; 0x08
    4042:	f9 85       	ldd	r31, Y+9	; 0x09
    4044:	90 81       	ld	r25, Z
    4046:	8e 85       	ldd	r24, Y+14	; 0x0e
    4048:	80 95       	com	r24
    404a:	89 23       	and	r24, r25
    404c:	80 83       	st	Z, r24
	*sensor->ddr |= sensor->loc; //OW_DIR_OUT();            // pull OW-Pin low for 480us
    404e:	ec 85       	ldd	r30, Y+12	; 0x0c
    4050:	fd 85       	ldd	r31, Y+13	; 0x0d
    4052:	90 81       	ld	r25, Z
    4054:	8e 85       	ldd	r24, Y+14	; 0x0e
    4056:	89 2b       	or	r24, r25
    4058:	80 83       	st	Z, r24
	#else
		//round up by default
		__ticks_dc = (uint32_t)(ceil(fabs(__tmp)));
	#endif

	__builtin_avr_delay_cycles(__ticks_dc);
    405a:	8f e5       	ldi	r24, 0x5F	; 95
    405c:	99 e0       	ldi	r25, 0x09	; 9
    405e:	01 97       	sbiw	r24, 0x01	; 1
    4060:	f1 f7       	brne	.-4      	; 0x405e <ow_reset+0x28>
    4062:	00 c0       	rjmp	.+0      	; 0x4064 <ow_reset+0x2e>
    4064:	00 00       	nop
	_delay_us(480);

	ATOMIC_BLOCK(ATOMIC_RESTORESTATE) {
    4066:	1f b7       	in	r17, 0x3f	; 63
    return 1;
}

static __inline__ uint8_t __iCliRetVal(void)
{
    cli();
    4068:	f8 94       	cli
		// set Pin as input - wait for clients to pull low
		*sensor->ddr &= ~sensor->loc; //OW_DIR_IN(); // input
    406a:	ec 85       	ldd	r30, Y+12	; 0x0c
    406c:	fd 85       	ldd	r31, Y+13	; 0x0d
    406e:	90 81       	ld	r25, Z
    4070:	8e 85       	ldd	r24, Y+14	; 0x0e
    4072:	80 95       	com	r24
    4074:	89 23       	and	r24, r25
    4076:	80 83       	st	Z, r24
    4078:	8f e3       	ldi	r24, 0x3F	; 63
    407a:	91 e0       	ldi	r25, 0x01	; 1
    407c:	01 97       	sbiw	r24, 0x01	; 1
    407e:	f1 f7       	brne	.-4      	; 0x407c <ow_reset+0x46>
    4080:	00 c0       	rjmp	.+0      	; 0x4082 <ow_reset+0x4c>
    4082:	00 00       	nop
#if OW_USE_INTERNAL_PULLUP
		*sensor->port |= sensor->loc; //OW_OUT_HIGH();
#endif
	
		_delay_us(64);       // was 66
		err = ow_input_pin_state(sensor);   // no presence detect
    4084:	ce 01       	movw	r24, r28
    4086:	0e 94 f6 1f 	call	0x3fec	; 0x3fec <ow_input_pin_state>
    408a:	08 2f       	mov	r16, r24
    (void)__s;
}

static __inline__ void __iRestore(const  uint8_t *__s)
{
    SREG = *__s;
    408c:	1f bf       	out	0x3f, r17	; 63
    408e:	8f e1       	ldi	r24, 0x1F	; 31
    4090:	98 e0       	ldi	r25, 0x08	; 8
    4092:	01 97       	sbiw	r24, 0x01	; 1
    4094:	f1 f7       	brne	.-4      	; 0x4092 <ow_reset+0x5c>
    4096:	00 c0       	rjmp	.+0      	; 0x4098 <ow_reset+0x62>
    4098:	00 00       	nop
	}
	
	// after a delay the clients should release the line
	// and input-pin gets back to high by pull-up-resistor
	_delay_us(480 - 64);       // was 480-66
	if( ow_input_pin_state(sensor) == 0 ) {
    409a:	ce 01       	movw	r24, r28
    409c:	0e 94 f6 1f 	call	0x3fec	; 0x3fec <ow_input_pin_state>
    40a0:	88 23       	and	r24, r24
    40a2:	09 f4       	brne	.+2      	; 0x40a6 <ow_reset+0x70>
		err = 1;             // short circuit, expected low but got high
    40a4:	01 e0       	ldi	r16, 0x01	; 1
	}
	
	return err;
}
    40a6:	80 2f       	mov	r24, r16
    40a8:	df 91       	pop	r29
    40aa:	cf 91       	pop	r28
    40ac:	1f 91       	pop	r17
    40ae:	0f 91       	pop	r16
    40b0:	08 95       	ret

000040b2 <ow_bit_io>:

	return b;
}

uint8_t ow_bit_io(tempSensor *sensor, const uint8_t b )
{
    40b2:	0f 93       	push	r16
    40b4:	1f 93       	push	r17
    40b6:	cf 93       	push	r28
    40b8:	df 93       	push	r29
    40ba:	ec 01       	movw	r28, r24
	return ow_bit_io_intern(sensor, b & 1, 0 );
    40bc:	16 2f       	mov	r17, r22
    40be:	11 70       	andi	r17, 0x01	; 1
   to achive a 15uS overall delay 
   Setting/clearing a bit in I/O Register needs 1 cyle in OW_ONE_BUS
   but around 14 cyles in configureable bus (us-Delay is 4 cyles per uS) */
static uint8_t ow_bit_io_intern(tempSensor *sensor, uint8_t b, const uint8_t with_parasite_enable )
{
	ATOMIC_BLOCK(ATOMIC_RESTORESTATE) {
    40c0:	0f b7       	in	r16, 0x3f	; 63
    return 1;
}

static __inline__ uint8_t __iCliRetVal(void)
{
    cli();
    40c2:	f8 94       	cli
#if OW_USE_INTERNAL_PULLUP
		*sensor->port &= ~sensor->loc; //OW_OUT_LOW();
#endif
		*sensor->ddr |= sensor->loc; //OW_DIR_OUT();    // drive bus low
    40c4:	ec 85       	ldd	r30, Y+12	; 0x0c
    40c6:	fd 85       	ldd	r31, Y+13	; 0x0d
    40c8:	90 81       	ld	r25, Z
    40ca:	8e 85       	ldd	r24, Y+14	; 0x0e
    40cc:	89 2b       	or	r24, r25
    40ce:	80 83       	st	Z, r24
    40d0:	8d e0       	ldi	r24, 0x0D	; 13
    40d2:	8a 95       	dec	r24
    40d4:	f1 f7       	brne	.-4      	; 0x40d2 <ow_bit_io+0x20>
    40d6:	00 00       	nop
		_delay_us(2);    // T_INT > 1usec accoding to timing-diagramm
		if ( b ) {
    40d8:	11 23       	and	r17, r17
    40da:	39 f0       	breq	.+14     	; 0x40ea <ow_bit_io+0x38>
			*sensor->ddr &= ~sensor->loc; //OW_DIR_IN(); // to write "1" release bus, resistor pulls high
    40dc:	ec 85       	ldd	r30, Y+12	; 0x0c
    40de:	fd 85       	ldd	r31, Y+13	; 0x0d
    40e0:	90 81       	ld	r25, Z
    40e2:	8e 85       	ldd	r24, Y+14	; 0x0e
    40e4:	80 95       	com	r24
    40e6:	89 23       	and	r24, r25
    40e8:	80 83       	st	Z, r24
    40ea:	96 e5       	ldi	r25, 0x56	; 86
    40ec:	9a 95       	dec	r25
    40ee:	f1 f7       	brne	.-4      	; 0x40ec <ow_bit_io+0x3a>
    40f0:	00 c0       	rjmp	.+0      	; 0x40f2 <ow_bit_io+0x40>
		// edge that initiated the read time slot. Therefore, the master must 
		// release the bus and then sample the bus state within 15ussec from 
		// the start of the slot."
		_delay_us(15-2-OW_CONF_DELAYOFFSET);
		
		if( ow_input_pin_state(sensor) == 0 ) {
    40f2:	ce 01       	movw	r24, r28
    40f4:	0e 94 f6 1f 	call	0x3fec	; 0x3fec <ow_input_pin_state>
    40f8:	88 23       	and	r24, r24
    40fa:	09 f4       	brne	.+2      	; 0x40fe <ow_bit_io+0x4c>
			b = 0;  // sample at end of read-timeslot
    40fc:	10 e0       	ldi	r17, 0x00	; 0
    40fe:	86 ed       	ldi	r24, 0xD6	; 214
    4100:	90 e0       	ldi	r25, 0x00	; 0
    4102:	01 97       	sbiw	r24, 0x01	; 1
    4104:	f1 f7       	brne	.-4      	; 0x4102 <ow_bit_io+0x50>
    4106:	00 c0       	rjmp	.+0      	; 0x4108 <ow_bit_io+0x56>
    4108:	00 00       	nop
	
		_delay_us(60-15-2+OW_CONF_DELAYOFFSET);
#if OW_USE_INTERNAL_PULLUP
		*sensor->port |= sensor->loc; //OW_OUT_HIGH();
#endif
		*sensor->ddr &= ~sensor->loc; //OW_DIR_IN();
    410a:	ec 85       	ldd	r30, Y+12	; 0x0c
    410c:	fd 85       	ldd	r31, Y+13	; 0x0d
    410e:	90 81       	ld	r25, Z
    4110:	8e 85       	ldd	r24, Y+14	; 0x0e
    4112:	80 95       	com	r24
    4114:	89 23       	and	r24, r25
    4116:	80 83       	st	Z, r24
    (void)__s;
}

static __inline__ void __iRestore(const  uint8_t *__s)
{
    SREG = *__s;
    4118:	0f bf       	out	0x3f, r16	; 63
    411a:	92 e4       	ldi	r25, 0x42	; 66
    411c:	9a 95       	dec	r25
    411e:	f1 f7       	brne	.-4      	; 0x411c <ow_bit_io+0x6a>
    4120:	00 c0       	rjmp	.+0      	; 0x4122 <ow_bit_io+0x70>
}

uint8_t ow_bit_io(tempSensor *sensor, const uint8_t b )
{
	return ow_bit_io_intern(sensor, b & 1, 0 );
}
    4122:	81 2f       	mov	r24, r17
    4124:	df 91       	pop	r29
    4126:	cf 91       	pop	r28
    4128:	1f 91       	pop	r17
    412a:	0f 91       	pop	r16
    412c:	08 95       	ret

0000412e <ow_byte_wr>:

uint8_t ow_byte_wr(tempSensor *sensor, uint8_t b )
{
    412e:	0f 93       	push	r16
    4130:	1f 93       	push	r17
    4132:	cf 93       	push	r28
    4134:	df 93       	push	r29
    4136:	ec 01       	movw	r28, r24
    4138:	16 2f       	mov	r17, r22
	uint8_t i = 8, j;
    413a:	08 e0       	ldi	r16, 0x08	; 8
	
	do {
		j = ow_bit_io(sensor, b & 1 );
    413c:	61 2f       	mov	r22, r17
    413e:	61 70       	andi	r22, 0x01	; 1
    4140:	ce 01       	movw	r24, r28
    4142:	0e 94 59 20 	call	0x40b2	; 0x40b2 <ow_bit_io>
		b >>= 1;
    4146:	16 95       	lsr	r17
		if( j ) {
    4148:	81 11       	cpse	r24, r1
			b |= 0x80;
    414a:	10 68       	ori	r17, 0x80	; 128
		}
	} while( --i );
    414c:	01 50       	subi	r16, 0x01	; 1
    414e:	b1 f7       	brne	.-20     	; 0x413c <ow_byte_wr+0xe>
	
	return b;
}
    4150:	81 2f       	mov	r24, r17
    4152:	df 91       	pop	r29
    4154:	cf 91       	pop	r28
    4156:	1f 91       	pop	r17
    4158:	0f 91       	pop	r16
    415a:	08 95       	ret

0000415c <ow_byte_rd>:

uint8_t ow_byte_rd( tempSensor *sensor ){
	// read by sending only "1"s, so bus gets released
	// after the init low-pulse in every slot
	return ow_byte_wr(sensor, 0xFF ); 
    415c:	6f ef       	ldi	r22, 0xFF	; 255
    415e:	0e 94 97 20 	call	0x412e	; 0x412e <ow_byte_wr>
}
    4162:	08 95       	ret

00004164 <createProgressBar>:
#include "Headers/config.h"
#include "Headers/progressBar.h"
#include "Headers/display.h"


progressBar createProgressBar(const uint16_t value, const uint16_t max, const uint8_t y){
    4164:	df 93       	push	r29
    4166:	cf 93       	push	r28
    4168:	00 d0       	rcall	.+0      	; 0x416a <createProgressBar+0x6>
    416a:	00 d0       	rcall	.+0      	; 0x416c <createProgressBar+0x8>
    416c:	0f 92       	push	r0
    416e:	cd b7       	in	r28, 0x3d	; 61
    4170:	de b7       	in	r29, 0x3e	; 62
    4172:	e4 2f       	mov	r30, r20
    4174:	89 83       	std	Y+1, r24	; 0x01
    4176:	9a 83       	std	Y+2, r25	; 0x02
    4178:	6b 83       	std	Y+3, r22	; 0x03
    417a:	7c 83       	std	Y+4, r23	; 0x04
    417c:	28 2f       	mov	r18, r24
    417e:	39 2f       	mov	r19, r25
    4180:	46 2f       	mov	r20, r22
    4182:	57 2f       	mov	r21, r23
	ret.value = value;
	ret.max = max;
	ret.y = y;
	
	return ret;
}
    4184:	6e 2f       	mov	r22, r30
    4186:	70 e0       	ldi	r23, 0x00	; 0
    4188:	80 e0       	ldi	r24, 0x00	; 0
    418a:	90 e0       	ldi	r25, 0x00	; 0
    418c:	0f 90       	pop	r0
    418e:	0f 90       	pop	r0
    4190:	0f 90       	pop	r0
    4192:	0f 90       	pop	r0
    4194:	0f 90       	pop	r0
    4196:	cf 91       	pop	r28
    4198:	df 91       	pop	r29
    419a:	08 95       	ret

0000419c <updateBar>:

void updateBar(progressBar *pb, const uint8_t value){
    419c:	fc 01       	movw	r30, r24
	pb->value = value;
    419e:	60 83       	st	Z, r22
    41a0:	11 82       	std	Z+1, r1	; 0x01
}
    41a2:	08 95       	ret

000041a4 <drawBar>:

void drawBar(const progressBar *pb){
    41a4:	0f 93       	push	r16
    41a6:	1f 93       	push	r17
    41a8:	cf 93       	push	r28
    41aa:	df 93       	push	r29
    41ac:	ec 01       	movw	r28, r24
	//Calculate plox
	uint8_t widthToFill = ((DISPLAY_SCREEN_WIDTH * pb->value) / pb->max);
    41ae:	88 81       	ld	r24, Y
    41b0:	99 81       	ldd	r25, Y+1	; 0x01
    41b2:	96 95       	lsr	r25
    41b4:	98 2f       	mov	r25, r24
    41b6:	88 27       	eor	r24, r24
    41b8:	97 95       	ror	r25
    41ba:	87 95       	ror	r24
    41bc:	6a 81       	ldd	r22, Y+2	; 0x02
    41be:	7b 81       	ldd	r23, Y+3	; 0x03
    41c0:	0e 94 9f 25 	call	0x4b3e	; 0x4b3e <__udivmodhi4>
    41c4:	16 2f       	mov	r17, r22
	displayDrawHoriLine(0, pb->y, DISPLAY_SCREEN_WIDTH ,WHITE);
    41c6:	80 e0       	ldi	r24, 0x00	; 0
    41c8:	6c 81       	ldd	r22, Y+4	; 0x04
    41ca:	40 e8       	ldi	r20, 0x80	; 128
    41cc:	20 e0       	ldi	r18, 0x00	; 0
    41ce:	00 e0       	ldi	r16, 0x00	; 0
    41d0:	0e 94 f3 0c 	call	0x19e6	; 0x19e6 <displayFillRect>
	displayDrawHoriLine(0, pb->y,widthToFill,BLACK);
    41d4:	80 e0       	ldi	r24, 0x00	; 0
    41d6:	6c 81       	ldd	r22, Y+4	; 0x04
    41d8:	41 2f       	mov	r20, r17
    41da:	20 e0       	ldi	r18, 0x00	; 0
    41dc:	0f ef       	ldi	r16, 0xFF	; 255
    41de:	0e 94 f3 0c 	call	0x19e6	; 0x19e6 <displayFillRect>
	
    41e2:	df 91       	pop	r29
    41e4:	cf 91       	pop	r28
    41e6:	1f 91       	pop	r17
    41e8:	0f 91       	pop	r16
    41ea:	08 95       	ret

000041ec <init_ds1820>:
#include "Headers/config.h"
#include "Headers/onewire.h"


void init_ds1820(void){
	tempIntern.lastReading = 0.0;
    41ec:	80 e0       	ldi	r24, 0x00	; 0
    41ee:	90 e0       	ldi	r25, 0x00	; 0
    41f0:	dc 01       	movw	r26, r24
    41f2:	80 93 ca 01 	sts	0x01CA, r24
    41f6:	90 93 cb 01 	sts	0x01CB, r25
    41fa:	a0 93 cc 01 	sts	0x01CC, r26
    41fe:	b0 93 cd 01 	sts	0x01CD, r27
	tempIntern.prevReading = 0.0;
    4202:	80 93 ce 01 	sts	0x01CE, r24
    4206:	90 93 cf 01 	sts	0x01CF, r25
    420a:	a0 93 d0 01 	sts	0x01D0, r26
    420e:	b0 93 d1 01 	sts	0x01D1, r27
	
	tempIntern.loc = TEMP_INTERN;
    4212:	20 e4       	ldi	r18, 0x40	; 64
    4214:	20 93 d8 01 	sts	0x01D8, r18
	tempIntern.ddr = &DDR_TEMP_INTERN;
    4218:	61 e2       	ldi	r22, 0x21	; 33
    421a:	70 e0       	ldi	r23, 0x00	; 0
    421c:	70 93 d7 01 	sts	0x01D7, r23
    4220:	60 93 d6 01 	sts	0x01D6, r22
	tempIntern.pin = &PIN_TEMP_INTERN;
    4224:	40 e2       	ldi	r20, 0x20	; 32
    4226:	50 e0       	ldi	r21, 0x00	; 0
    4228:	50 93 d5 01 	sts	0x01D5, r21
    422c:	40 93 d4 01 	sts	0x01D4, r20
	tempIntern.port = &PORT_TEMP_INTERN;
    4230:	22 e2       	ldi	r18, 0x22	; 34
    4232:	30 e0       	ldi	r19, 0x00	; 0
    4234:	30 93 d3 01 	sts	0x01D3, r19
    4238:	20 93 d2 01 	sts	0x01D2, r18
	
	tempExtern.lastReading = 0.0;
    423c:	80 93 fe 01 	sts	0x01FE, r24
    4240:	90 93 ff 01 	sts	0x01FF, r25
    4244:	a0 93 00 02 	sts	0x0200, r26
    4248:	b0 93 01 02 	sts	0x0201, r27
	tempExtern.prevReading = 0.0;
    424c:	80 93 02 02 	sts	0x0202, r24
    4250:	90 93 03 02 	sts	0x0203, r25
    4254:	a0 93 04 02 	sts	0x0204, r26
    4258:	b0 93 05 02 	sts	0x0205, r27
	
	tempExtern.loc = TEMP_EXTERN;
    425c:	80 e8       	ldi	r24, 0x80	; 128
    425e:	80 93 0c 02 	sts	0x020C, r24
	tempExtern.ddr = &DDR_TEMP_EXTERN;
    4262:	70 93 0b 02 	sts	0x020B, r23
    4266:	60 93 0a 02 	sts	0x020A, r22
	tempExtern.pin = &PIN_TEMP_EXTERN;
    426a:	50 93 09 02 	sts	0x0209, r21
    426e:	40 93 08 02 	sts	0x0208, r20
	tempExtern.port = &PORT_TEMP_EXTERN;
    4272:	30 93 07 02 	sts	0x0207, r19
    4276:	20 93 06 02 	sts	0x0206, r18
}
    427a:	08 95       	ret

0000427c <ds1820_read>:

void ds1820_read(tempSensor *sensor){
    427c:	1f 93       	push	r17
    427e:	cf 93       	push	r28
    4280:	df 93       	push	r29
    4282:	ec 01       	movw	r28, r24
	ADCSRA &= ~(1<<ADEN)|~(1<<ADSC);
    4284:	ea e7       	ldi	r30, 0x7A	; 122
    4286:	f0 e0       	ldi	r31, 0x00	; 0
    4288:	80 81       	ld	r24, Z
    428a:	80 83       	st	Z, r24
	uint8_t busy=0, temp1, temp2;
    int16_t temp3;
    double result;

    ow_reset(sensor);
    428c:	ce 01       	movw	r24, r28
    428e:	0e 94 1b 20 	call	0x4036	; 0x4036 <ow_reset>
	ow_byte_wr(sensor, 0xCC); 
    4292:	ce 01       	movw	r24, r28
    4294:	6c ec       	ldi	r22, 0xCC	; 204
    4296:	0e 94 97 20 	call	0x412e	; 0x412e <ow_byte_wr>
	ow_byte_wr(sensor, 0x44);
    429a:	ce 01       	movw	r24, r28
    429c:	64 e4       	ldi	r22, 0x44	; 68
    429e:	0e 94 97 20 	call	0x412e	; 0x412e <ow_byte_wr>
	
	while(busy == 0){
		busy = ow_byte_rd(sensor);
    42a2:	ce 01       	movw	r24, r28
    42a4:	0e 94 ae 20 	call	0x415c	; 0x415c <ow_byte_rd>

    ow_reset(sensor);
	ow_byte_wr(sensor, 0xCC); 
	ow_byte_wr(sensor, 0x44);
	
	while(busy == 0){
    42a8:	88 23       	and	r24, r24
    42aa:	d9 f3       	breq	.-10     	; 0x42a2 <ds1820_read+0x26>
		busy = ow_byte_rd(sensor);
	}
	
	ow_reset(sensor);
    42ac:	ce 01       	movw	r24, r28
    42ae:	0e 94 1b 20 	call	0x4036	; 0x4036 <ow_reset>
	ow_byte_wr(sensor, 0xCC);
    42b2:	ce 01       	movw	r24, r28
    42b4:	6c ec       	ldi	r22, 0xCC	; 204
    42b6:	0e 94 97 20 	call	0x412e	; 0x412e <ow_byte_wr>
	ow_byte_wr(sensor, 0xBE);
    42ba:	ce 01       	movw	r24, r28
    42bc:	6e eb       	ldi	r22, 0xBE	; 190
    42be:	0e 94 97 20 	call	0x412e	; 0x412e <ow_byte_wr>
	
	temp1 = ow_byte_rd(sensor);
    42c2:	ce 01       	movw	r24, r28
    42c4:	0e 94 ae 20 	call	0x415c	; 0x415c <ow_byte_rd>
    42c8:	18 2f       	mov	r17, r24
	temp2 = ow_byte_rd(sensor);
    42ca:	ce 01       	movw	r24, r28
    42cc:	0e 94 ae 20 	call	0x415c	; 0x415c <ow_byte_rd>
    onewire_write(0xBE);            //Read scratchpad
    temp1 = onewire_read();
    temp2 = onewire_read();*/
    
    temp3 = temp2;
    temp3 = temp3 << 8;
    42d0:	38 2f       	mov	r19, r24
    42d2:	20 e0       	ldi	r18, 0x00	; 0
    temp3 = temp3 | temp1;
    42d4:	61 2f       	mov	r22, r17
    42d6:	70 e0       	ldi	r23, 0x00	; 0
    42d8:	26 2b       	or	r18, r22
    42da:	37 2b       	or	r19, r23
 
    //result = (float) temp3 / 2.0;   //Calculation for DS18S20 with 0.5 deg C resolution
    result = (double) temp3 / 16.0;    //Calculation for DS18B20
    42dc:	b9 01       	movw	r22, r18
    42de:	88 27       	eor	r24, r24
    42e0:	77 fd       	sbrc	r23, 7
    42e2:	80 95       	com	r24
    42e4:	98 2f       	mov	r25, r24
    42e6:	0e 94 7c 24 	call	0x48f8	; 0x48f8 <__floatsisf>
    42ea:	20 e0       	ldi	r18, 0x00	; 0
    42ec:	30 e0       	ldi	r19, 0x00	; 0
    42ee:	40 e8       	ldi	r20, 0x80	; 128
    42f0:	5d e3       	ldi	r21, 0x3D	; 61
    42f2:	0e 94 30 25 	call	0x4a60	; 0x4a60 <__mulsf3>
 
    //_delay_ms(200);
    //return(result);
	sensor->lastReading = result;
    42f6:	68 83       	st	Y, r22
    42f8:	79 83       	std	Y+1, r23	; 0x01
    42fa:	8a 83       	std	Y+2, r24	; 0x02
    42fc:	9b 83       	std	Y+3, r25	; 0x03
    42fe:	df 91       	pop	r29
    4300:	cf 91       	pop	r28
    4302:	1f 91       	pop	r17
    4304:	08 95       	ret

00004306 <init_pwm>:
/*
 * Initializes the PWM Hardware
 */
void init_pwm(){
	//Timer 2 setup
	TCCR2A |= (1 << COM2A1) | (0 << COM2A0);
    4306:	e0 eb       	ldi	r30, 0xB0	; 176
    4308:	f0 e0       	ldi	r31, 0x00	; 0
    430a:	80 81       	ld	r24, Z
    430c:	80 68       	ori	r24, 0x80	; 128
    430e:	80 83       	st	Z, r24
	TCCR2A |= (0 << WGM21) | (1 << WGM20);	// Phase Correct PWM.
    4310:	80 81       	ld	r24, Z
    4312:	81 60       	ori	r24, 0x01	; 1
    4314:	80 83       	st	Z, r24
	TCCR2B |= (1 << CS20); //Timer 2 start
    4316:	e1 eb       	ldi	r30, 0xB1	; 177
    4318:	f0 e0       	ldi	r31, 0x00	; 0
    431a:	80 81       	ld	r24, Z
    431c:	81 60       	ori	r24, 0x01	; 1
    431e:	80 83       	st	Z, r24
	OCR2A = 0;
    4320:	10 92 b3 00 	sts	0x00B3, r1
	
	DDR_BACKLIGHT |= BACKLIGHT;
    4324:	57 9a       	sbi	0x0a, 7	; 10
}
    4326:	08 95       	ret

00004328 <init_timer1>:

void init_timer1(void){
	//Initialize Interrupt for timer1
	TCNT1L = 0x3c;
    4328:	8c e3       	ldi	r24, 0x3C	; 60
    432a:	80 93 84 00 	sts	0x0084, r24
	TCNT1H = 0xf6;
    432e:	86 ef       	ldi	r24, 0xF6	; 246
    4330:	80 93 85 00 	sts	0x0085, r24
	TCCR1B = (0<<WGM12) | (0<<CS12)|(1<<CS11)|(0<<CS10); 
    4334:	82 e0       	ldi	r24, 0x02	; 2
    4336:	80 93 81 00 	sts	0x0081, r24
	TIMSK1 |= _BV(TOIE1);
    433a:	ef e6       	ldi	r30, 0x6F	; 111
    433c:	f0 e0       	ldi	r31, 0x00	; 0
    433e:	80 81       	ld	r24, Z
    4340:	81 60       	ori	r24, 0x01	; 1
    4342:	80 83       	st	Z, r24
	printf("Timer 1 initialized\r\n");
    4344:	87 e8       	ldi	r24, 0x87	; 135
    4346:	91 e0       	ldi	r25, 0x01	; 1
    4348:	0e 94 db 25 	call	0x4bb6	; 0x4bb6 <puts>
}
    434c:	08 95       	ret

0000434e <timer>:


void timer(void){
    434e:	ef 92       	push	r14
    4350:	ff 92       	push	r15
    4352:	0f 93       	push	r16
    4354:	1f 93       	push	r17
	if(CHECKFLAG(FLAG_SEC)){
    4356:	40 91 36 02 	lds	r20, 0x0236
    435a:	50 91 37 02 	lds	r21, 0x0237
    435e:	44 ff       	sbrs	r20, 4
    4360:	c6 c0       	rjmp	.+396    	; 0x44ee <timer+0x1a0>
		RESETFLAG(FLAG_SEC);
    4362:	9a 01       	movw	r18, r20
    4364:	2f 7e       	andi	r18, 0xEF	; 239
    4366:	30 93 37 02 	sts	0x0237, r19
    436a:	20 93 36 02 	sts	0x0236, r18
		
		currentDateTime.time.seconds++;
    436e:	e0 91 c3 01 	lds	r30, 0x01C3
    4372:	ef 5f       	subi	r30, 0xFF	; 255
    4374:	e0 93 c3 01 	sts	0x01C3, r30
		if(CHECKFLAG(FLAG_AWAKE)){
    4378:	41 ff       	sbrs	r20, 1
    437a:	09 c0       	rjmp	.+18     	; 0x438e <timer+0x40>
			SETDRAWFLAG(DRAW_TIME);
    437c:	40 91 16 02 	lds	r20, 0x0216
    4380:	50 91 17 02 	lds	r21, 0x0217
    4384:	40 62       	ori	r20, 0x20	; 32
    4386:	50 93 17 02 	sts	0x0217, r21
    438a:	40 93 16 02 	sts	0x0216, r20
		}				
		if((currentDateTime.time.seconds % 10) == 0){
    438e:	8e 2f       	mov	r24, r30
    4390:	6a e0       	ldi	r22, 0x0A	; 10
    4392:	0e 94 93 25 	call	0x4b26	; 0x4b26 <__udivmodqi4>
    4396:	99 23       	and	r25, r25
    4398:	29 f4       	brne	.+10     	; 0x43a4 <timer+0x56>
			SETFLAG(FLAG_READTIME);
    439a:	20 68       	ori	r18, 0x80	; 128
    439c:	30 93 37 02 	sts	0x0237, r19
    43a0:	20 93 36 02 	sts	0x0236, r18
		}
		if((currentDateTime.time.seconds % 20) == 0){
    43a4:	8e 2f       	mov	r24, r30
    43a6:	64 e1       	ldi	r22, 0x14	; 20
    43a8:	0e 94 93 25 	call	0x4b26	; 0x4b26 <__udivmodqi4>
    43ac:	99 23       	and	r25, r25
    43ae:	09 f0       	breq	.+2      	; 0x43b2 <timer+0x64>
    43b0:	62 c0       	rjmp	.+196    	; 0x4476 <timer+0x128>
			ds1820_read(&tempIntern);
    43b2:	8a ec       	ldi	r24, 0xCA	; 202
    43b4:	91 e0       	ldi	r25, 0x01	; 1
    43b6:	0e 94 3e 21 	call	0x427c	; 0x427c <ds1820_read>
			if(tempIntern.prevReading != tempIntern.lastReading){
    43ba:	e0 90 ca 01 	lds	r14, 0x01CA
    43be:	f0 90 cb 01 	lds	r15, 0x01CB
    43c2:	00 91 cc 01 	lds	r16, 0x01CC
    43c6:	10 91 cd 01 	lds	r17, 0x01CD
    43ca:	60 91 ce 01 	lds	r22, 0x01CE
    43ce:	70 91 cf 01 	lds	r23, 0x01CF
    43d2:	80 91 d0 01 	lds	r24, 0x01D0
    43d6:	90 91 d1 01 	lds	r25, 0x01D1
    43da:	a8 01       	movw	r20, r16
    43dc:	97 01       	movw	r18, r14
    43de:	0e 94 e2 23 	call	0x47c4	; 0x47c4 <__cmpsf2>
    43e2:	88 23       	and	r24, r24
    43e4:	b9 f0       	breq	.+46     	; 0x4414 <timer+0xc6>
				if(!CHECKFLAG(FLAG_AWAYSCREEN)){
    43e6:	80 91 36 02 	lds	r24, 0x0236
    43ea:	90 91 37 02 	lds	r25, 0x0237
    43ee:	90 fd       	sbrc	r25, 0
    43f0:	09 c0       	rjmp	.+18     	; 0x4404 <timer+0xb6>
					SETDRAWFLAG(DRAW_INTERN);
    43f2:	80 91 16 02 	lds	r24, 0x0216
    43f6:	90 91 17 02 	lds	r25, 0x0217
    43fa:	98 60       	ori	r25, 0x08	; 8
    43fc:	90 93 17 02 	sts	0x0217, r25
    4400:	80 93 16 02 	sts	0x0216, r24
				}					
				tempIntern.prevReading = tempIntern.lastReading;
    4404:	e0 92 ce 01 	sts	0x01CE, r14
    4408:	f0 92 cf 01 	sts	0x01CF, r15
    440c:	00 93 d0 01 	sts	0x01D0, r16
    4410:	10 93 d1 01 	sts	0x01D1, r17
			}
		
				
			ds1820_read(&tempExtern);
    4414:	8e ef       	ldi	r24, 0xFE	; 254
    4416:	91 e0       	ldi	r25, 0x01	; 1
    4418:	0e 94 3e 21 	call	0x427c	; 0x427c <ds1820_read>
			if(tempExtern.prevReading != tempExtern.lastReading){
    441c:	e0 90 fe 01 	lds	r14, 0x01FE
    4420:	f0 90 ff 01 	lds	r15, 0x01FF
    4424:	00 91 00 02 	lds	r16, 0x0200
    4428:	10 91 01 02 	lds	r17, 0x0201
    442c:	60 91 02 02 	lds	r22, 0x0202
    4430:	70 91 03 02 	lds	r23, 0x0203
    4434:	80 91 04 02 	lds	r24, 0x0204
    4438:	90 91 05 02 	lds	r25, 0x0205
    443c:	a8 01       	movw	r20, r16
    443e:	97 01       	movw	r18, r14
    4440:	0e 94 e2 23 	call	0x47c4	; 0x47c4 <__cmpsf2>
    4444:	88 23       	and	r24, r24
    4446:	b9 f0       	breq	.+46     	; 0x4476 <timer+0x128>
				if(!CHECKFLAG(FLAG_AWAYSCREEN)){
    4448:	80 91 36 02 	lds	r24, 0x0236
    444c:	90 91 37 02 	lds	r25, 0x0237
    4450:	90 fd       	sbrc	r25, 0
    4452:	09 c0       	rjmp	.+18     	; 0x4466 <timer+0x118>
					SETDRAWFLAG(DRAW_EXTERN);
    4454:	80 91 16 02 	lds	r24, 0x0216
    4458:	90 91 17 02 	lds	r25, 0x0217
    445c:	90 61       	ori	r25, 0x10	; 16
    445e:	90 93 17 02 	sts	0x0217, r25
    4462:	80 93 16 02 	sts	0x0216, r24
				}					
				tempExtern.prevReading = tempExtern.lastReading;
    4466:	e0 92 02 02 	sts	0x0202, r14
    446a:	f0 92 03 02 	sts	0x0203, r15
    446e:	00 93 04 02 	sts	0x0204, r16
    4472:	10 93 05 02 	sts	0x0205, r17
			}
		}	
		
		batteryLevel = read_adc(ADC_BATTERY);
    4476:	85 e0       	ldi	r24, 0x05	; 5
    4478:	0e 94 4f 08 	call	0x109e	; 0x109e <read_adc>
    447c:	80 93 15 02 	sts	0x0215, r24
		if( (batteryLevel <= (oldBatteryLevel-2)) || (batteryLevel >= (oldBatteryLevel+2))){
    4480:	28 2f       	mov	r18, r24
    4482:	30 e0       	ldi	r19, 0x00	; 0
    4484:	40 91 f1 01 	lds	r20, 0x01F1
    4488:	50 e0       	ldi	r21, 0x00	; 0
    448a:	ba 01       	movw	r22, r20
    448c:	62 50       	subi	r22, 0x02	; 2
    448e:	70 40       	sbci	r23, 0x00	; 0
    4490:	62 17       	cp	r22, r18
    4492:	73 07       	cpc	r23, r19
    4494:	2c f4       	brge	.+10     	; 0x44a0 <timer+0x152>
    4496:	4e 5f       	subi	r20, 0xFE	; 254
    4498:	5f 4f       	sbci	r21, 0xFF	; 255
    449a:	24 17       	cp	r18, r20
    449c:	35 07       	cpc	r19, r21
    449e:	3c f1       	brlt	.+78     	; 0x44ee <timer+0x1a0>
			SETDRAWFLAG(DRAW_BATTERY_BAR);
    44a0:	20 91 16 02 	lds	r18, 0x0216
    44a4:	30 91 17 02 	lds	r19, 0x0217
    44a8:	28 60       	ori	r18, 0x08	; 8
    44aa:	30 93 17 02 	sts	0x0217, r19
    44ae:	20 93 16 02 	sts	0x0216, r18
			
			oldBatteryLevel = batteryLevel;
    44b2:	80 93 f1 01 	sts	0x01F1, r24
			if(batteryLevel < MINIMAL_BATTERY_LEVEL && !CHECKFLAG(FLAG_BATTERYTOOLOW)){
    44b6:	84 31       	cpi	r24, 0x14	; 20
    44b8:	d0 f4       	brcc	.+52     	; 0x44ee <timer+0x1a0>
    44ba:	80 91 36 02 	lds	r24, 0x0236
    44be:	90 91 37 02 	lds	r25, 0x0237
    44c2:	86 fd       	sbrc	r24, 6
    44c4:	14 c0       	rjmp	.+40     	; 0x44ee <timer+0x1a0>
				//BATTERY TOO LOW!
				SETFLAG(FLAG_BATTERYTOOLOW);
    44c6:	80 64       	ori	r24, 0x40	; 64
    44c8:	90 93 37 02 	sts	0x0237, r25
    44cc:	80 93 36 02 	sts	0x0236, r24
				CV_OFF();
    44d0:	46 9a       	sbi	0x08, 6	; 8
	#else
		//round up by default
		__ticks_dc = (uint32_t)(ceil(fabs(__tmp)));
	#endif

	__builtin_avr_delay_cycles(__ticks_dc);
    44d2:	87 ea       	ldi	r24, 0xA7	; 167
    44d4:	91 e6       	ldi	r25, 0x61	; 97
    44d6:	01 97       	sbiw	r24, 0x01	; 1
    44d8:	f1 f7       	brne	.-4      	; 0x44d6 <timer+0x188>
    44da:	00 c0       	rjmp	.+0      	; 0x44dc <timer+0x18e>
    44dc:	00 00       	nop
    44de:	46 98       	cbi	0x08, 6	; 8
				//Draw the warning
				SETDRAWFLAG(DRAW_BATTERY_LOW);
    44e0:	c9 01       	movw	r24, r18
    44e2:	84 60       	ori	r24, 0x04	; 4
    44e4:	90 64       	ori	r25, 0x40	; 64
    44e6:	90 93 17 02 	sts	0x0217, r25
    44ea:	80 93 16 02 	sts	0x0216, r24
			}
		}
	}
	
	if(CHECKFLAG(FLAG_100MS)){
    44ee:	80 91 36 02 	lds	r24, 0x0236
    44f2:	90 91 37 02 	lds	r25, 0x0237
    44f6:	83 ff       	sbrs	r24, 3
    44f8:	05 c0       	rjmp	.+10     	; 0x4504 <timer+0x1b6>
		RESETFLAG(FLAG_100MS);
    44fa:	87 7f       	andi	r24, 0xF7	; 247
    44fc:	90 93 37 02 	sts	0x0237, r25
    4500:	80 93 36 02 	sts	0x0236, r24
	}
	
	if(CHECKFLAG(FLAG_HALFSEC)){
    4504:	80 91 36 02 	lds	r24, 0x0236
    4508:	90 91 37 02 	lds	r25, 0x0237
    450c:	82 ff       	sbrs	r24, 2
    450e:	2f c0       	rjmp	.+94     	; 0x456e <timer+0x220>
		RESETFLAG(FLAG_HALFSEC);
    4510:	9c 01       	movw	r18, r24
    4512:	2b 7f       	andi	r18, 0xFB	; 251
    4514:	30 93 37 02 	sts	0x0237, r19
    4518:	20 93 36 02 	sts	0x0236, r18

		if(CHECKFLAG(FLAG_AWAKE)){
    451c:	81 ff       	sbrs	r24, 1
    451e:	27 c0       	rjmp	.+78     	; 0x456e <timer+0x220>
			lastAction++;
    4520:	20 91 38 02 	lds	r18, 0x0238
    4524:	2f 5f       	subi	r18, 0xFF	; 255
    4526:	20 93 38 02 	sts	0x0238, r18
			PWM_BACKLIGHT = (MAX_LAST_ACTION - lastAction) * (255 / MAX_LAST_ACTION);
    452a:	84 ef       	ldi	r24, 0xF4	; 244
    452c:	28 9f       	mul	r18, r24
    452e:	80 2d       	mov	r24, r0
    4530:	11 24       	eor	r1, r1
    4532:	80 51       	subi	r24, 0x10	; 16
    4534:	80 93 b3 00 	sts	0x00B3, r24
			SETDRAWFLAG(DRAW_TTL_BAR);
    4538:	80 91 16 02 	lds	r24, 0x0216
    453c:	90 91 17 02 	lds	r25, 0x0217
    4540:	80 61       	ori	r24, 0x10	; 16
    4542:	90 93 17 02 	sts	0x0217, r25
    4546:	80 93 16 02 	sts	0x0216, r24
			if(lastAction == MAX_LAST_ACTION){
    454a:	24 31       	cpi	r18, 0x14	; 20
    454c:	81 f4       	brne	.+32     	; 0x456e <timer+0x220>
				turnLcdOff();
    454e:	0e 94 39 12 	call	0x2472	; 0x2472 <turnLcdOff>
				power_twi_disable();
    4552:	e4 e6       	ldi	r30, 0x64	; 100
    4554:	f0 e0       	ldi	r31, 0x00	; 0
    4556:	80 81       	ld	r24, Z
    4558:	80 68       	ori	r24, 0x80	; 128
    455a:	80 83       	st	Z, r24
				power_timer2_disable();
    455c:	80 81       	ld	r24, Z
    455e:	80 64       	ori	r24, 0x40	; 64
    4560:	80 83       	st	Z, r24
				power_adc_disable();
    4562:	80 81       	ld	r24, Z
    4564:	81 60       	ori	r24, 0x01	; 1
    4566:	80 83       	st	Z, r24
				sleep_enable();
    4568:	83 b7       	in	r24, 0x33	; 51
    456a:	81 60       	ori	r24, 0x01	; 1
    456c:	83 bf       	out	0x33, r24	; 51
		}
		
	}
	
	
}
    456e:	1f 91       	pop	r17
    4570:	0f 91       	pop	r16
    4572:	ff 90       	pop	r15
    4574:	ef 90       	pop	r14
    4576:	08 95       	ret

00004578 <__vector_15>:

volatile uint16_t t;
ISR(TIMER1_OVF_vect){
    4578:	1f 92       	push	r1
    457a:	0f 92       	push	r0
    457c:	0f b6       	in	r0, 0x3f	; 63
    457e:	0f 92       	push	r0
    4580:	11 24       	eor	r1, r1
    4582:	5f 93       	push	r21
    4584:	6f 93       	push	r22
    4586:	7f 93       	push	r23
    4588:	8f 93       	push	r24
    458a:	9f 93       	push	r25
    458c:	af 93       	push	r26
    458e:	bf 93       	push	r27
	//This gets called every mSec!
	TCNT1L = 0x3c;
    4590:	8c e3       	ldi	r24, 0x3C	; 60
    4592:	80 93 84 00 	sts	0x0084, r24
	TCNT1H = 0xf6;
    4596:	86 ef       	ldi	r24, 0xF6	; 246
    4598:	80 93 85 00 	sts	0x0085, r24

	t++;
    459c:	80 91 47 02 	lds	r24, 0x0247
    45a0:	90 91 48 02 	lds	r25, 0x0248
    45a4:	01 96       	adiw	r24, 0x01	; 1
    45a6:	90 93 48 02 	sts	0x0248, r25
    45aa:	80 93 47 02 	sts	0x0247, r24
	if((t % 100) == 0){
    45ae:	80 91 47 02 	lds	r24, 0x0247
    45b2:	90 91 48 02 	lds	r25, 0x0248
    45b6:	64 e6       	ldi	r22, 0x64	; 100
    45b8:	70 e0       	ldi	r23, 0x00	; 0
    45ba:	0e 94 9f 25 	call	0x4b3e	; 0x4b3e <__udivmodhi4>
    45be:	00 97       	sbiw	r24, 0x00	; 0
    45c0:	49 f4       	brne	.+18     	; 0x45d4 <__vector_15+0x5c>
		SETFLAG(FLAG_100MS);
    45c2:	80 91 36 02 	lds	r24, 0x0236
    45c6:	90 91 37 02 	lds	r25, 0x0237
    45ca:	88 60       	ori	r24, 0x08	; 8
    45cc:	90 93 37 02 	sts	0x0237, r25
    45d0:	80 93 36 02 	sts	0x0236, r24
	}
	if((t % 500) == 0){
    45d4:	80 91 47 02 	lds	r24, 0x0247
    45d8:	90 91 48 02 	lds	r25, 0x0248
    45dc:	64 ef       	ldi	r22, 0xF4	; 244
    45de:	71 e0       	ldi	r23, 0x01	; 1
    45e0:	0e 94 9f 25 	call	0x4b3e	; 0x4b3e <__udivmodhi4>
    45e4:	00 97       	sbiw	r24, 0x00	; 0
    45e6:	49 f4       	brne	.+18     	; 0x45fa <__vector_15+0x82>
		SETFLAG(FLAG_HALFSEC);
    45e8:	80 91 36 02 	lds	r24, 0x0236
    45ec:	90 91 37 02 	lds	r25, 0x0237
    45f0:	84 60       	ori	r24, 0x04	; 4
    45f2:	90 93 37 02 	sts	0x0237, r25
    45f6:	80 93 36 02 	sts	0x0236, r24
	}
	if((t % 1000) == 0){
    45fa:	80 91 47 02 	lds	r24, 0x0247
    45fe:	90 91 48 02 	lds	r25, 0x0248
    4602:	68 ee       	ldi	r22, 0xE8	; 232
    4604:	73 e0       	ldi	r23, 0x03	; 3
    4606:	0e 94 9f 25 	call	0x4b3e	; 0x4b3e <__udivmodhi4>
    460a:	00 97       	sbiw	r24, 0x00	; 0
    460c:	69 f4       	brne	.+26     	; 0x4628 <__vector_15+0xb0>
		SETFLAG(FLAG_SEC);
    460e:	80 91 36 02 	lds	r24, 0x0236
    4612:	90 91 37 02 	lds	r25, 0x0237
    4616:	80 61       	ori	r24, 0x10	; 16
    4618:	90 93 37 02 	sts	0x0237, r25
    461c:	80 93 36 02 	sts	0x0236, r24
		t = 0;
    4620:	10 92 48 02 	sts	0x0248, r1
    4624:	10 92 47 02 	sts	0x0247, r1
	}
}
    4628:	bf 91       	pop	r27
    462a:	af 91       	pop	r26
    462c:	9f 91       	pop	r25
    462e:	8f 91       	pop	r24
    4630:	7f 91       	pop	r23
    4632:	6f 91       	pop	r22
    4634:	5f 91       	pop	r21
    4636:	0f 90       	pop	r0
    4638:	0f be       	out	0x3f, r0	; 63
    463a:	0f 90       	pop	r0
    463c:	1f 90       	pop	r1
    463e:	18 95       	reti

00004640 <uart_putchar>:
	
	stdout = stderr = &uart_str; //So that we can use printf() to print to our UART
}

int uart_putchar(const char c, FILE *stream) {
	loop_until_bit_is_set(UCSR0A, UDRE0);
    4640:	e0 ec       	ldi	r30, 0xC0	; 192
    4642:	f0 e0       	ldi	r31, 0x00	; 0
    4644:	90 81       	ld	r25, Z
    4646:	95 ff       	sbrs	r25, 5
    4648:	fd cf       	rjmp	.-6      	; 0x4644 <uart_putchar+0x4>
	UDR0 = c;
    464a:	80 93 c6 00 	sts	0x00C6, r24
	return 0;
}
    464e:	80 e0       	ldi	r24, 0x00	; 0
    4650:	90 e0       	ldi	r25, 0x00	; 0
    4652:	08 95       	ret

00004654 <uart_getchar>:
	UDR0 = c;
}

int uart_getchar(FILE *stream){
	return 0;
}
    4654:	80 e0       	ldi	r24, 0x00	; 0
    4656:	90 e0       	ldi	r25, 0x00	; 0
    4658:	08 95       	ret

0000465a <init_uart>:
void init_uart(void) {
#if F_CPU < 2000000UL && defined(U2X0)
  UCSR0A = _BV(U2X0);             // improve baud rate error by using 2x clk 
  UBRR0L = (F_CPU / (8UL * UART_BAUD)) - 1;
#else
  UBRR0L = (F_CPU / (16UL * UART_BAUD)) - 1;
    465a:	80 e4       	ldi	r24, 0x40	; 64
    465c:	80 93 c4 00 	sts	0x00C4, r24
#endif

	//UBRR0L = 51;
	//UBRRL = 129;
	//UBRR0L = 64;
	UCSR0B = _BV(TXEN0); /* tx/rx/RX Interrupt enable */
    4660:	88 e0       	ldi	r24, 0x08	; 8
    4662:	80 93 c1 00 	sts	0x00C1, r24
	
	stdout = stderr = &uart_str; //So that we can use printf() to print to our UART
    4666:	8c e9       	ldi	r24, 0x9C	; 156
    4668:	91 e0       	ldi	r25, 0x01	; 1
    466a:	90 93 78 02 	sts	0x0278, r25
    466e:	80 93 77 02 	sts	0x0277, r24
    4672:	90 93 76 02 	sts	0x0276, r25
    4676:	80 93 75 02 	sts	0x0275, r24
}
    467a:	08 95       	ret

0000467c <uart_putB>:
	loop_until_bit_is_set(UCSR0A, UDRE0);
	UDR0 = c;
	return 0;
}
void uart_putB(const char c){
	loop_until_bit_is_set(UCSR0A, UDRE0);
    467c:	e0 ec       	ldi	r30, 0xC0	; 192
    467e:	f0 e0       	ldi	r31, 0x00	; 0
    4680:	90 81       	ld	r25, Z
    4682:	95 ff       	sbrs	r25, 5
    4684:	fd cf       	rjmp	.-6      	; 0x4680 <uart_putB+0x4>
	UDR0 = c;
    4686:	80 93 c6 00 	sts	0x00C6, r24
}
    468a:	08 95       	ret

0000468c <bufferContainsData>:
	return 0;
}

char bufferContainsData(void){
	return recvTotal;
}
    468c:	80 91 71 02 	lds	r24, 0x0271
    4690:	08 95       	ret

00004692 <readBuffer>:

char readBuffer(const uint8_t pntr){
	if(pntr == recvTotal){
    4692:	90 e0       	ldi	r25, 0x00	; 0
    4694:	20 91 71 02 	lds	r18, 0x0271
    4698:	30 91 72 02 	lds	r19, 0x0272
    469c:	82 17       	cp	r24, r18
    469e:	93 07       	cpc	r25, r19
    46a0:	21 f4       	brne	.+8      	; 0x46aa <readBuffer+0x18>
		recvTotal = 0;
    46a2:	10 92 72 02 	sts	0x0272, r1
    46a6:	10 92 71 02 	sts	0x0271, r1
	}
	
	return recvByte[pntr];
    46aa:	87 5b       	subi	r24, 0xB7	; 183
    46ac:	9d 4f       	sbci	r25, 0xFD	; 253
}
    46ae:	fc 01       	movw	r30, r24
    46b0:	80 81       	ld	r24, Z
    46b2:	08 95       	ret

000046b4 <__vector_20>:


ISR(USART0_RX_vect ){
    46b4:	1f 92       	push	r1
    46b6:	0f 92       	push	r0
    46b8:	0f b6       	in	r0, 0x3f	; 63
    46ba:	0f 92       	push	r0
    46bc:	11 24       	eor	r1, r1
    46be:	2f 93       	push	r18
    46c0:	8f 93       	push	r24
    46c2:	9f 93       	push	r25
    46c4:	ef 93       	push	r30
    46c6:	ff 93       	push	r31
	recvTotal++;
    46c8:	80 91 71 02 	lds	r24, 0x0271
    46cc:	90 91 72 02 	lds	r25, 0x0272
    46d0:	01 96       	adiw	r24, 0x01	; 1
    46d2:	90 93 72 02 	sts	0x0272, r25
    46d6:	80 93 71 02 	sts	0x0271, r24
	recvByte[recvTotal] = UDR0;
    46da:	20 91 c6 00 	lds	r18, 0x00C6
    46de:	87 5b       	subi	r24, 0xB7	; 183
    46e0:	9d 4f       	sbci	r25, 0xFD	; 253
    46e2:	fc 01       	movw	r30, r24
    46e4:	20 83       	st	Z, r18
}
    46e6:	ff 91       	pop	r31
    46e8:	ef 91       	pop	r30
    46ea:	9f 91       	pop	r25
    46ec:	8f 91       	pop	r24
    46ee:	2f 91       	pop	r18
    46f0:	0f 90       	pop	r0
    46f2:	0f be       	out	0x3f, r0	; 63
    46f4:	0f 90       	pop	r0
    46f6:	1f 90       	pop	r1
    46f8:	18 95       	reti

000046fa <__subsf3>:
    46fa:	50 58       	subi	r21, 0x80	; 128

000046fc <__addsf3>:
    46fc:	bb 27       	eor	r27, r27
    46fe:	aa 27       	eor	r26, r26
    4700:	0e d0       	rcall	.+28     	; 0x471e <__addsf3x>
    4702:	70 c1       	rjmp	.+736    	; 0x49e4 <__fp_round>
    4704:	61 d1       	rcall	.+706    	; 0x49c8 <__fp_pscA>
    4706:	30 f0       	brcs	.+12     	; 0x4714 <__addsf3+0x18>
    4708:	66 d1       	rcall	.+716    	; 0x49d6 <__fp_pscB>
    470a:	20 f0       	brcs	.+8      	; 0x4714 <__addsf3+0x18>
    470c:	31 f4       	brne	.+12     	; 0x471a <__addsf3+0x1e>
    470e:	9f 3f       	cpi	r25, 0xFF	; 255
    4710:	11 f4       	brne	.+4      	; 0x4716 <__addsf3+0x1a>
    4712:	1e f4       	brtc	.+6      	; 0x471a <__addsf3+0x1e>
    4714:	56 c1       	rjmp	.+684    	; 0x49c2 <__fp_nan>
    4716:	0e f4       	brtc	.+2      	; 0x471a <__addsf3+0x1e>
    4718:	e0 95       	com	r30
    471a:	e7 fb       	bst	r30, 7
    471c:	4c c1       	rjmp	.+664    	; 0x49b6 <__fp_inf>

0000471e <__addsf3x>:
    471e:	e9 2f       	mov	r30, r25
    4720:	72 d1       	rcall	.+740    	; 0x4a06 <__fp_split3>
    4722:	80 f3       	brcs	.-32     	; 0x4704 <__addsf3+0x8>
    4724:	ba 17       	cp	r27, r26
    4726:	62 07       	cpc	r22, r18
    4728:	73 07       	cpc	r23, r19
    472a:	84 07       	cpc	r24, r20
    472c:	95 07       	cpc	r25, r21
    472e:	18 f0       	brcs	.+6      	; 0x4736 <__addsf3x+0x18>
    4730:	71 f4       	brne	.+28     	; 0x474e <__addsf3x+0x30>
    4732:	9e f5       	brtc	.+102    	; 0x479a <__addsf3x+0x7c>
    4734:	8a c1       	rjmp	.+788    	; 0x4a4a <__fp_zero>
    4736:	0e f4       	brtc	.+2      	; 0x473a <__addsf3x+0x1c>
    4738:	e0 95       	com	r30
    473a:	0b 2e       	mov	r0, r27
    473c:	ba 2f       	mov	r27, r26
    473e:	a0 2d       	mov	r26, r0
    4740:	0b 01       	movw	r0, r22
    4742:	b9 01       	movw	r22, r18
    4744:	90 01       	movw	r18, r0
    4746:	0c 01       	movw	r0, r24
    4748:	ca 01       	movw	r24, r20
    474a:	a0 01       	movw	r20, r0
    474c:	11 24       	eor	r1, r1
    474e:	ff 27       	eor	r31, r31
    4750:	59 1b       	sub	r21, r25
    4752:	99 f0       	breq	.+38     	; 0x477a <__addsf3x+0x5c>
    4754:	59 3f       	cpi	r21, 0xF9	; 249
    4756:	50 f4       	brcc	.+20     	; 0x476c <__addsf3x+0x4e>
    4758:	50 3e       	cpi	r21, 0xE0	; 224
    475a:	68 f1       	brcs	.+90     	; 0x47b6 <__addsf3x+0x98>
    475c:	1a 16       	cp	r1, r26
    475e:	f0 40       	sbci	r31, 0x00	; 0
    4760:	a2 2f       	mov	r26, r18
    4762:	23 2f       	mov	r18, r19
    4764:	34 2f       	mov	r19, r20
    4766:	44 27       	eor	r20, r20
    4768:	58 5f       	subi	r21, 0xF8	; 248
    476a:	f3 cf       	rjmp	.-26     	; 0x4752 <__addsf3x+0x34>
    476c:	46 95       	lsr	r20
    476e:	37 95       	ror	r19
    4770:	27 95       	ror	r18
    4772:	a7 95       	ror	r26
    4774:	f0 40       	sbci	r31, 0x00	; 0
    4776:	53 95       	inc	r21
    4778:	c9 f7       	brne	.-14     	; 0x476c <__addsf3x+0x4e>
    477a:	7e f4       	brtc	.+30     	; 0x479a <__addsf3x+0x7c>
    477c:	1f 16       	cp	r1, r31
    477e:	ba 0b       	sbc	r27, r26
    4780:	62 0b       	sbc	r22, r18
    4782:	73 0b       	sbc	r23, r19
    4784:	84 0b       	sbc	r24, r20
    4786:	ba f0       	brmi	.+46     	; 0x47b6 <__addsf3x+0x98>
    4788:	91 50       	subi	r25, 0x01	; 1
    478a:	a1 f0       	breq	.+40     	; 0x47b4 <__addsf3x+0x96>
    478c:	ff 0f       	add	r31, r31
    478e:	bb 1f       	adc	r27, r27
    4790:	66 1f       	adc	r22, r22
    4792:	77 1f       	adc	r23, r23
    4794:	88 1f       	adc	r24, r24
    4796:	c2 f7       	brpl	.-16     	; 0x4788 <__addsf3x+0x6a>
    4798:	0e c0       	rjmp	.+28     	; 0x47b6 <__addsf3x+0x98>
    479a:	ba 0f       	add	r27, r26
    479c:	62 1f       	adc	r22, r18
    479e:	73 1f       	adc	r23, r19
    47a0:	84 1f       	adc	r24, r20
    47a2:	48 f4       	brcc	.+18     	; 0x47b6 <__addsf3x+0x98>
    47a4:	87 95       	ror	r24
    47a6:	77 95       	ror	r23
    47a8:	67 95       	ror	r22
    47aa:	b7 95       	ror	r27
    47ac:	f7 95       	ror	r31
    47ae:	9e 3f       	cpi	r25, 0xFE	; 254
    47b0:	08 f0       	brcs	.+2      	; 0x47b4 <__addsf3x+0x96>
    47b2:	b3 cf       	rjmp	.-154    	; 0x471a <__addsf3+0x1e>
    47b4:	93 95       	inc	r25
    47b6:	88 0f       	add	r24, r24
    47b8:	08 f0       	brcs	.+2      	; 0x47bc <__addsf3x+0x9e>
    47ba:	99 27       	eor	r25, r25
    47bc:	ee 0f       	add	r30, r30
    47be:	97 95       	ror	r25
    47c0:	87 95       	ror	r24
    47c2:	08 95       	ret

000047c4 <__cmpsf2>:
    47c4:	d4 d0       	rcall	.+424    	; 0x496e <__fp_cmp>
    47c6:	08 f4       	brcc	.+2      	; 0x47ca <__cmpsf2+0x6>
    47c8:	81 e0       	ldi	r24, 0x01	; 1
    47ca:	08 95       	ret

000047cc <__divsf3>:
    47cc:	0c d0       	rcall	.+24     	; 0x47e6 <__divsf3x>
    47ce:	0a c1       	rjmp	.+532    	; 0x49e4 <__fp_round>
    47d0:	02 d1       	rcall	.+516    	; 0x49d6 <__fp_pscB>
    47d2:	40 f0       	brcs	.+16     	; 0x47e4 <__divsf3+0x18>
    47d4:	f9 d0       	rcall	.+498    	; 0x49c8 <__fp_pscA>
    47d6:	30 f0       	brcs	.+12     	; 0x47e4 <__divsf3+0x18>
    47d8:	21 f4       	brne	.+8      	; 0x47e2 <__divsf3+0x16>
    47da:	5f 3f       	cpi	r21, 0xFF	; 255
    47dc:	19 f0       	breq	.+6      	; 0x47e4 <__divsf3+0x18>
    47de:	eb c0       	rjmp	.+470    	; 0x49b6 <__fp_inf>
    47e0:	51 11       	cpse	r21, r1
    47e2:	34 c1       	rjmp	.+616    	; 0x4a4c <__fp_szero>
    47e4:	ee c0       	rjmp	.+476    	; 0x49c2 <__fp_nan>

000047e6 <__divsf3x>:
    47e6:	0f d1       	rcall	.+542    	; 0x4a06 <__fp_split3>
    47e8:	98 f3       	brcs	.-26     	; 0x47d0 <__divsf3+0x4>

000047ea <__divsf3_pse>:
    47ea:	99 23       	and	r25, r25
    47ec:	c9 f3       	breq	.-14     	; 0x47e0 <__divsf3+0x14>
    47ee:	55 23       	and	r21, r21
    47f0:	b1 f3       	breq	.-20     	; 0x47de <__divsf3+0x12>
    47f2:	95 1b       	sub	r25, r21
    47f4:	55 0b       	sbc	r21, r21
    47f6:	bb 27       	eor	r27, r27
    47f8:	aa 27       	eor	r26, r26
    47fa:	62 17       	cp	r22, r18
    47fc:	73 07       	cpc	r23, r19
    47fe:	84 07       	cpc	r24, r20
    4800:	38 f0       	brcs	.+14     	; 0x4810 <__divsf3_pse+0x26>
    4802:	9f 5f       	subi	r25, 0xFF	; 255
    4804:	5f 4f       	sbci	r21, 0xFF	; 255
    4806:	22 0f       	add	r18, r18
    4808:	33 1f       	adc	r19, r19
    480a:	44 1f       	adc	r20, r20
    480c:	aa 1f       	adc	r26, r26
    480e:	a9 f3       	breq	.-22     	; 0x47fa <__divsf3_pse+0x10>
    4810:	33 d0       	rcall	.+102    	; 0x4878 <__divsf3_pse+0x8e>
    4812:	0e 2e       	mov	r0, r30
    4814:	3a f0       	brmi	.+14     	; 0x4824 <__divsf3_pse+0x3a>
    4816:	e0 e8       	ldi	r30, 0x80	; 128
    4818:	30 d0       	rcall	.+96     	; 0x487a <__divsf3_pse+0x90>
    481a:	91 50       	subi	r25, 0x01	; 1
    481c:	50 40       	sbci	r21, 0x00	; 0
    481e:	e6 95       	lsr	r30
    4820:	00 1c       	adc	r0, r0
    4822:	ca f7       	brpl	.-14     	; 0x4816 <__divsf3_pse+0x2c>
    4824:	29 d0       	rcall	.+82     	; 0x4878 <__divsf3_pse+0x8e>
    4826:	fe 2f       	mov	r31, r30
    4828:	27 d0       	rcall	.+78     	; 0x4878 <__divsf3_pse+0x8e>
    482a:	66 0f       	add	r22, r22
    482c:	77 1f       	adc	r23, r23
    482e:	88 1f       	adc	r24, r24
    4830:	bb 1f       	adc	r27, r27
    4832:	26 17       	cp	r18, r22
    4834:	37 07       	cpc	r19, r23
    4836:	48 07       	cpc	r20, r24
    4838:	ab 07       	cpc	r26, r27
    483a:	b0 e8       	ldi	r27, 0x80	; 128
    483c:	09 f0       	breq	.+2      	; 0x4840 <__divsf3_pse+0x56>
    483e:	bb 0b       	sbc	r27, r27
    4840:	80 2d       	mov	r24, r0
    4842:	bf 01       	movw	r22, r30
    4844:	ff 27       	eor	r31, r31
    4846:	93 58       	subi	r25, 0x83	; 131
    4848:	5f 4f       	sbci	r21, 0xFF	; 255
    484a:	2a f0       	brmi	.+10     	; 0x4856 <__divsf3_pse+0x6c>
    484c:	9e 3f       	cpi	r25, 0xFE	; 254
    484e:	51 05       	cpc	r21, r1
    4850:	68 f0       	brcs	.+26     	; 0x486c <__divsf3_pse+0x82>
    4852:	b1 c0       	rjmp	.+354    	; 0x49b6 <__fp_inf>
    4854:	fb c0       	rjmp	.+502    	; 0x4a4c <__fp_szero>
    4856:	5f 3f       	cpi	r21, 0xFF	; 255
    4858:	ec f3       	brlt	.-6      	; 0x4854 <__divsf3_pse+0x6a>
    485a:	98 3e       	cpi	r25, 0xE8	; 232
    485c:	dc f3       	brlt	.-10     	; 0x4854 <__divsf3_pse+0x6a>
    485e:	86 95       	lsr	r24
    4860:	77 95       	ror	r23
    4862:	67 95       	ror	r22
    4864:	b7 95       	ror	r27
    4866:	f7 95       	ror	r31
    4868:	9f 5f       	subi	r25, 0xFF	; 255
    486a:	c9 f7       	brne	.-14     	; 0x485e <__divsf3_pse+0x74>
    486c:	88 0f       	add	r24, r24
    486e:	91 1d       	adc	r25, r1
    4870:	96 95       	lsr	r25
    4872:	87 95       	ror	r24
    4874:	97 f9       	bld	r25, 7
    4876:	08 95       	ret
    4878:	e1 e0       	ldi	r30, 0x01	; 1
    487a:	66 0f       	add	r22, r22
    487c:	77 1f       	adc	r23, r23
    487e:	88 1f       	adc	r24, r24
    4880:	bb 1f       	adc	r27, r27
    4882:	62 17       	cp	r22, r18
    4884:	73 07       	cpc	r23, r19
    4886:	84 07       	cpc	r24, r20
    4888:	ba 07       	cpc	r27, r26
    488a:	20 f0       	brcs	.+8      	; 0x4894 <__divsf3_pse+0xaa>
    488c:	62 1b       	sub	r22, r18
    488e:	73 0b       	sbc	r23, r19
    4890:	84 0b       	sbc	r24, r20
    4892:	ba 0b       	sbc	r27, r26
    4894:	ee 1f       	adc	r30, r30
    4896:	88 f7       	brcc	.-30     	; 0x487a <__divsf3_pse+0x90>
    4898:	e0 95       	com	r30
    489a:	08 95       	ret

0000489c <__fixunssfsi>:
    489c:	bc d0       	rcall	.+376    	; 0x4a16 <__fp_splitA>
    489e:	88 f0       	brcs	.+34     	; 0x48c2 <__fixunssfsi+0x26>
    48a0:	9f 57       	subi	r25, 0x7F	; 127
    48a2:	90 f0       	brcs	.+36     	; 0x48c8 <__fixunssfsi+0x2c>
    48a4:	b9 2f       	mov	r27, r25
    48a6:	99 27       	eor	r25, r25
    48a8:	b7 51       	subi	r27, 0x17	; 23
    48aa:	a0 f0       	brcs	.+40     	; 0x48d4 <__fixunssfsi+0x38>
    48ac:	d1 f0       	breq	.+52     	; 0x48e2 <__fixunssfsi+0x46>
    48ae:	66 0f       	add	r22, r22
    48b0:	77 1f       	adc	r23, r23
    48b2:	88 1f       	adc	r24, r24
    48b4:	99 1f       	adc	r25, r25
    48b6:	1a f0       	brmi	.+6      	; 0x48be <__fixunssfsi+0x22>
    48b8:	ba 95       	dec	r27
    48ba:	c9 f7       	brne	.-14     	; 0x48ae <__fixunssfsi+0x12>
    48bc:	12 c0       	rjmp	.+36     	; 0x48e2 <__fixunssfsi+0x46>
    48be:	b1 30       	cpi	r27, 0x01	; 1
    48c0:	81 f0       	breq	.+32     	; 0x48e2 <__fixunssfsi+0x46>
    48c2:	c3 d0       	rcall	.+390    	; 0x4a4a <__fp_zero>
    48c4:	b1 e0       	ldi	r27, 0x01	; 1
    48c6:	08 95       	ret
    48c8:	c0 c0       	rjmp	.+384    	; 0x4a4a <__fp_zero>
    48ca:	67 2f       	mov	r22, r23
    48cc:	78 2f       	mov	r23, r24
    48ce:	88 27       	eor	r24, r24
    48d0:	b8 5f       	subi	r27, 0xF8	; 248
    48d2:	39 f0       	breq	.+14     	; 0x48e2 <__fixunssfsi+0x46>
    48d4:	b9 3f       	cpi	r27, 0xF9	; 249
    48d6:	cc f3       	brlt	.-14     	; 0x48ca <__fixunssfsi+0x2e>
    48d8:	86 95       	lsr	r24
    48da:	77 95       	ror	r23
    48dc:	67 95       	ror	r22
    48de:	b3 95       	inc	r27
    48e0:	d9 f7       	brne	.-10     	; 0x48d8 <__fixunssfsi+0x3c>
    48e2:	3e f4       	brtc	.+14     	; 0x48f2 <__fixunssfsi+0x56>
    48e4:	90 95       	com	r25
    48e6:	80 95       	com	r24
    48e8:	70 95       	com	r23
    48ea:	61 95       	neg	r22
    48ec:	7f 4f       	sbci	r23, 0xFF	; 255
    48ee:	8f 4f       	sbci	r24, 0xFF	; 255
    48f0:	9f 4f       	sbci	r25, 0xFF	; 255
    48f2:	08 95       	ret

000048f4 <__floatunsisf>:
    48f4:	e8 94       	clt
    48f6:	09 c0       	rjmp	.+18     	; 0x490a <__floatsisf+0x12>

000048f8 <__floatsisf>:
    48f8:	97 fb       	bst	r25, 7
    48fa:	3e f4       	brtc	.+14     	; 0x490a <__floatsisf+0x12>
    48fc:	90 95       	com	r25
    48fe:	80 95       	com	r24
    4900:	70 95       	com	r23
    4902:	61 95       	neg	r22
    4904:	7f 4f       	sbci	r23, 0xFF	; 255
    4906:	8f 4f       	sbci	r24, 0xFF	; 255
    4908:	9f 4f       	sbci	r25, 0xFF	; 255
    490a:	99 23       	and	r25, r25
    490c:	a9 f0       	breq	.+42     	; 0x4938 <__floatsisf+0x40>
    490e:	f9 2f       	mov	r31, r25
    4910:	96 e9       	ldi	r25, 0x96	; 150
    4912:	bb 27       	eor	r27, r27
    4914:	93 95       	inc	r25
    4916:	f6 95       	lsr	r31
    4918:	87 95       	ror	r24
    491a:	77 95       	ror	r23
    491c:	67 95       	ror	r22
    491e:	b7 95       	ror	r27
    4920:	f1 11       	cpse	r31, r1
    4922:	f8 cf       	rjmp	.-16     	; 0x4914 <__floatsisf+0x1c>
    4924:	fa f4       	brpl	.+62     	; 0x4964 <__floatsisf+0x6c>
    4926:	bb 0f       	add	r27, r27
    4928:	11 f4       	brne	.+4      	; 0x492e <__floatsisf+0x36>
    492a:	60 ff       	sbrs	r22, 0
    492c:	1b c0       	rjmp	.+54     	; 0x4964 <__floatsisf+0x6c>
    492e:	6f 5f       	subi	r22, 0xFF	; 255
    4930:	7f 4f       	sbci	r23, 0xFF	; 255
    4932:	8f 4f       	sbci	r24, 0xFF	; 255
    4934:	9f 4f       	sbci	r25, 0xFF	; 255
    4936:	16 c0       	rjmp	.+44     	; 0x4964 <__floatsisf+0x6c>
    4938:	88 23       	and	r24, r24
    493a:	11 f0       	breq	.+4      	; 0x4940 <__floatsisf+0x48>
    493c:	96 e9       	ldi	r25, 0x96	; 150
    493e:	11 c0       	rjmp	.+34     	; 0x4962 <__floatsisf+0x6a>
    4940:	77 23       	and	r23, r23
    4942:	21 f0       	breq	.+8      	; 0x494c <__floatsisf+0x54>
    4944:	9e e8       	ldi	r25, 0x8E	; 142
    4946:	87 2f       	mov	r24, r23
    4948:	76 2f       	mov	r23, r22
    494a:	05 c0       	rjmp	.+10     	; 0x4956 <__floatsisf+0x5e>
    494c:	66 23       	and	r22, r22
    494e:	71 f0       	breq	.+28     	; 0x496c <__floatsisf+0x74>
    4950:	96 e8       	ldi	r25, 0x86	; 134
    4952:	86 2f       	mov	r24, r22
    4954:	70 e0       	ldi	r23, 0x00	; 0
    4956:	60 e0       	ldi	r22, 0x00	; 0
    4958:	2a f0       	brmi	.+10     	; 0x4964 <__floatsisf+0x6c>
    495a:	9a 95       	dec	r25
    495c:	66 0f       	add	r22, r22
    495e:	77 1f       	adc	r23, r23
    4960:	88 1f       	adc	r24, r24
    4962:	da f7       	brpl	.-10     	; 0x495a <__floatsisf+0x62>
    4964:	88 0f       	add	r24, r24
    4966:	96 95       	lsr	r25
    4968:	87 95       	ror	r24
    496a:	97 f9       	bld	r25, 7
    496c:	08 95       	ret

0000496e <__fp_cmp>:
    496e:	99 0f       	add	r25, r25
    4970:	00 08       	sbc	r0, r0
    4972:	55 0f       	add	r21, r21
    4974:	aa 0b       	sbc	r26, r26
    4976:	e0 e8       	ldi	r30, 0x80	; 128
    4978:	fe ef       	ldi	r31, 0xFE	; 254
    497a:	16 16       	cp	r1, r22
    497c:	17 06       	cpc	r1, r23
    497e:	e8 07       	cpc	r30, r24
    4980:	f9 07       	cpc	r31, r25
    4982:	c0 f0       	brcs	.+48     	; 0x49b4 <__fp_cmp+0x46>
    4984:	12 16       	cp	r1, r18
    4986:	13 06       	cpc	r1, r19
    4988:	e4 07       	cpc	r30, r20
    498a:	f5 07       	cpc	r31, r21
    498c:	98 f0       	brcs	.+38     	; 0x49b4 <__fp_cmp+0x46>
    498e:	62 1b       	sub	r22, r18
    4990:	73 0b       	sbc	r23, r19
    4992:	84 0b       	sbc	r24, r20
    4994:	95 0b       	sbc	r25, r21
    4996:	39 f4       	brne	.+14     	; 0x49a6 <__fp_cmp+0x38>
    4998:	0a 26       	eor	r0, r26
    499a:	61 f0       	breq	.+24     	; 0x49b4 <__fp_cmp+0x46>
    499c:	23 2b       	or	r18, r19
    499e:	24 2b       	or	r18, r20
    49a0:	25 2b       	or	r18, r21
    49a2:	21 f4       	brne	.+8      	; 0x49ac <__fp_cmp+0x3e>
    49a4:	08 95       	ret
    49a6:	0a 26       	eor	r0, r26
    49a8:	09 f4       	brne	.+2      	; 0x49ac <__fp_cmp+0x3e>
    49aa:	a1 40       	sbci	r26, 0x01	; 1
    49ac:	a6 95       	lsr	r26
    49ae:	8f ef       	ldi	r24, 0xFF	; 255
    49b0:	81 1d       	adc	r24, r1
    49b2:	81 1d       	adc	r24, r1
    49b4:	08 95       	ret

000049b6 <__fp_inf>:
    49b6:	97 f9       	bld	r25, 7
    49b8:	9f 67       	ori	r25, 0x7F	; 127
    49ba:	80 e8       	ldi	r24, 0x80	; 128
    49bc:	70 e0       	ldi	r23, 0x00	; 0
    49be:	60 e0       	ldi	r22, 0x00	; 0
    49c0:	08 95       	ret

000049c2 <__fp_nan>:
    49c2:	9f ef       	ldi	r25, 0xFF	; 255
    49c4:	80 ec       	ldi	r24, 0xC0	; 192
    49c6:	08 95       	ret

000049c8 <__fp_pscA>:
    49c8:	00 24       	eor	r0, r0
    49ca:	0a 94       	dec	r0
    49cc:	16 16       	cp	r1, r22
    49ce:	17 06       	cpc	r1, r23
    49d0:	18 06       	cpc	r1, r24
    49d2:	09 06       	cpc	r0, r25
    49d4:	08 95       	ret

000049d6 <__fp_pscB>:
    49d6:	00 24       	eor	r0, r0
    49d8:	0a 94       	dec	r0
    49da:	12 16       	cp	r1, r18
    49dc:	13 06       	cpc	r1, r19
    49de:	14 06       	cpc	r1, r20
    49e0:	05 06       	cpc	r0, r21
    49e2:	08 95       	ret

000049e4 <__fp_round>:
    49e4:	09 2e       	mov	r0, r25
    49e6:	03 94       	inc	r0
    49e8:	00 0c       	add	r0, r0
    49ea:	11 f4       	brne	.+4      	; 0x49f0 <__fp_round+0xc>
    49ec:	88 23       	and	r24, r24
    49ee:	52 f0       	brmi	.+20     	; 0x4a04 <__fp_round+0x20>
    49f0:	bb 0f       	add	r27, r27
    49f2:	40 f4       	brcc	.+16     	; 0x4a04 <__fp_round+0x20>
    49f4:	bf 2b       	or	r27, r31
    49f6:	11 f4       	brne	.+4      	; 0x49fc <__fp_round+0x18>
    49f8:	60 ff       	sbrs	r22, 0
    49fa:	04 c0       	rjmp	.+8      	; 0x4a04 <__fp_round+0x20>
    49fc:	6f 5f       	subi	r22, 0xFF	; 255
    49fe:	7f 4f       	sbci	r23, 0xFF	; 255
    4a00:	8f 4f       	sbci	r24, 0xFF	; 255
    4a02:	9f 4f       	sbci	r25, 0xFF	; 255
    4a04:	08 95       	ret

00004a06 <__fp_split3>:
    4a06:	57 fd       	sbrc	r21, 7
    4a08:	90 58       	subi	r25, 0x80	; 128
    4a0a:	44 0f       	add	r20, r20
    4a0c:	55 1f       	adc	r21, r21
    4a0e:	59 f0       	breq	.+22     	; 0x4a26 <__fp_splitA+0x10>
    4a10:	5f 3f       	cpi	r21, 0xFF	; 255
    4a12:	71 f0       	breq	.+28     	; 0x4a30 <__fp_splitA+0x1a>
    4a14:	47 95       	ror	r20

00004a16 <__fp_splitA>:
    4a16:	88 0f       	add	r24, r24
    4a18:	97 fb       	bst	r25, 7
    4a1a:	99 1f       	adc	r25, r25
    4a1c:	61 f0       	breq	.+24     	; 0x4a36 <__fp_splitA+0x20>
    4a1e:	9f 3f       	cpi	r25, 0xFF	; 255
    4a20:	79 f0       	breq	.+30     	; 0x4a40 <__fp_splitA+0x2a>
    4a22:	87 95       	ror	r24
    4a24:	08 95       	ret
    4a26:	12 16       	cp	r1, r18
    4a28:	13 06       	cpc	r1, r19
    4a2a:	14 06       	cpc	r1, r20
    4a2c:	55 1f       	adc	r21, r21
    4a2e:	f2 cf       	rjmp	.-28     	; 0x4a14 <__fp_split3+0xe>
    4a30:	46 95       	lsr	r20
    4a32:	f1 df       	rcall	.-30     	; 0x4a16 <__fp_splitA>
    4a34:	08 c0       	rjmp	.+16     	; 0x4a46 <__fp_splitA+0x30>
    4a36:	16 16       	cp	r1, r22
    4a38:	17 06       	cpc	r1, r23
    4a3a:	18 06       	cpc	r1, r24
    4a3c:	99 1f       	adc	r25, r25
    4a3e:	f1 cf       	rjmp	.-30     	; 0x4a22 <__fp_splitA+0xc>
    4a40:	86 95       	lsr	r24
    4a42:	71 05       	cpc	r23, r1
    4a44:	61 05       	cpc	r22, r1
    4a46:	08 94       	sec
    4a48:	08 95       	ret

00004a4a <__fp_zero>:
    4a4a:	e8 94       	clt

00004a4c <__fp_szero>:
    4a4c:	bb 27       	eor	r27, r27
    4a4e:	66 27       	eor	r22, r22
    4a50:	77 27       	eor	r23, r23
    4a52:	cb 01       	movw	r24, r22
    4a54:	97 f9       	bld	r25, 7
    4a56:	08 95       	ret

00004a58 <__gesf2>:
    4a58:	8a df       	rcall	.-236    	; 0x496e <__fp_cmp>
    4a5a:	08 f4       	brcc	.+2      	; 0x4a5e <__gesf2+0x6>
    4a5c:	8f ef       	ldi	r24, 0xFF	; 255
    4a5e:	08 95       	ret

00004a60 <__mulsf3>:
    4a60:	0b d0       	rcall	.+22     	; 0x4a78 <__mulsf3x>
    4a62:	c0 cf       	rjmp	.-128    	; 0x49e4 <__fp_round>
    4a64:	b1 df       	rcall	.-158    	; 0x49c8 <__fp_pscA>
    4a66:	28 f0       	brcs	.+10     	; 0x4a72 <__mulsf3+0x12>
    4a68:	b6 df       	rcall	.-148    	; 0x49d6 <__fp_pscB>
    4a6a:	18 f0       	brcs	.+6      	; 0x4a72 <__mulsf3+0x12>
    4a6c:	95 23       	and	r25, r21
    4a6e:	09 f0       	breq	.+2      	; 0x4a72 <__mulsf3+0x12>
    4a70:	a2 cf       	rjmp	.-188    	; 0x49b6 <__fp_inf>
    4a72:	a7 cf       	rjmp	.-178    	; 0x49c2 <__fp_nan>
    4a74:	11 24       	eor	r1, r1
    4a76:	ea cf       	rjmp	.-44     	; 0x4a4c <__fp_szero>

00004a78 <__mulsf3x>:
    4a78:	c6 df       	rcall	.-116    	; 0x4a06 <__fp_split3>
    4a7a:	a0 f3       	brcs	.-24     	; 0x4a64 <__mulsf3+0x4>

00004a7c <__mulsf3_pse>:
    4a7c:	95 9f       	mul	r25, r21
    4a7e:	d1 f3       	breq	.-12     	; 0x4a74 <__mulsf3+0x14>
    4a80:	95 0f       	add	r25, r21
    4a82:	50 e0       	ldi	r21, 0x00	; 0
    4a84:	55 1f       	adc	r21, r21
    4a86:	62 9f       	mul	r22, r18
    4a88:	f0 01       	movw	r30, r0
    4a8a:	72 9f       	mul	r23, r18
    4a8c:	bb 27       	eor	r27, r27
    4a8e:	f0 0d       	add	r31, r0
    4a90:	b1 1d       	adc	r27, r1
    4a92:	63 9f       	mul	r22, r19
    4a94:	aa 27       	eor	r26, r26
    4a96:	f0 0d       	add	r31, r0
    4a98:	b1 1d       	adc	r27, r1
    4a9a:	aa 1f       	adc	r26, r26
    4a9c:	64 9f       	mul	r22, r20
    4a9e:	66 27       	eor	r22, r22
    4aa0:	b0 0d       	add	r27, r0
    4aa2:	a1 1d       	adc	r26, r1
    4aa4:	66 1f       	adc	r22, r22
    4aa6:	82 9f       	mul	r24, r18
    4aa8:	22 27       	eor	r18, r18
    4aaa:	b0 0d       	add	r27, r0
    4aac:	a1 1d       	adc	r26, r1
    4aae:	62 1f       	adc	r22, r18
    4ab0:	73 9f       	mul	r23, r19
    4ab2:	b0 0d       	add	r27, r0
    4ab4:	a1 1d       	adc	r26, r1
    4ab6:	62 1f       	adc	r22, r18
    4ab8:	83 9f       	mul	r24, r19
    4aba:	a0 0d       	add	r26, r0
    4abc:	61 1d       	adc	r22, r1
    4abe:	22 1f       	adc	r18, r18
    4ac0:	74 9f       	mul	r23, r20
    4ac2:	33 27       	eor	r19, r19
    4ac4:	a0 0d       	add	r26, r0
    4ac6:	61 1d       	adc	r22, r1
    4ac8:	23 1f       	adc	r18, r19
    4aca:	84 9f       	mul	r24, r20
    4acc:	60 0d       	add	r22, r0
    4ace:	21 1d       	adc	r18, r1
    4ad0:	82 2f       	mov	r24, r18
    4ad2:	76 2f       	mov	r23, r22
    4ad4:	6a 2f       	mov	r22, r26
    4ad6:	11 24       	eor	r1, r1
    4ad8:	9f 57       	subi	r25, 0x7F	; 127
    4ada:	50 40       	sbci	r21, 0x00	; 0
    4adc:	8a f0       	brmi	.+34     	; 0x4b00 <__mulsf3_pse+0x84>
    4ade:	e1 f0       	breq	.+56     	; 0x4b18 <__mulsf3_pse+0x9c>
    4ae0:	88 23       	and	r24, r24
    4ae2:	4a f0       	brmi	.+18     	; 0x4af6 <__mulsf3_pse+0x7a>
    4ae4:	ee 0f       	add	r30, r30
    4ae6:	ff 1f       	adc	r31, r31
    4ae8:	bb 1f       	adc	r27, r27
    4aea:	66 1f       	adc	r22, r22
    4aec:	77 1f       	adc	r23, r23
    4aee:	88 1f       	adc	r24, r24
    4af0:	91 50       	subi	r25, 0x01	; 1
    4af2:	50 40       	sbci	r21, 0x00	; 0
    4af4:	a9 f7       	brne	.-22     	; 0x4ae0 <__mulsf3_pse+0x64>
    4af6:	9e 3f       	cpi	r25, 0xFE	; 254
    4af8:	51 05       	cpc	r21, r1
    4afa:	70 f0       	brcs	.+28     	; 0x4b18 <__mulsf3_pse+0x9c>
    4afc:	5c cf       	rjmp	.-328    	; 0x49b6 <__fp_inf>
    4afe:	a6 cf       	rjmp	.-180    	; 0x4a4c <__fp_szero>
    4b00:	5f 3f       	cpi	r21, 0xFF	; 255
    4b02:	ec f3       	brlt	.-6      	; 0x4afe <__mulsf3_pse+0x82>
    4b04:	98 3e       	cpi	r25, 0xE8	; 232
    4b06:	dc f3       	brlt	.-10     	; 0x4afe <__mulsf3_pse+0x82>
    4b08:	86 95       	lsr	r24
    4b0a:	77 95       	ror	r23
    4b0c:	67 95       	ror	r22
    4b0e:	b7 95       	ror	r27
    4b10:	f7 95       	ror	r31
    4b12:	e7 95       	ror	r30
    4b14:	9f 5f       	subi	r25, 0xFF	; 255
    4b16:	c1 f7       	brne	.-16     	; 0x4b08 <__mulsf3_pse+0x8c>
    4b18:	fe 2b       	or	r31, r30
    4b1a:	88 0f       	add	r24, r24
    4b1c:	91 1d       	adc	r25, r1
    4b1e:	96 95       	lsr	r25
    4b20:	87 95       	ror	r24
    4b22:	97 f9       	bld	r25, 7
    4b24:	08 95       	ret

00004b26 <__udivmodqi4>:
    4b26:	99 1b       	sub	r25, r25
    4b28:	79 e0       	ldi	r23, 0x09	; 9
    4b2a:	04 c0       	rjmp	.+8      	; 0x4b34 <__udivmodqi4_ep>

00004b2c <__udivmodqi4_loop>:
    4b2c:	99 1f       	adc	r25, r25
    4b2e:	96 17       	cp	r25, r22
    4b30:	08 f0       	brcs	.+2      	; 0x4b34 <__udivmodqi4_ep>
    4b32:	96 1b       	sub	r25, r22

00004b34 <__udivmodqi4_ep>:
    4b34:	88 1f       	adc	r24, r24
    4b36:	7a 95       	dec	r23
    4b38:	c9 f7       	brne	.-14     	; 0x4b2c <__udivmodqi4_loop>
    4b3a:	80 95       	com	r24
    4b3c:	08 95       	ret

00004b3e <__udivmodhi4>:
    4b3e:	aa 1b       	sub	r26, r26
    4b40:	bb 1b       	sub	r27, r27
    4b42:	51 e1       	ldi	r21, 0x11	; 17
    4b44:	07 c0       	rjmp	.+14     	; 0x4b54 <__udivmodhi4_ep>

00004b46 <__udivmodhi4_loop>:
    4b46:	aa 1f       	adc	r26, r26
    4b48:	bb 1f       	adc	r27, r27
    4b4a:	a6 17       	cp	r26, r22
    4b4c:	b7 07       	cpc	r27, r23
    4b4e:	10 f0       	brcs	.+4      	; 0x4b54 <__udivmodhi4_ep>
    4b50:	a6 1b       	sub	r26, r22
    4b52:	b7 0b       	sbc	r27, r23

00004b54 <__udivmodhi4_ep>:
    4b54:	88 1f       	adc	r24, r24
    4b56:	99 1f       	adc	r25, r25
    4b58:	5a 95       	dec	r21
    4b5a:	a9 f7       	brne	.-22     	; 0x4b46 <__udivmodhi4_loop>
    4b5c:	80 95       	com	r24
    4b5e:	90 95       	com	r25
    4b60:	bc 01       	movw	r22, r24
    4b62:	cd 01       	movw	r24, r26
    4b64:	08 95       	ret

00004b66 <__divmodhi4>:
    4b66:	97 fb       	bst	r25, 7
    4b68:	09 2e       	mov	r0, r25
    4b6a:	07 26       	eor	r0, r23
    4b6c:	0a d0       	rcall	.+20     	; 0x4b82 <__divmodhi4_neg1>
    4b6e:	77 fd       	sbrc	r23, 7
    4b70:	04 d0       	rcall	.+8      	; 0x4b7a <__divmodhi4_neg2>
    4b72:	e5 df       	rcall	.-54     	; 0x4b3e <__udivmodhi4>
    4b74:	06 d0       	rcall	.+12     	; 0x4b82 <__divmodhi4_neg1>
    4b76:	00 20       	and	r0, r0
    4b78:	1a f4       	brpl	.+6      	; 0x4b80 <__divmodhi4_exit>

00004b7a <__divmodhi4_neg2>:
    4b7a:	70 95       	com	r23
    4b7c:	61 95       	neg	r22
    4b7e:	7f 4f       	sbci	r23, 0xFF	; 255

00004b80 <__divmodhi4_exit>:
    4b80:	08 95       	ret

00004b82 <__divmodhi4_neg1>:
    4b82:	f6 f7       	brtc	.-4      	; 0x4b80 <__divmodhi4_exit>
    4b84:	90 95       	com	r25
    4b86:	81 95       	neg	r24
    4b88:	9f 4f       	sbci	r25, 0xFF	; 255
    4b8a:	08 95       	ret

00004b8c <printf>:
    4b8c:	a0 e0       	ldi	r26, 0x00	; 0
    4b8e:	b0 e0       	ldi	r27, 0x00	; 0
    4b90:	ec ec       	ldi	r30, 0xCC	; 204
    4b92:	f5 e2       	ldi	r31, 0x25	; 37
    4b94:	0c 94 a7 28 	jmp	0x514e	; 0x514e <__prologue_saves__+0x20>
    4b98:	fe 01       	movw	r30, r28
    4b9a:	35 96       	adiw	r30, 0x05	; 5
    4b9c:	61 91       	ld	r22, Z+
    4b9e:	71 91       	ld	r23, Z+
    4ba0:	80 91 75 02 	lds	r24, 0x0275
    4ba4:	90 91 76 02 	lds	r25, 0x0276
    4ba8:	af 01       	movw	r20, r30
    4baa:	0e 94 10 26 	call	0x4c20	; 0x4c20 <vfprintf>
    4bae:	20 96       	adiw	r28, 0x00	; 0
    4bb0:	e2 e0       	ldi	r30, 0x02	; 2
    4bb2:	0c 94 c3 28 	jmp	0x5186	; 0x5186 <__epilogue_restores__+0x20>

00004bb6 <puts>:
    4bb6:	ef 92       	push	r14
    4bb8:	ff 92       	push	r15
    4bba:	0f 93       	push	r16
    4bbc:	1f 93       	push	r17
    4bbe:	cf 93       	push	r28
    4bc0:	df 93       	push	r29
    4bc2:	8c 01       	movw	r16, r24
    4bc4:	e0 91 75 02 	lds	r30, 0x0275
    4bc8:	f0 91 76 02 	lds	r31, 0x0276
    4bcc:	83 81       	ldd	r24, Z+3	; 0x03
    4bce:	81 ff       	sbrs	r24, 1
    4bd0:	1f c0       	rjmp	.+62     	; 0x4c10 <puts+0x5a>
    4bd2:	c0 e0       	ldi	r28, 0x00	; 0
    4bd4:	d0 e0       	ldi	r29, 0x00	; 0
    4bd6:	0a c0       	rjmp	.+20     	; 0x4bec <puts+0x36>
    4bd8:	db 01       	movw	r26, r22
    4bda:	18 96       	adiw	r26, 0x08	; 8
    4bdc:	ed 91       	ld	r30, X+
    4bde:	fc 91       	ld	r31, X
    4be0:	19 97       	sbiw	r26, 0x09	; 9
    4be2:	09 95       	icall
    4be4:	00 97       	sbiw	r24, 0x00	; 0
    4be6:	11 f0       	breq	.+4      	; 0x4bec <puts+0x36>
    4be8:	cf ef       	ldi	r28, 0xFF	; 255
    4bea:	df ef       	ldi	r29, 0xFF	; 255
    4bec:	f8 01       	movw	r30, r16
    4bee:	81 91       	ld	r24, Z+
    4bf0:	8f 01       	movw	r16, r30
    4bf2:	60 91 75 02 	lds	r22, 0x0275
    4bf6:	70 91 76 02 	lds	r23, 0x0276
    4bfa:	88 23       	and	r24, r24
    4bfc:	69 f7       	brne	.-38     	; 0x4bd8 <puts+0x22>
    4bfe:	db 01       	movw	r26, r22
    4c00:	18 96       	adiw	r26, 0x08	; 8
    4c02:	ed 91       	ld	r30, X+
    4c04:	fc 91       	ld	r31, X
    4c06:	19 97       	sbiw	r26, 0x09	; 9
    4c08:	8a e0       	ldi	r24, 0x0A	; 10
    4c0a:	09 95       	icall
    4c0c:	00 97       	sbiw	r24, 0x00	; 0
    4c0e:	11 f0       	breq	.+4      	; 0x4c14 <puts+0x5e>
    4c10:	cf ef       	ldi	r28, 0xFF	; 255
    4c12:	df ef       	ldi	r29, 0xFF	; 255
    4c14:	ce 01       	movw	r24, r28
    4c16:	cd b7       	in	r28, 0x3d	; 61
    4c18:	de b7       	in	r29, 0x3e	; 62
    4c1a:	e6 e0       	ldi	r30, 0x06	; 6
    4c1c:	0c 94 bf 28 	jmp	0x517e	; 0x517e <__epilogue_restores__+0x18>

00004c20 <vfprintf>:
    4c20:	ac e0       	ldi	r26, 0x0C	; 12
    4c22:	b0 e0       	ldi	r27, 0x00	; 0
    4c24:	e6 e1       	ldi	r30, 0x16	; 22
    4c26:	f6 e2       	ldi	r31, 0x26	; 38
    4c28:	0c 94 97 28 	jmp	0x512e	; 0x512e <__prologue_saves__>
    4c2c:	6c 01       	movw	r12, r24
    4c2e:	1b 01       	movw	r2, r22
    4c30:	8a 01       	movw	r16, r20
    4c32:	fc 01       	movw	r30, r24
    4c34:	17 82       	std	Z+7, r1	; 0x07
    4c36:	16 82       	std	Z+6, r1	; 0x06
    4c38:	83 81       	ldd	r24, Z+3	; 0x03
    4c3a:	81 ff       	sbrs	r24, 1
    4c3c:	d1 c1       	rjmp	.+930    	; 0x4fe0 <vfprintf+0x3c0>
    4c3e:	2e 01       	movw	r4, r28
    4c40:	08 94       	sec
    4c42:	41 1c       	adc	r4, r1
    4c44:	51 1c       	adc	r5, r1
    4c46:	f6 01       	movw	r30, r12
    4c48:	93 81       	ldd	r25, Z+3	; 0x03
    4c4a:	f1 01       	movw	r30, r2
    4c4c:	93 fd       	sbrc	r25, 3
    4c4e:	85 91       	lpm	r24, Z+
    4c50:	93 ff       	sbrs	r25, 3
    4c52:	81 91       	ld	r24, Z+
    4c54:	1f 01       	movw	r2, r30
    4c56:	88 23       	and	r24, r24
    4c58:	09 f4       	brne	.+2      	; 0x4c5c <vfprintf+0x3c>
    4c5a:	be c1       	rjmp	.+892    	; 0x4fd8 <vfprintf+0x3b8>
    4c5c:	85 32       	cpi	r24, 0x25	; 37
    4c5e:	39 f4       	brne	.+14     	; 0x4c6e <vfprintf+0x4e>
    4c60:	93 fd       	sbrc	r25, 3
    4c62:	85 91       	lpm	r24, Z+
    4c64:	93 ff       	sbrs	r25, 3
    4c66:	81 91       	ld	r24, Z+
    4c68:	1f 01       	movw	r2, r30
    4c6a:	85 32       	cpi	r24, 0x25	; 37
    4c6c:	29 f4       	brne	.+10     	; 0x4c78 <vfprintf+0x58>
    4c6e:	90 e0       	ldi	r25, 0x00	; 0
    4c70:	b6 01       	movw	r22, r12
    4c72:	0e 94 0d 28 	call	0x501a	; 0x501a <fputc>
    4c76:	e7 cf       	rjmp	.-50     	; 0x4c46 <vfprintf+0x26>
    4c78:	ee 24       	eor	r14, r14
    4c7a:	ff 24       	eor	r15, r15
    4c7c:	20 e0       	ldi	r18, 0x00	; 0
    4c7e:	20 32       	cpi	r18, 0x20	; 32
    4c80:	b0 f4       	brcc	.+44     	; 0x4cae <vfprintf+0x8e>
    4c82:	8b 32       	cpi	r24, 0x2B	; 43
    4c84:	69 f0       	breq	.+26     	; 0x4ca0 <vfprintf+0x80>
    4c86:	8c 32       	cpi	r24, 0x2C	; 44
    4c88:	28 f4       	brcc	.+10     	; 0x4c94 <vfprintf+0x74>
    4c8a:	80 32       	cpi	r24, 0x20	; 32
    4c8c:	51 f0       	breq	.+20     	; 0x4ca2 <vfprintf+0x82>
    4c8e:	83 32       	cpi	r24, 0x23	; 35
    4c90:	71 f4       	brne	.+28     	; 0x4cae <vfprintf+0x8e>
    4c92:	0b c0       	rjmp	.+22     	; 0x4caa <vfprintf+0x8a>
    4c94:	8d 32       	cpi	r24, 0x2D	; 45
    4c96:	39 f0       	breq	.+14     	; 0x4ca6 <vfprintf+0x86>
    4c98:	80 33       	cpi	r24, 0x30	; 48
    4c9a:	49 f4       	brne	.+18     	; 0x4cae <vfprintf+0x8e>
    4c9c:	21 60       	ori	r18, 0x01	; 1
    4c9e:	2c c0       	rjmp	.+88     	; 0x4cf8 <vfprintf+0xd8>
    4ca0:	22 60       	ori	r18, 0x02	; 2
    4ca2:	24 60       	ori	r18, 0x04	; 4
    4ca4:	29 c0       	rjmp	.+82     	; 0x4cf8 <vfprintf+0xd8>
    4ca6:	28 60       	ori	r18, 0x08	; 8
    4ca8:	27 c0       	rjmp	.+78     	; 0x4cf8 <vfprintf+0xd8>
    4caa:	20 61       	ori	r18, 0x10	; 16
    4cac:	25 c0       	rjmp	.+74     	; 0x4cf8 <vfprintf+0xd8>
    4cae:	27 fd       	sbrc	r18, 7
    4cb0:	2c c0       	rjmp	.+88     	; 0x4d0a <vfprintf+0xea>
    4cb2:	38 2f       	mov	r19, r24
    4cb4:	30 53       	subi	r19, 0x30	; 48
    4cb6:	3a 30       	cpi	r19, 0x0A	; 10
    4cb8:	98 f4       	brcc	.+38     	; 0x4ce0 <vfprintf+0xc0>
    4cba:	26 ff       	sbrs	r18, 6
    4cbc:	08 c0       	rjmp	.+16     	; 0x4cce <vfprintf+0xae>
    4cbe:	8e 2d       	mov	r24, r14
    4cc0:	88 0f       	add	r24, r24
    4cc2:	e8 2e       	mov	r14, r24
    4cc4:	ee 0c       	add	r14, r14
    4cc6:	ee 0c       	add	r14, r14
    4cc8:	e8 0e       	add	r14, r24
    4cca:	e3 0e       	add	r14, r19
    4ccc:	15 c0       	rjmp	.+42     	; 0x4cf8 <vfprintf+0xd8>
    4cce:	8f 2d       	mov	r24, r15
    4cd0:	88 0f       	add	r24, r24
    4cd2:	f8 2e       	mov	r15, r24
    4cd4:	ff 0c       	add	r15, r15
    4cd6:	ff 0c       	add	r15, r15
    4cd8:	f8 0e       	add	r15, r24
    4cda:	f3 0e       	add	r15, r19
    4cdc:	20 62       	ori	r18, 0x20	; 32
    4cde:	0c c0       	rjmp	.+24     	; 0x4cf8 <vfprintf+0xd8>
    4ce0:	8e 32       	cpi	r24, 0x2E	; 46
    4ce2:	21 f4       	brne	.+8      	; 0x4cec <vfprintf+0xcc>
    4ce4:	26 fd       	sbrc	r18, 6
    4ce6:	78 c1       	rjmp	.+752    	; 0x4fd8 <vfprintf+0x3b8>
    4ce8:	20 64       	ori	r18, 0x40	; 64
    4cea:	06 c0       	rjmp	.+12     	; 0x4cf8 <vfprintf+0xd8>
    4cec:	8c 36       	cpi	r24, 0x6C	; 108
    4cee:	11 f4       	brne	.+4      	; 0x4cf4 <vfprintf+0xd4>
    4cf0:	20 68       	ori	r18, 0x80	; 128
    4cf2:	02 c0       	rjmp	.+4      	; 0x4cf8 <vfprintf+0xd8>
    4cf4:	88 36       	cpi	r24, 0x68	; 104
    4cf6:	49 f4       	brne	.+18     	; 0x4d0a <vfprintf+0xea>
    4cf8:	f1 01       	movw	r30, r2
    4cfa:	93 fd       	sbrc	r25, 3
    4cfc:	85 91       	lpm	r24, Z+
    4cfe:	93 ff       	sbrs	r25, 3
    4d00:	81 91       	ld	r24, Z+
    4d02:	1f 01       	movw	r2, r30
    4d04:	88 23       	and	r24, r24
    4d06:	09 f0       	breq	.+2      	; 0x4d0a <vfprintf+0xea>
    4d08:	ba cf       	rjmp	.-140    	; 0x4c7e <vfprintf+0x5e>
    4d0a:	98 2f       	mov	r25, r24
    4d0c:	95 54       	subi	r25, 0x45	; 69
    4d0e:	93 30       	cpi	r25, 0x03	; 3
    4d10:	18 f0       	brcs	.+6      	; 0x4d18 <vfprintf+0xf8>
    4d12:	90 52       	subi	r25, 0x20	; 32
    4d14:	93 30       	cpi	r25, 0x03	; 3
    4d16:	28 f4       	brcc	.+10     	; 0x4d22 <vfprintf+0x102>
    4d18:	0c 5f       	subi	r16, 0xFC	; 252
    4d1a:	1f 4f       	sbci	r17, 0xFF	; 255
    4d1c:	ff e3       	ldi	r31, 0x3F	; 63
    4d1e:	f9 83       	std	Y+1, r31	; 0x01
    4d20:	0d c0       	rjmp	.+26     	; 0x4d3c <vfprintf+0x11c>
    4d22:	83 36       	cpi	r24, 0x63	; 99
    4d24:	31 f0       	breq	.+12     	; 0x4d32 <vfprintf+0x112>
    4d26:	83 37       	cpi	r24, 0x73	; 115
    4d28:	71 f0       	breq	.+28     	; 0x4d46 <vfprintf+0x126>
    4d2a:	83 35       	cpi	r24, 0x53	; 83
    4d2c:	09 f0       	breq	.+2      	; 0x4d30 <vfprintf+0x110>
    4d2e:	60 c0       	rjmp	.+192    	; 0x4df0 <vfprintf+0x1d0>
    4d30:	22 c0       	rjmp	.+68     	; 0x4d76 <vfprintf+0x156>
    4d32:	f8 01       	movw	r30, r16
    4d34:	80 81       	ld	r24, Z
    4d36:	89 83       	std	Y+1, r24	; 0x01
    4d38:	0e 5f       	subi	r16, 0xFE	; 254
    4d3a:	1f 4f       	sbci	r17, 0xFF	; 255
    4d3c:	42 01       	movw	r8, r4
    4d3e:	71 e0       	ldi	r23, 0x01	; 1
    4d40:	a7 2e       	mov	r10, r23
    4d42:	b1 2c       	mov	r11, r1
    4d44:	16 c0       	rjmp	.+44     	; 0x4d72 <vfprintf+0x152>
    4d46:	62 e0       	ldi	r22, 0x02	; 2
    4d48:	66 2e       	mov	r6, r22
    4d4a:	71 2c       	mov	r7, r1
    4d4c:	60 0e       	add	r6, r16
    4d4e:	71 1e       	adc	r7, r17
    4d50:	f8 01       	movw	r30, r16
    4d52:	80 80       	ld	r8, Z
    4d54:	91 80       	ldd	r9, Z+1	; 0x01
    4d56:	26 ff       	sbrs	r18, 6
    4d58:	03 c0       	rjmp	.+6      	; 0x4d60 <vfprintf+0x140>
    4d5a:	6e 2d       	mov	r22, r14
    4d5c:	70 e0       	ldi	r23, 0x00	; 0
    4d5e:	02 c0       	rjmp	.+4      	; 0x4d64 <vfprintf+0x144>
    4d60:	6f ef       	ldi	r22, 0xFF	; 255
    4d62:	7f ef       	ldi	r23, 0xFF	; 255
    4d64:	c4 01       	movw	r24, r8
    4d66:	2c 87       	std	Y+12, r18	; 0x0c
    4d68:	0e 94 02 28 	call	0x5004	; 0x5004 <strnlen>
    4d6c:	5c 01       	movw	r10, r24
    4d6e:	83 01       	movw	r16, r6
    4d70:	2c 85       	ldd	r18, Y+12	; 0x0c
    4d72:	2f 77       	andi	r18, 0x7F	; 127
    4d74:	17 c0       	rjmp	.+46     	; 0x4da4 <vfprintf+0x184>
    4d76:	52 e0       	ldi	r21, 0x02	; 2
    4d78:	65 2e       	mov	r6, r21
    4d7a:	71 2c       	mov	r7, r1
    4d7c:	60 0e       	add	r6, r16
    4d7e:	71 1e       	adc	r7, r17
    4d80:	f8 01       	movw	r30, r16
    4d82:	80 80       	ld	r8, Z
    4d84:	91 80       	ldd	r9, Z+1	; 0x01
    4d86:	26 ff       	sbrs	r18, 6
    4d88:	03 c0       	rjmp	.+6      	; 0x4d90 <vfprintf+0x170>
    4d8a:	6e 2d       	mov	r22, r14
    4d8c:	70 e0       	ldi	r23, 0x00	; 0
    4d8e:	02 c0       	rjmp	.+4      	; 0x4d94 <vfprintf+0x174>
    4d90:	6f ef       	ldi	r22, 0xFF	; 255
    4d92:	7f ef       	ldi	r23, 0xFF	; 255
    4d94:	c4 01       	movw	r24, r8
    4d96:	2c 87       	std	Y+12, r18	; 0x0c
    4d98:	0e 94 f7 27 	call	0x4fee	; 0x4fee <strnlen_P>
    4d9c:	5c 01       	movw	r10, r24
    4d9e:	2c 85       	ldd	r18, Y+12	; 0x0c
    4da0:	20 68       	ori	r18, 0x80	; 128
    4da2:	83 01       	movw	r16, r6
    4da4:	23 fd       	sbrc	r18, 3
    4da6:	20 c0       	rjmp	.+64     	; 0x4de8 <vfprintf+0x1c8>
    4da8:	08 c0       	rjmp	.+16     	; 0x4dba <vfprintf+0x19a>
    4daa:	80 e2       	ldi	r24, 0x20	; 32
    4dac:	90 e0       	ldi	r25, 0x00	; 0
    4dae:	b6 01       	movw	r22, r12
    4db0:	2c 87       	std	Y+12, r18	; 0x0c
    4db2:	0e 94 0d 28 	call	0x501a	; 0x501a <fputc>
    4db6:	fa 94       	dec	r15
    4db8:	2c 85       	ldd	r18, Y+12	; 0x0c
    4dba:	8f 2d       	mov	r24, r15
    4dbc:	90 e0       	ldi	r25, 0x00	; 0
    4dbe:	a8 16       	cp	r10, r24
    4dc0:	b9 06       	cpc	r11, r25
    4dc2:	98 f3       	brcs	.-26     	; 0x4daa <vfprintf+0x18a>
    4dc4:	11 c0       	rjmp	.+34     	; 0x4de8 <vfprintf+0x1c8>
    4dc6:	f4 01       	movw	r30, r8
    4dc8:	27 fd       	sbrc	r18, 7
    4dca:	85 91       	lpm	r24, Z+
    4dcc:	27 ff       	sbrs	r18, 7
    4dce:	81 91       	ld	r24, Z+
    4dd0:	4f 01       	movw	r8, r30
    4dd2:	90 e0       	ldi	r25, 0x00	; 0
    4dd4:	b6 01       	movw	r22, r12
    4dd6:	2c 87       	std	Y+12, r18	; 0x0c
    4dd8:	0e 94 0d 28 	call	0x501a	; 0x501a <fputc>
    4ddc:	2c 85       	ldd	r18, Y+12	; 0x0c
    4dde:	f1 10       	cpse	r15, r1
    4de0:	fa 94       	dec	r15
    4de2:	08 94       	sec
    4de4:	a1 08       	sbc	r10, r1
    4de6:	b1 08       	sbc	r11, r1
    4de8:	a1 14       	cp	r10, r1
    4dea:	b1 04       	cpc	r11, r1
    4dec:	61 f7       	brne	.-40     	; 0x4dc6 <vfprintf+0x1a6>
    4dee:	f1 c0       	rjmp	.+482    	; 0x4fd2 <vfprintf+0x3b2>
    4df0:	84 36       	cpi	r24, 0x64	; 100
    4df2:	11 f0       	breq	.+4      	; 0x4df8 <vfprintf+0x1d8>
    4df4:	89 36       	cpi	r24, 0x69	; 105
    4df6:	49 f5       	brne	.+82     	; 0x4e4a <vfprintf+0x22a>
    4df8:	27 ff       	sbrs	r18, 7
    4dfa:	08 c0       	rjmp	.+16     	; 0x4e0c <vfprintf+0x1ec>
    4dfc:	f8 01       	movw	r30, r16
    4dfe:	60 81       	ld	r22, Z
    4e00:	71 81       	ldd	r23, Z+1	; 0x01
    4e02:	82 81       	ldd	r24, Z+2	; 0x02
    4e04:	93 81       	ldd	r25, Z+3	; 0x03
    4e06:	0c 5f       	subi	r16, 0xFC	; 252
    4e08:	1f 4f       	sbci	r17, 0xFF	; 255
    4e0a:	09 c0       	rjmp	.+18     	; 0x4e1e <vfprintf+0x1fe>
    4e0c:	f8 01       	movw	r30, r16
    4e0e:	60 81       	ld	r22, Z
    4e10:	71 81       	ldd	r23, Z+1	; 0x01
    4e12:	88 27       	eor	r24, r24
    4e14:	77 fd       	sbrc	r23, 7
    4e16:	80 95       	com	r24
    4e18:	98 2f       	mov	r25, r24
    4e1a:	0e 5f       	subi	r16, 0xFE	; 254
    4e1c:	1f 4f       	sbci	r17, 0xFF	; 255
    4e1e:	4f e6       	ldi	r20, 0x6F	; 111
    4e20:	b4 2e       	mov	r11, r20
    4e22:	b2 22       	and	r11, r18
    4e24:	97 ff       	sbrs	r25, 7
    4e26:	09 c0       	rjmp	.+18     	; 0x4e3a <vfprintf+0x21a>
    4e28:	90 95       	com	r25
    4e2a:	80 95       	com	r24
    4e2c:	70 95       	com	r23
    4e2e:	61 95       	neg	r22
    4e30:	7f 4f       	sbci	r23, 0xFF	; 255
    4e32:	8f 4f       	sbci	r24, 0xFF	; 255
    4e34:	9f 4f       	sbci	r25, 0xFF	; 255
    4e36:	f0 e8       	ldi	r31, 0x80	; 128
    4e38:	bf 2a       	or	r11, r31
    4e3a:	a2 01       	movw	r20, r4
    4e3c:	2a e0       	ldi	r18, 0x0A	; 10
    4e3e:	30 e0       	ldi	r19, 0x00	; 0
    4e40:	0e 94 39 28 	call	0x5072	; 0x5072 <__ultoa_invert>
    4e44:	78 2e       	mov	r7, r24
    4e46:	74 18       	sub	r7, r4
    4e48:	45 c0       	rjmp	.+138    	; 0x4ed4 <vfprintf+0x2b4>
    4e4a:	85 37       	cpi	r24, 0x75	; 117
    4e4c:	31 f4       	brne	.+12     	; 0x4e5a <vfprintf+0x23a>
    4e4e:	3f ee       	ldi	r19, 0xEF	; 239
    4e50:	b3 2e       	mov	r11, r19
    4e52:	b2 22       	and	r11, r18
    4e54:	2a e0       	ldi	r18, 0x0A	; 10
    4e56:	30 e0       	ldi	r19, 0x00	; 0
    4e58:	25 c0       	rjmp	.+74     	; 0x4ea4 <vfprintf+0x284>
    4e5a:	99 ef       	ldi	r25, 0xF9	; 249
    4e5c:	b9 2e       	mov	r11, r25
    4e5e:	b2 22       	and	r11, r18
    4e60:	8f 36       	cpi	r24, 0x6F	; 111
    4e62:	c1 f0       	breq	.+48     	; 0x4e94 <vfprintf+0x274>
    4e64:	80 37       	cpi	r24, 0x70	; 112
    4e66:	20 f4       	brcc	.+8      	; 0x4e70 <vfprintf+0x250>
    4e68:	88 35       	cpi	r24, 0x58	; 88
    4e6a:	09 f0       	breq	.+2      	; 0x4e6e <vfprintf+0x24e>
    4e6c:	b5 c0       	rjmp	.+362    	; 0x4fd8 <vfprintf+0x3b8>
    4e6e:	0d c0       	rjmp	.+26     	; 0x4e8a <vfprintf+0x26a>
    4e70:	80 37       	cpi	r24, 0x70	; 112
    4e72:	21 f0       	breq	.+8      	; 0x4e7c <vfprintf+0x25c>
    4e74:	88 37       	cpi	r24, 0x78	; 120
    4e76:	09 f0       	breq	.+2      	; 0x4e7a <vfprintf+0x25a>
    4e78:	af c0       	rjmp	.+350    	; 0x4fd8 <vfprintf+0x3b8>
    4e7a:	02 c0       	rjmp	.+4      	; 0x4e80 <vfprintf+0x260>
    4e7c:	20 e1       	ldi	r18, 0x10	; 16
    4e7e:	b2 2a       	or	r11, r18
    4e80:	b4 fe       	sbrs	r11, 4
    4e82:	0b c0       	rjmp	.+22     	; 0x4e9a <vfprintf+0x27a>
    4e84:	84 e0       	ldi	r24, 0x04	; 4
    4e86:	b8 2a       	or	r11, r24
    4e88:	08 c0       	rjmp	.+16     	; 0x4e9a <vfprintf+0x27a>
    4e8a:	b4 fe       	sbrs	r11, 4
    4e8c:	09 c0       	rjmp	.+18     	; 0x4ea0 <vfprintf+0x280>
    4e8e:	e6 e0       	ldi	r30, 0x06	; 6
    4e90:	be 2a       	or	r11, r30
    4e92:	06 c0       	rjmp	.+12     	; 0x4ea0 <vfprintf+0x280>
    4e94:	28 e0       	ldi	r18, 0x08	; 8
    4e96:	30 e0       	ldi	r19, 0x00	; 0
    4e98:	05 c0       	rjmp	.+10     	; 0x4ea4 <vfprintf+0x284>
    4e9a:	20 e1       	ldi	r18, 0x10	; 16
    4e9c:	30 e0       	ldi	r19, 0x00	; 0
    4e9e:	02 c0       	rjmp	.+4      	; 0x4ea4 <vfprintf+0x284>
    4ea0:	20 e1       	ldi	r18, 0x10	; 16
    4ea2:	32 e0       	ldi	r19, 0x02	; 2
    4ea4:	b7 fe       	sbrs	r11, 7
    4ea6:	08 c0       	rjmp	.+16     	; 0x4eb8 <vfprintf+0x298>
    4ea8:	f8 01       	movw	r30, r16
    4eaa:	60 81       	ld	r22, Z
    4eac:	71 81       	ldd	r23, Z+1	; 0x01
    4eae:	82 81       	ldd	r24, Z+2	; 0x02
    4eb0:	93 81       	ldd	r25, Z+3	; 0x03
    4eb2:	0c 5f       	subi	r16, 0xFC	; 252
    4eb4:	1f 4f       	sbci	r17, 0xFF	; 255
    4eb6:	07 c0       	rjmp	.+14     	; 0x4ec6 <vfprintf+0x2a6>
    4eb8:	f8 01       	movw	r30, r16
    4eba:	60 81       	ld	r22, Z
    4ebc:	71 81       	ldd	r23, Z+1	; 0x01
    4ebe:	80 e0       	ldi	r24, 0x00	; 0
    4ec0:	90 e0       	ldi	r25, 0x00	; 0
    4ec2:	0e 5f       	subi	r16, 0xFE	; 254
    4ec4:	1f 4f       	sbci	r17, 0xFF	; 255
    4ec6:	a2 01       	movw	r20, r4
    4ec8:	0e 94 39 28 	call	0x5072	; 0x5072 <__ultoa_invert>
    4ecc:	78 2e       	mov	r7, r24
    4ece:	74 18       	sub	r7, r4
    4ed0:	ff e7       	ldi	r31, 0x7F	; 127
    4ed2:	bf 22       	and	r11, r31
    4ed4:	b6 fe       	sbrs	r11, 6
    4ed6:	0b c0       	rjmp	.+22     	; 0x4eee <vfprintf+0x2ce>
    4ed8:	2e ef       	ldi	r18, 0xFE	; 254
    4eda:	b2 22       	and	r11, r18
    4edc:	7e 14       	cp	r7, r14
    4ede:	38 f4       	brcc	.+14     	; 0x4eee <vfprintf+0x2ce>
    4ee0:	b4 fe       	sbrs	r11, 4
    4ee2:	07 c0       	rjmp	.+14     	; 0x4ef2 <vfprintf+0x2d2>
    4ee4:	b2 fc       	sbrc	r11, 2
    4ee6:	05 c0       	rjmp	.+10     	; 0x4ef2 <vfprintf+0x2d2>
    4ee8:	8f ee       	ldi	r24, 0xEF	; 239
    4eea:	b8 22       	and	r11, r24
    4eec:	02 c0       	rjmp	.+4      	; 0x4ef2 <vfprintf+0x2d2>
    4eee:	a7 2c       	mov	r10, r7
    4ef0:	01 c0       	rjmp	.+2      	; 0x4ef4 <vfprintf+0x2d4>
    4ef2:	ae 2c       	mov	r10, r14
    4ef4:	8b 2d       	mov	r24, r11
    4ef6:	90 e0       	ldi	r25, 0x00	; 0
    4ef8:	b4 fe       	sbrs	r11, 4
    4efa:	0d c0       	rjmp	.+26     	; 0x4f16 <vfprintf+0x2f6>
    4efc:	fe 01       	movw	r30, r28
    4efe:	e7 0d       	add	r30, r7
    4f00:	f1 1d       	adc	r31, r1
    4f02:	20 81       	ld	r18, Z
    4f04:	20 33       	cpi	r18, 0x30	; 48
    4f06:	19 f4       	brne	.+6      	; 0x4f0e <vfprintf+0x2ee>
    4f08:	e9 ee       	ldi	r30, 0xE9	; 233
    4f0a:	be 22       	and	r11, r30
    4f0c:	09 c0       	rjmp	.+18     	; 0x4f20 <vfprintf+0x300>
    4f0e:	a3 94       	inc	r10
    4f10:	b2 fe       	sbrs	r11, 2
    4f12:	06 c0       	rjmp	.+12     	; 0x4f20 <vfprintf+0x300>
    4f14:	04 c0       	rjmp	.+8      	; 0x4f1e <vfprintf+0x2fe>
    4f16:	86 78       	andi	r24, 0x86	; 134
    4f18:	90 70       	andi	r25, 0x00	; 0
    4f1a:	00 97       	sbiw	r24, 0x00	; 0
    4f1c:	09 f0       	breq	.+2      	; 0x4f20 <vfprintf+0x300>
    4f1e:	a3 94       	inc	r10
    4f20:	8b 2c       	mov	r8, r11
    4f22:	99 24       	eor	r9, r9
    4f24:	b3 fc       	sbrc	r11, 3
    4f26:	14 c0       	rjmp	.+40     	; 0x4f50 <vfprintf+0x330>
    4f28:	b0 fe       	sbrs	r11, 0
    4f2a:	0f c0       	rjmp	.+30     	; 0x4f4a <vfprintf+0x32a>
    4f2c:	af 14       	cp	r10, r15
    4f2e:	28 f4       	brcc	.+10     	; 0x4f3a <vfprintf+0x31a>
    4f30:	e7 2c       	mov	r14, r7
    4f32:	ef 0c       	add	r14, r15
    4f34:	ea 18       	sub	r14, r10
    4f36:	af 2c       	mov	r10, r15
    4f38:	08 c0       	rjmp	.+16     	; 0x4f4a <vfprintf+0x32a>
    4f3a:	e7 2c       	mov	r14, r7
    4f3c:	06 c0       	rjmp	.+12     	; 0x4f4a <vfprintf+0x32a>
    4f3e:	80 e2       	ldi	r24, 0x20	; 32
    4f40:	90 e0       	ldi	r25, 0x00	; 0
    4f42:	b6 01       	movw	r22, r12
    4f44:	0e 94 0d 28 	call	0x501a	; 0x501a <fputc>
    4f48:	a3 94       	inc	r10
    4f4a:	af 14       	cp	r10, r15
    4f4c:	c0 f3       	brcs	.-16     	; 0x4f3e <vfprintf+0x31e>
    4f4e:	04 c0       	rjmp	.+8      	; 0x4f58 <vfprintf+0x338>
    4f50:	af 14       	cp	r10, r15
    4f52:	10 f4       	brcc	.+4      	; 0x4f58 <vfprintf+0x338>
    4f54:	fa 18       	sub	r15, r10
    4f56:	01 c0       	rjmp	.+2      	; 0x4f5a <vfprintf+0x33a>
    4f58:	ff 24       	eor	r15, r15
    4f5a:	84 fe       	sbrs	r8, 4
    4f5c:	0f c0       	rjmp	.+30     	; 0x4f7c <vfprintf+0x35c>
    4f5e:	80 e3       	ldi	r24, 0x30	; 48
    4f60:	90 e0       	ldi	r25, 0x00	; 0
    4f62:	b6 01       	movw	r22, r12
    4f64:	0e 94 0d 28 	call	0x501a	; 0x501a <fputc>
    4f68:	82 fe       	sbrs	r8, 2
    4f6a:	1f c0       	rjmp	.+62     	; 0x4faa <vfprintf+0x38a>
    4f6c:	81 fe       	sbrs	r8, 1
    4f6e:	03 c0       	rjmp	.+6      	; 0x4f76 <vfprintf+0x356>
    4f70:	88 e5       	ldi	r24, 0x58	; 88
    4f72:	90 e0       	ldi	r25, 0x00	; 0
    4f74:	10 c0       	rjmp	.+32     	; 0x4f96 <vfprintf+0x376>
    4f76:	88 e7       	ldi	r24, 0x78	; 120
    4f78:	90 e0       	ldi	r25, 0x00	; 0
    4f7a:	0d c0       	rjmp	.+26     	; 0x4f96 <vfprintf+0x376>
    4f7c:	c4 01       	movw	r24, r8
    4f7e:	86 78       	andi	r24, 0x86	; 134
    4f80:	90 70       	andi	r25, 0x00	; 0
    4f82:	00 97       	sbiw	r24, 0x00	; 0
    4f84:	91 f0       	breq	.+36     	; 0x4faa <vfprintf+0x38a>
    4f86:	81 fc       	sbrc	r8, 1
    4f88:	02 c0       	rjmp	.+4      	; 0x4f8e <vfprintf+0x36e>
    4f8a:	80 e2       	ldi	r24, 0x20	; 32
    4f8c:	01 c0       	rjmp	.+2      	; 0x4f90 <vfprintf+0x370>
    4f8e:	8b e2       	ldi	r24, 0x2B	; 43
    4f90:	b7 fc       	sbrc	r11, 7
    4f92:	8d e2       	ldi	r24, 0x2D	; 45
    4f94:	90 e0       	ldi	r25, 0x00	; 0
    4f96:	b6 01       	movw	r22, r12
    4f98:	0e 94 0d 28 	call	0x501a	; 0x501a <fputc>
    4f9c:	06 c0       	rjmp	.+12     	; 0x4faa <vfprintf+0x38a>
    4f9e:	80 e3       	ldi	r24, 0x30	; 48
    4fa0:	90 e0       	ldi	r25, 0x00	; 0
    4fa2:	b6 01       	movw	r22, r12
    4fa4:	0e 94 0d 28 	call	0x501a	; 0x501a <fputc>
    4fa8:	ea 94       	dec	r14
    4faa:	7e 14       	cp	r7, r14
    4fac:	c0 f3       	brcs	.-16     	; 0x4f9e <vfprintf+0x37e>
    4fae:	7a 94       	dec	r7
    4fb0:	f2 01       	movw	r30, r4
    4fb2:	e7 0d       	add	r30, r7
    4fb4:	f1 1d       	adc	r31, r1
    4fb6:	80 81       	ld	r24, Z
    4fb8:	90 e0       	ldi	r25, 0x00	; 0
    4fba:	b6 01       	movw	r22, r12
    4fbc:	0e 94 0d 28 	call	0x501a	; 0x501a <fputc>
    4fc0:	77 20       	and	r7, r7
    4fc2:	a9 f7       	brne	.-22     	; 0x4fae <vfprintf+0x38e>
    4fc4:	06 c0       	rjmp	.+12     	; 0x4fd2 <vfprintf+0x3b2>
    4fc6:	80 e2       	ldi	r24, 0x20	; 32
    4fc8:	90 e0       	ldi	r25, 0x00	; 0
    4fca:	b6 01       	movw	r22, r12
    4fcc:	0e 94 0d 28 	call	0x501a	; 0x501a <fputc>
    4fd0:	fa 94       	dec	r15
    4fd2:	ff 20       	and	r15, r15
    4fd4:	c1 f7       	brne	.-16     	; 0x4fc6 <vfprintf+0x3a6>
    4fd6:	37 ce       	rjmp	.-914    	; 0x4c46 <vfprintf+0x26>
    4fd8:	f6 01       	movw	r30, r12
    4fda:	26 81       	ldd	r18, Z+6	; 0x06
    4fdc:	37 81       	ldd	r19, Z+7	; 0x07
    4fde:	02 c0       	rjmp	.+4      	; 0x4fe4 <vfprintf+0x3c4>
    4fe0:	2f ef       	ldi	r18, 0xFF	; 255
    4fe2:	3f ef       	ldi	r19, 0xFF	; 255
    4fe4:	c9 01       	movw	r24, r18
    4fe6:	2c 96       	adiw	r28, 0x0c	; 12
    4fe8:	e2 e1       	ldi	r30, 0x12	; 18
    4fea:	0c 94 b3 28 	jmp	0x5166	; 0x5166 <__epilogue_restores__>

00004fee <strnlen_P>:
    4fee:	fc 01       	movw	r30, r24
    4ff0:	05 90       	lpm	r0, Z+
    4ff2:	61 50       	subi	r22, 0x01	; 1
    4ff4:	70 40       	sbci	r23, 0x00	; 0
    4ff6:	01 10       	cpse	r0, r1
    4ff8:	d8 f7       	brcc	.-10     	; 0x4ff0 <strnlen_P+0x2>
    4ffa:	80 95       	com	r24
    4ffc:	90 95       	com	r25
    4ffe:	8e 0f       	add	r24, r30
    5000:	9f 1f       	adc	r25, r31
    5002:	08 95       	ret

00005004 <strnlen>:
    5004:	fc 01       	movw	r30, r24
    5006:	61 50       	subi	r22, 0x01	; 1
    5008:	70 40       	sbci	r23, 0x00	; 0
    500a:	01 90       	ld	r0, Z+
    500c:	01 10       	cpse	r0, r1
    500e:	d8 f7       	brcc	.-10     	; 0x5006 <strnlen+0x2>
    5010:	80 95       	com	r24
    5012:	90 95       	com	r25
    5014:	8e 0f       	add	r24, r30
    5016:	9f 1f       	adc	r25, r31
    5018:	08 95       	ret

0000501a <fputc>:
    501a:	0f 93       	push	r16
    501c:	1f 93       	push	r17
    501e:	cf 93       	push	r28
    5020:	df 93       	push	r29
    5022:	8c 01       	movw	r16, r24
    5024:	eb 01       	movw	r28, r22
    5026:	8b 81       	ldd	r24, Y+3	; 0x03
    5028:	81 ff       	sbrs	r24, 1
    502a:	1b c0       	rjmp	.+54     	; 0x5062 <fputc+0x48>
    502c:	82 ff       	sbrs	r24, 2
    502e:	0d c0       	rjmp	.+26     	; 0x504a <fputc+0x30>
    5030:	2e 81       	ldd	r18, Y+6	; 0x06
    5032:	3f 81       	ldd	r19, Y+7	; 0x07
    5034:	8c 81       	ldd	r24, Y+4	; 0x04
    5036:	9d 81       	ldd	r25, Y+5	; 0x05
    5038:	28 17       	cp	r18, r24
    503a:	39 07       	cpc	r19, r25
    503c:	64 f4       	brge	.+24     	; 0x5056 <fputc+0x3c>
    503e:	e8 81       	ld	r30, Y
    5040:	f9 81       	ldd	r31, Y+1	; 0x01
    5042:	01 93       	st	Z+, r16
    5044:	f9 83       	std	Y+1, r31	; 0x01
    5046:	e8 83       	st	Y, r30
    5048:	06 c0       	rjmp	.+12     	; 0x5056 <fputc+0x3c>
    504a:	e8 85       	ldd	r30, Y+8	; 0x08
    504c:	f9 85       	ldd	r31, Y+9	; 0x09
    504e:	80 2f       	mov	r24, r16
    5050:	09 95       	icall
    5052:	00 97       	sbiw	r24, 0x00	; 0
    5054:	31 f4       	brne	.+12     	; 0x5062 <fputc+0x48>
    5056:	8e 81       	ldd	r24, Y+6	; 0x06
    5058:	9f 81       	ldd	r25, Y+7	; 0x07
    505a:	01 96       	adiw	r24, 0x01	; 1
    505c:	9f 83       	std	Y+7, r25	; 0x07
    505e:	8e 83       	std	Y+6, r24	; 0x06
    5060:	02 c0       	rjmp	.+4      	; 0x5066 <fputc+0x4c>
    5062:	0f ef       	ldi	r16, 0xFF	; 255
    5064:	1f ef       	ldi	r17, 0xFF	; 255
    5066:	c8 01       	movw	r24, r16
    5068:	df 91       	pop	r29
    506a:	cf 91       	pop	r28
    506c:	1f 91       	pop	r17
    506e:	0f 91       	pop	r16
    5070:	08 95       	ret

00005072 <__ultoa_invert>:
    5072:	fa 01       	movw	r30, r20
    5074:	aa 27       	eor	r26, r26
    5076:	28 30       	cpi	r18, 0x08	; 8
    5078:	51 f1       	breq	.+84     	; 0x50ce <__ultoa_invert+0x5c>
    507a:	20 31       	cpi	r18, 0x10	; 16
    507c:	81 f1       	breq	.+96     	; 0x50de <__ultoa_invert+0x6c>
    507e:	e8 94       	clt
    5080:	6f 93       	push	r22
    5082:	6e 7f       	andi	r22, 0xFE	; 254
    5084:	6e 5f       	subi	r22, 0xFE	; 254
    5086:	7f 4f       	sbci	r23, 0xFF	; 255
    5088:	8f 4f       	sbci	r24, 0xFF	; 255
    508a:	9f 4f       	sbci	r25, 0xFF	; 255
    508c:	af 4f       	sbci	r26, 0xFF	; 255
    508e:	b1 e0       	ldi	r27, 0x01	; 1
    5090:	3e d0       	rcall	.+124    	; 0x510e <__ultoa_invert+0x9c>
    5092:	b4 e0       	ldi	r27, 0x04	; 4
    5094:	3c d0       	rcall	.+120    	; 0x510e <__ultoa_invert+0x9c>
    5096:	67 0f       	add	r22, r23
    5098:	78 1f       	adc	r23, r24
    509a:	89 1f       	adc	r24, r25
    509c:	9a 1f       	adc	r25, r26
    509e:	a1 1d       	adc	r26, r1
    50a0:	68 0f       	add	r22, r24
    50a2:	79 1f       	adc	r23, r25
    50a4:	8a 1f       	adc	r24, r26
    50a6:	91 1d       	adc	r25, r1
    50a8:	a1 1d       	adc	r26, r1
    50aa:	6a 0f       	add	r22, r26
    50ac:	71 1d       	adc	r23, r1
    50ae:	81 1d       	adc	r24, r1
    50b0:	91 1d       	adc	r25, r1
    50b2:	a1 1d       	adc	r26, r1
    50b4:	20 d0       	rcall	.+64     	; 0x50f6 <__ultoa_invert+0x84>
    50b6:	09 f4       	brne	.+2      	; 0x50ba <__ultoa_invert+0x48>
    50b8:	68 94       	set
    50ba:	3f 91       	pop	r19
    50bc:	2a e0       	ldi	r18, 0x0A	; 10
    50be:	26 9f       	mul	r18, r22
    50c0:	11 24       	eor	r1, r1
    50c2:	30 19       	sub	r19, r0
    50c4:	30 5d       	subi	r19, 0xD0	; 208
    50c6:	31 93       	st	Z+, r19
    50c8:	de f6       	brtc	.-74     	; 0x5080 <__ultoa_invert+0xe>
    50ca:	cf 01       	movw	r24, r30
    50cc:	08 95       	ret
    50ce:	46 2f       	mov	r20, r22
    50d0:	47 70       	andi	r20, 0x07	; 7
    50d2:	40 5d       	subi	r20, 0xD0	; 208
    50d4:	41 93       	st	Z+, r20
    50d6:	b3 e0       	ldi	r27, 0x03	; 3
    50d8:	0f d0       	rcall	.+30     	; 0x50f8 <__ultoa_invert+0x86>
    50da:	c9 f7       	brne	.-14     	; 0x50ce <__ultoa_invert+0x5c>
    50dc:	f6 cf       	rjmp	.-20     	; 0x50ca <__ultoa_invert+0x58>
    50de:	46 2f       	mov	r20, r22
    50e0:	4f 70       	andi	r20, 0x0F	; 15
    50e2:	40 5d       	subi	r20, 0xD0	; 208
    50e4:	4a 33       	cpi	r20, 0x3A	; 58
    50e6:	18 f0       	brcs	.+6      	; 0x50ee <__ultoa_invert+0x7c>
    50e8:	49 5d       	subi	r20, 0xD9	; 217
    50ea:	31 fd       	sbrc	r19, 1
    50ec:	40 52       	subi	r20, 0x20	; 32
    50ee:	41 93       	st	Z+, r20
    50f0:	02 d0       	rcall	.+4      	; 0x50f6 <__ultoa_invert+0x84>
    50f2:	a9 f7       	brne	.-22     	; 0x50de <__ultoa_invert+0x6c>
    50f4:	ea cf       	rjmp	.-44     	; 0x50ca <__ultoa_invert+0x58>
    50f6:	b4 e0       	ldi	r27, 0x04	; 4
    50f8:	a6 95       	lsr	r26
    50fa:	97 95       	ror	r25
    50fc:	87 95       	ror	r24
    50fe:	77 95       	ror	r23
    5100:	67 95       	ror	r22
    5102:	ba 95       	dec	r27
    5104:	c9 f7       	brne	.-14     	; 0x50f8 <__ultoa_invert+0x86>
    5106:	00 97       	sbiw	r24, 0x00	; 0
    5108:	61 05       	cpc	r22, r1
    510a:	71 05       	cpc	r23, r1
    510c:	08 95       	ret
    510e:	9b 01       	movw	r18, r22
    5110:	ac 01       	movw	r20, r24
    5112:	0a 2e       	mov	r0, r26
    5114:	06 94       	lsr	r0
    5116:	57 95       	ror	r21
    5118:	47 95       	ror	r20
    511a:	37 95       	ror	r19
    511c:	27 95       	ror	r18
    511e:	ba 95       	dec	r27
    5120:	c9 f7       	brne	.-14     	; 0x5114 <__ultoa_invert+0xa2>
    5122:	62 0f       	add	r22, r18
    5124:	73 1f       	adc	r23, r19
    5126:	84 1f       	adc	r24, r20
    5128:	95 1f       	adc	r25, r21
    512a:	a0 1d       	adc	r26, r0
    512c:	08 95       	ret

0000512e <__prologue_saves__>:
    512e:	2f 92       	push	r2
    5130:	3f 92       	push	r3
    5132:	4f 92       	push	r4
    5134:	5f 92       	push	r5
    5136:	6f 92       	push	r6
    5138:	7f 92       	push	r7
    513a:	8f 92       	push	r8
    513c:	9f 92       	push	r9
    513e:	af 92       	push	r10
    5140:	bf 92       	push	r11
    5142:	cf 92       	push	r12
    5144:	df 92       	push	r13
    5146:	ef 92       	push	r14
    5148:	ff 92       	push	r15
    514a:	0f 93       	push	r16
    514c:	1f 93       	push	r17
    514e:	cf 93       	push	r28
    5150:	df 93       	push	r29
    5152:	cd b7       	in	r28, 0x3d	; 61
    5154:	de b7       	in	r29, 0x3e	; 62
    5156:	ca 1b       	sub	r28, r26
    5158:	db 0b       	sbc	r29, r27
    515a:	0f b6       	in	r0, 0x3f	; 63
    515c:	f8 94       	cli
    515e:	de bf       	out	0x3e, r29	; 62
    5160:	0f be       	out	0x3f, r0	; 63
    5162:	cd bf       	out	0x3d, r28	; 61
    5164:	09 94       	ijmp

00005166 <__epilogue_restores__>:
    5166:	2a 88       	ldd	r2, Y+18	; 0x12
    5168:	39 88       	ldd	r3, Y+17	; 0x11
    516a:	48 88       	ldd	r4, Y+16	; 0x10
    516c:	5f 84       	ldd	r5, Y+15	; 0x0f
    516e:	6e 84       	ldd	r6, Y+14	; 0x0e
    5170:	7d 84       	ldd	r7, Y+13	; 0x0d
    5172:	8c 84       	ldd	r8, Y+12	; 0x0c
    5174:	9b 84       	ldd	r9, Y+11	; 0x0b
    5176:	aa 84       	ldd	r10, Y+10	; 0x0a
    5178:	b9 84       	ldd	r11, Y+9	; 0x09
    517a:	c8 84       	ldd	r12, Y+8	; 0x08
    517c:	df 80       	ldd	r13, Y+7	; 0x07
    517e:	ee 80       	ldd	r14, Y+6	; 0x06
    5180:	fd 80       	ldd	r15, Y+5	; 0x05
    5182:	0c 81       	ldd	r16, Y+4	; 0x04
    5184:	1b 81       	ldd	r17, Y+3	; 0x03
    5186:	aa 81       	ldd	r26, Y+2	; 0x02
    5188:	b9 81       	ldd	r27, Y+1	; 0x01
    518a:	ce 0f       	add	r28, r30
    518c:	d1 1d       	adc	r29, r1
    518e:	0f b6       	in	r0, 0x3f	; 63
    5190:	f8 94       	cli
    5192:	de bf       	out	0x3e, r29	; 62
    5194:	0f be       	out	0x3f, r0	; 63
    5196:	cd bf       	out	0x3d, r28	; 61
    5198:	ed 01       	movw	r28, r26
    519a:	08 95       	ret

0000519c <_exit>:
    519c:	f8 94       	cli

0000519e <__stop_program>:
    519e:	ff cf       	rjmp	.-2      	; 0x519e <__stop_program>
