
Thermostaat.elf:     file format elf32-avr

Sections:
Idx Name          Size      VMA       LMA       File off  Algn
  0 .data         00000032  00800100  00003c14  00003ca8  2**0
                  CONTENTS, ALLOC, LOAD, DATA
  1 .text         00003c14  00000000  00000000  00000094  2**1
                  CONTENTS, ALLOC, LOAD, READONLY, CODE
  2 .bss          0000007d  00800132  00800132  00003cda  2**0
                  ALLOC
  3 .stab         00002eb0  00000000  00000000  00003cdc  2**2
                  CONTENTS, READONLY, DEBUGGING
  4 .stabstr      000009b7  00000000  00000000  00006b8c  2**0
                  CONTENTS, READONLY, DEBUGGING
  5 .debug_aranges 000000c0  00000000  00000000  00007543  2**0
                  CONTENTS, READONLY, DEBUGGING
  6 .debug_pubnames 000000cd  00000000  00000000  00007603  2**0
                  CONTENTS, READONLY, DEBUGGING
  7 .debug_info   00000b7f  00000000  00000000  000076d0  2**0
                  CONTENTS, READONLY, DEBUGGING
  8 .debug_abbrev 0000061b  00000000  00000000  0000824f  2**0
                  CONTENTS, READONLY, DEBUGGING
  9 .debug_line   000011ac  00000000  00000000  0000886a  2**0
                  CONTENTS, READONLY, DEBUGGING
 10 .debug_frame  000000c0  00000000  00000000  00009a18  2**2
                  CONTENTS, READONLY, DEBUGGING
 11 .debug_str    000003e1  00000000  00000000  00009ad8  2**0
                  CONTENTS, READONLY, DEBUGGING
 12 .debug_loc    00000dba  00000000  00000000  00009eb9  2**0
                  CONTENTS, READONLY, DEBUGGING
 13 .debug_pubtypes 0000013a  00000000  00000000  0000ac73  2**0
                  CONTENTS, READONLY, DEBUGGING
 14 .debug_ranges 00000078  00000000  00000000  0000adad  2**0
                  CONTENTS, READONLY, DEBUGGING

Disassembly of section .text:

00000000 <__vectors>:
       0:	0c 94 73 08 	jmp	0x10e6	; 0x10e6 <__ctors_end>
       4:	0c 94 90 08 	jmp	0x1120	; 0x1120 <__bad_interrupt>
       8:	0c 94 90 08 	jmp	0x1120	; 0x1120 <__bad_interrupt>
       c:	0c 94 90 08 	jmp	0x1120	; 0x1120 <__bad_interrupt>
      10:	0c 94 90 08 	jmp	0x1120	; 0x1120 <__bad_interrupt>
      14:	0c 94 90 08 	jmp	0x1120	; 0x1120 <__bad_interrupt>
      18:	0c 94 90 08 	jmp	0x1120	; 0x1120 <__bad_interrupt>
      1c:	0c 94 90 08 	jmp	0x1120	; 0x1120 <__bad_interrupt>
      20:	0c 94 90 08 	jmp	0x1120	; 0x1120 <__bad_interrupt>
      24:	0c 94 90 08 	jmp	0x1120	; 0x1120 <__bad_interrupt>
      28:	0c 94 90 08 	jmp	0x1120	; 0x1120 <__bad_interrupt>
      2c:	0c 94 90 08 	jmp	0x1120	; 0x1120 <__bad_interrupt>
      30:	0c 94 90 08 	jmp	0x1120	; 0x1120 <__bad_interrupt>
      34:	0c 94 90 08 	jmp	0x1120	; 0x1120 <__bad_interrupt>
      38:	0c 94 90 08 	jmp	0x1120	; 0x1120 <__bad_interrupt>
      3c:	0c 94 90 08 	jmp	0x1120	; 0x1120 <__bad_interrupt>
      40:	0c 94 3a 16 	jmp	0x2c74	; 0x2c74 <__vector_16>
      44:	0c 94 90 08 	jmp	0x1120	; 0x1120 <__bad_interrupt>
      48:	0c 94 98 16 	jmp	0x2d30	; 0x2d30 <__vector_18>
      4c:	0c 94 90 08 	jmp	0x1120	; 0x1120 <__bad_interrupt>
      50:	0c 94 90 08 	jmp	0x1120	; 0x1120 <__bad_interrupt>
      54:	0c 94 90 08 	jmp	0x1120	; 0x1120 <__bad_interrupt>
      58:	0c 94 90 08 	jmp	0x1120	; 0x1120 <__bad_interrupt>
      5c:	0c 94 90 08 	jmp	0x1120	; 0x1120 <__bad_interrupt>
      60:	0c 94 90 08 	jmp	0x1120	; 0x1120 <__bad_interrupt>
      64:	0c 94 90 08 	jmp	0x1120	; 0x1120 <__bad_interrupt>

00000068 <ubuntu_bold_26>:
      68:	11 78 0a 19 2a 10 0b 0e 05 08 05 0b 0d 09 0d 0c     .x..*...........
      78:	0d 0c 0d 0d 0d 0d 40 f0 e0 e0 dc fc dc e0 e0 f0     ......@.........
      88:	40 00 02 06 0f 07 01 07 0f 06 02 00 00 00 00 00     @...............
	...
      ac:	00 00 00 c0 c0 c0 c0 00 00 00 00 00 38 38 38 38     ............8888
      bc:	38 ff ff ff ff 38 38 38 38 38 00 00 00 00 00 07     8....88888......
      cc:	07 07 07 00 00 00 00 00 00 00 00 00 00 00 00 00     ................
	...
      ec:	40 ff ff 7f 0f 00 00 00 00 00 00 00 00 00 00 00     @...............
      fc:	00 00 3c 3c 3c 3c 3c 3c 3c 3c 00 00 00 00 00 00     ..<<<<<<<<......
	...
     11c:	80 80 80 00 07 0f 0f 0f 07 00 00 00 00 00 00 00     ................
     12c:	00 00 00 80 f0 fe ff 7f 0f 00 00 80 f0 fe ff ff     ................
     13c:	1f 03 00 00 e0 fc ff ff 1f 03 00 00 00 00 00 80     ................
     14c:	80 80 00 00 00 00 00 00 00 00 80 e0 f0 f8 7c 1c     ..............|.
     15c:	1c 1c 7c f8 f8 e0 80 7f ff ff ff 80 00 00 00 80     ..|.............
     16c:	ff ff ff 7f 00 01 07 07 0f 0e 0e 0e 0f 07 07 01     ................
	...
     188:	00 00 c0 e0 e0 f0 78 f8 fc fc fc 00 01 00 00 00     ......x.........
     198:	ff ff ff ff 00 00 00 00 00 0f 0f 0f 0f 00 00 00     ................
     1a8:	00 00 00 00 00 00 10 38 38 3c 1c 1c 1c 3c fc f8     .......88<...<..
     1b8:	f8 e0 00 00 c0 e0 f0 f0 f8 7c 3e 1f 0f 07 01 00     .........|>.....
     1c8:	0f 0f 0f 0f 0f 0e 0e 0e 0e 0e 0e 0e 0e 00 00 00     ................
	...
     1e0:	00 00 18 38 3c 1c 1c 1c 3c fc f8 f8 e0 00 00 00     ...8<...<.......
     1f0:	00 0e 0e 0e 0f 1f ff fb f1 e0 06 0f 0e 0e 0e 0e     ................
     200:	0e 0f 07 07 03 01 00 00 00 00 00 00 00 00 00 00     ................
     210:	00 00 00 00 00 80 e0 f0 f8 fc fc fc fc 00 00 f0     ................
     220:	fc fe ff e7 e1 e0 ff ff ff ff e0 e0 00 00 00 00     ................
     230:	00 00 00 0f 0f 0f 0f 00 00 00 00 00 00 00 00 00     ................
     240:	00 00 00 00 00 00 00 80 fc fc fc 1c 1c 1c 1c 1c     ................
     250:	1c 00 00 07 07 07 07 07 0f 1f fe fe fc f0 06 0f     ................
     260:	0e 0e 0e 0e 0e 0f 07 07 03 01 00 00 00 00 00 00     ................
     270:	00 00 00 00 00 00 00 80 e0 f0 f0 78 38 38 1c 1c     ...........x88..
     280:	1c 1c 00 fe ff ff ff 87 07 07 07 0f ff fe fc f8     ................
     290:	00 03 07 07 0f 0e 0e 0e 0f 07 07 03 00 00 00 00     ................
	...
     2a8:	00 00 1c 1c 1c 1c 1c 1c 1c dc fc fc fc 7c 1c 00     .............|..
     2b8:	00 00 00 e0 fc ff ff 1f 07 01 00 00 00 00 00 0e     ................
     2c8:	0f 0f 0f 01 00 00 00 00 00 00 00 00 00 00 00 00     ................
     2d8:	00 00 00 00 00 00 e0 f0 f8 f8 3c 1c 1c 1c 3c fc     ..........<...<.
     2e8:	f8 f0 e0 f1 fb ff ff 1f 0e 0e 1e 3f ff ff fb f1     ...........?....
     2f8:	01 03 07 0f 0f 0e 0e 0e 0f 0f 07 03 01 00 00 00     ................
	...
     310:	00 00 e0 f0 f8 f8 3c 1c 1c 1c 3c f8 f8 f0 c0 03     ......<...<.....
     320:	0f 0f 1f 1e 1c 1c 9c fc ff ff ff 3f 00 00 0e 0e     ...........?....
     330:	0e 0f 07 07 07 03 01 00 00 00 00 00 00 00 00 00     ................
     340:	00 00 00 00 00 00                                   ......

00000346 <Ubuntu_bold_14>:
     346:	20 f0 0a 0e 20 60 00 02 05 09 06 0c 09 02 04 04      ... `..........
     356:	05 06 03 04 03 06 06 05 06 06 07 06 06 06 06 06     ................
     366:	03 04 06 07 06 06 0c 09 07 07 08 06 07 08 08 02     ................
     376:	06 09 07 0b 08 09 07 09 08 06 08 08 09 0d 09 08     ................
     386:	07 04 06 04 07 07 02 06 06 05 06 06 05 06 06 02     ................
     396:	03 07 03 0a 06 07 06 06 05 05 05 06 07 0b 08 07     ................
     3a6:	05 04 02 04 07 05 7e 7e 1c 1c 0f 0f 00 0f 0f 00     ......~~........
     3b6:	00 00 00 00 98 98 f8 fe 9e f8 fe 9e 98 04 1c 1c     ................
     3c6:	04 1c 1c 04 04 04 38 7c 6f cf cc 8c 18 18 78 78     ......8|o.....xx
     3d6:	1c 0c 1c 3e 22 22 be fc f8 dc 4e 42 c0 80 00 00     ...>""....NB....
     3e6:	10 1c 0c 04 0c 1c 10 10 1c 0c c0 fc 7e 66 fe 9c     ............~f..
     3f6:	c0 c0 00 0c 1c 18 18 1c 0c 1c 18 10 0f 0f 00 00     ................
     406:	f8 fe 0f 02 1c 7c f0 40 02 0f fe f8 40 f0 7c 1c     .....|.@....@.|.
     416:	2c 78 1e 78 2c 00 00 00 00 00 c0 c0 f0 f0 c0 c0     ,x.x,...........
     426:	00 00 0c 0c 00 00 00 00 00 40 78 38 c0 c0 c0 c0     .........@x8....
     436:	00 00 00 00 00 00 00 1c 1c 1c 00 00 e0 fc 1f 03     ................
     446:	c0 f8 3c 04 00 00 f8 fc 06 06 fc f8 04 0c 18 18     ..<.............
     456:	0c 04 08 1c 0c fe fe 00 00 00 1c 1c 04 8e c6 e6     ................
     466:	7e 1c 1c 1c 1c 18 18 18 04 06 66 66 fe dc 18 18     ~.........ff....
     476:	18 18 1c 0c c0 f0 b8 8c fe fe 80 04 04 04 04 1c     ................
     486:	1c 04 60 7e 7e 66 e6 c6 18 18 18 18 1c 0c f0 fc     ..`~~f..........
     496:	7c 66 e6 c0 04 1c 18 18 1c 0c 06 06 c6 f6 1e 06     |f..............
     4a6:	00 1c 1c 00 00 00 dc fe 66 66 fe dc 0c 1c 18 18     ........ff......
     4b6:	1c 0c 3c 7e 66 66 fe f8 00 18 18 0c 0c 00 38 38     ..<~ff........88
     4c6:	38 1c 1c 1c 00 38 38 38 40 78 38 00 e0 e0 b0 b0     8....888@x8.....
     4d6:	b0 18 00 00 04 04 04 0c b0 b0 b0 b0 b0 b0 b0 04     ................
     4e6:	04 04 04 04 04 04 18 b0 b0 b0 e0 e0 0c 04 04 04     ................
     4f6:	00 00 03 03 63 73 1f 0e 00 1c 1c 1c 00 00 e0 f8     ....cs..........
     506:	1c ec f6 36 f6 f6 0e 0c f8 f0 04 1c 38 34 6c 6c     ...6........84ll
     516:	6c 6c 6c 0c 04 00 00 c0 f8 be 86 be f8 c0 00 18     lll.............
     526:	1c 0c 04 04 04 0c 1c 18 fe fe 66 66 66 fe dc 1c     ..........fff...
     536:	1c 18 18 18 1c 0c f0 fc 0e 06 06 06 06 04 0c 1c     ................
     546:	18 18 18 18 fe fe 06 06 06 0c fc f8 1c 1c 18 18     ................
     556:	18 0c 0c 00 fe fe 66 66 66 06 1c 1c 18 18 18 18     ......fff.......
     566:	fe fe 66 66 66 66 66 1c 1c 00 00 00 00 00 f0 fc     ..fffff.........
     576:	0c 06 06 06 c6 c6 00 0c 1c 18 18 18 1c 1c fe fe     ................
     586:	60 60 60 60 fe fe 1c 1c 00 00 00 00 1c 1c fe fe     ````............
     596:	1c 1c 00 00 00 00 fe fe 18 18 18 18 1c 0c fe fe     ................
     5a6:	30 f0 d8 8c 06 02 00 1c 1c 00 00 04 0c 1c 18 10     0...............
     5b6:	fe fe 00 00 00 00 00 1c 1c 18 18 18 18 18 e0 fe     ................
     5c6:	1e 78 e0 80 e0 78 1e fe e0 1c 1c 00 00 0c 0c 04     .x...x..........
     5d6:	00 00 1c 1c fe fe 1c 38 e0 c0 fe fe 1c 1c 00 00     .......8........
     5e6:	00 0c 1c 1c f0 fc 0e 06 06 06 0e fc f0 00 0c 1c     ................
     5f6:	18 18 18 1c 0c 04 fe fe c6 c6 c6 7c 3c 1c 1c 00     ...........|<...
     606:	00 00 00 00 f0 fc 0e 06 06 06 0e fc f0 00 0c 1c     ................
     616:	18 38 78 dc cc 04 fe fe c6 c6 c6 7c 38 00 1c 1c     .8x........|8...
     626:	00 00 0c 1c 18 10 1c 3e 66 66 c6 c6 18 18 18 18     .......>ff......
     636:	1c 0c 06 06 06 fe fe 06 06 06 00 00 00 1c 1c 00     ................
     646:	00 00 fe fe 00 00 00 00 fe fe 04 0c 1c 18 18 1c     ................
     656:	0c 04 06 3e fc e0 00 e0 fc 3e 06 00 00 04 1c 1c     ...>.....>......
     666:	1c 04 00 00 0e fe f8 00 e0 fc 1c fc e0 00 f8 fe     ................
     676:	0e 00 00 1c 1c 1c 00 00 00 1c 1c 1c 00 00 02 06     ................
     686:	9e f8 f0 f8 9e 06 02 10 18 1c 04 00 04 1c 18 10     ................
     696:	02 0e 3c f0 f0 3c 0e 02 00 00 00 1c 1c 00 00 00     ..<..<..........
     6a6:	06 86 c6 f6 3e 1e 06 18 1c 1c 18 18 18 18 ff ff     ....>...........
     6b6:	03 03 fc fc c0 c0 03 1f fc e0 00 00 00 00 04 3c     ...............<
     6c6:	f8 c0 03 03 ff ff c0 c0 fc fc 20 70 1c 06 1c 70     .......... p...p
     6d6:	20 00 00 00 00 00 00 00 00 00 00 00 00 00 00 c0      ...............
     6e6:	c0 c0 c0 c0 c0 c0 03 06 00 00 00 b0 b0 b0 f0 e0     ................
     6f6:	0c 1c 18 18 1c 1c ff ff 30 30 f0 e0 1c 1c 18 18     ........00......
     706:	1c 0c e0 e0 30 30 30 0c 1c 18 18 18 e0 f0 30 30     ....000.......00
     716:	ff ff 0c 1c 18 18 1c 1c c0 f0 b0 b0 f0 e0 0c 1c     ................
     726:	18 18 18 18 fe ff 33 33 33 1c 1c 00 00 00 c0 f0     ......333.......
     736:	30 30 f0 f0 8c dc d8 d8 fc 7c ff ff 30 30 f0 e0     00.......|..00..
     746:	1c 1c 00 00 1c 1c f3 f3 1c 1c 00 f3 f3 c0 fc 7c     ...............|
     756:	ff ff 80 e0 70 30 10 1c 1c 00 04 1c 18 10 ff ff     ....p0..........
     766:	00 0c 1c 18 f0 f0 30 30 f0 f0 30 30 f0 e0 1c 1c     ......00..00....
     776:	00 00 1c 1c 00 00 1c 1c f0 f0 30 30 f0 e0 1c 1c     ..........00....
     786:	00 00 1c 1c c0 e0 30 30 30 e0 c0 04 0c 18 18 18     ......000.......
     796:	0c 04 f0 f0 30 30 f0 e0 fc fc 18 18 1c 0c c0 f0     ....00..........
     7a6:	30 30 f0 f0 0c 1c 18 18 fc fc f0 f0 30 30 30 1c     00..........000.
     7b6:	1c 00 00 00 e0 f0 b0 b0 90 18 18 18 1c 0c fc fc     ................
     7c6:	30 30 30 0c 1c 18 18 18 f0 f0 00 00 f0 f0 0c 1c     000.............
     7d6:	18 18 1c 1c 30 f0 c0 00 c0 f0 30 00 04 1c 18 1c     ....0.....0.....
     7e6:	04 00 30 f0 c0 00 e0 70 e0 00 c0 f0 30 00 00 1c     ..0....p....0...
     7f6:	18 0c 00 0c 18 1c 00 00 10 30 70 c0 c0 70 30 10     .........0p..p0.
     806:	10 18 1c 0c 04 1c 18 10 30 f0 c0 00 c0 f0 30 c0     ........0.....0.
     816:	cc fc 78 3c 04 00 30 b0 f0 f0 30 18 1c 1c 18 18     ..x<..0...0.....
     826:	c0 fe ff 03 00 7c fc c0 ff ff fc fc 03 ff fe c0     .....|..........
     836:	c0 fc 7c 00 c0 e0 60 e0 c0 e0 60 00 00 00 00 00     ..|...`...`.....
     846:	00 00 ff 01 01 01 ff 1c 10 10 10 1c                 ............

00000852 <Ubuntu_9>:
     852:	0d 17 0a 09 20 60 00 01 03 05 04 07 05 01 03 03     .... `..........
     862:	03 05 02 02 01 03 04 02 04 04 04 04 04 03 04 04     ................
     872:	01 02 04 04 04 03 08 05 05 05 05 04 04 04 05 01     ................
     882:	03 05 04 07 05 06 04 06 05 04 05 05 05 09 05 05     ................
     892:	04 02 03 02 05 04 02 04 04 03 04 04 02 04 04 01     ................
     8a2:	02 04 02 07 04 04 04 04 02 03 03 04 03 05 04 05     ................
     8b2:	03 03 01 03 04 03 5e 00 03 00 03 00 00 00 28 78     ......^.......(x
     8c2:	2e 78 2e 00 00 00 00 00 44 4a d3 22 00 00 00 00     .x......DJ."....
     8d2:	04 4a 24 18 24 52 20 00 00 00 00 00 00 00 3c 52     .J$.$R .......<R
     8e2:	6c 60 10 00 00 00 00 00 03 00 7c 82 01 00 00 80     l`........|.....
     8f2:	01 82 7c 80 00 00 0c 06 0c 00 00 00 10 10 7c 10     ..|...........|.
     902:	10 00 00 00 00 00 80 40 00 00 10 10 00 00 40 00     .......@......@.
     912:	80 f0 1e 80 00 00 3c 42 42 3c 00 00 00 00 04 7e     ......<BB<.....~
     922:	00 00 44 62 52 4c 00 00 00 00 42 4a 4a 34 00 00     ..DbRL....BJJ4..
     932:	00 00 18 14 7e 10 00 00 00 00 40 4e 4a 32 00 00     ....~.....@NJ2..
     942:	00 00 38 4c 4a 32 00 00 00 00 02 72 0e 00 00 00     ..8LJ2.....r....
     952:	34 4a 4a 34 00 00 00 00 4c 52 32 1c 00 00 00 00     4JJ4....LR2.....
     962:	44 00 80 44 00 00 10 28 28 44 00 00 00 00 28 28     D..D...((D....((
     972:	28 28 00 00 00 00 44 28 28 10 00 00 00 00 02 52     ((....D((......R
     982:	0c 00 00 00 7c c2 39 45 45 3d 42 3c 00 00 80 80     ....|.9EE=B<....
     992:	80 80 00 00 60 3c 22 3c 60 00 00 00 00 00 7e 4a     ....`<"<`.....~J
     9a2:	4a 4a 34 00 00 00 00 00 3c 42 42 42 42 00 00 00     JJ4.....<BBBB...
     9b2:	00 00 7e 42 42 42 3c 00 00 00 00 00 7e 4a 4a 42     ..~BBB<.....~JJB
     9c2:	00 00 00 00 7e 0a 0a 02 00 00 00 00 3c 42 42 72     ....~.......<BBr
     9d2:	00 00 00 00 7e 08 08 08 7e 00 00 00 00 00 7e 00     ....~...~.....~.
     9e2:	40 40 3e 00 00 00 7e 08 14 22 40 00 00 00 00 00     @@>...~.."@.....
     9f2:	7e 40 40 40 00 00 00 00 7e 04 18 20 18 04 7e 00     ~@@@....~.. ..~.
     a02:	00 00 00 00 00 00 7e 04 08 30 7e 00 00 00 00 00     ......~..0~.....
     a12:	3c 42 42 42 42 3c 00 00 00 00 00 00 7e 12 12 0c     <BBBB<......~...
     a22:	00 00 00 00 3c 42 42 c2 42 3c 00 00 00 00 80 00     ....<BB.B<......
     a32:	7e 12 12 32 4c 00 00 00 00 00 44 4a 52 22 00 00     ~..2L.....DJR"..
     a42:	00 00 02 02 7e 02 02 00 00 00 00 00 3e 40 40 40     ....~.......>@@@
     a52:	3e 00 00 00 00 00 06 38 40 38 06 00 00 00 00 00     >......8@8......
     a62:	06 38 40 38 04 38 40 38 06 00 00 00 00 00 00 00     .8@8.8@8........
     a72:	00 00 42 24 18 24 42 00 00 00 00 00 02 0c 70 0c     ..B$.$B.......p.
     a82:	02 00 00 00 00 00 62 52 4a 46 00 00 00 00 ff 01     ......bRJF......
     a92:	80 80 03 1c 60 00 00 00 01 ff 80 80 08 04 02 04     ....`...........
     aa2:	08 00 00 00 00 00 00 00 00 00 80 80 80 80 01 02     ................
     ab2:	00 00 24 54 54 78 00 00 00 00 7f 44 44 38 00 00     ..$TTx.....DD8..
     ac2:	00 00 38 44 44 00 00 00 38 44 44 7f 00 00 00 00     ..8DD...8DD.....
     ad2:	38 54 54 58 00 00 00 00 7f 05 00 00 38 44 44 fc     8TTX........8DD.
     ae2:	80 80 80 00 7f 04 04 78 00 00 00 00 7d 00 00 fd     .......x....}...
     af2:	80 00 7f 10 28 44 00 00 00 00 3f 40 00 00 7c 04     ....(D....?@..|.
     b02:	04 78 04 04 78 00 00 00 00 00 00 00 7c 04 04 78     .x..x.......|..x
     b12:	00 00 00 00 38 44 44 38 00 00 00 00 fc 44 44 38     ....8DD8.....DD8
     b22:	80 00 00 00 38 44 44 fc 00 00 00 80 7c 04 00 00     ....8DD.....|...
     b32:	58 54 34 00 00 00 3e 44 44 00 00 00 3c 40 40 7c     XT4...>DD...<@@|
     b42:	00 00 00 00 0c 70 1c 00 00 00 1c 60 1c 60 1c 00     .....p.....`.`..
     b52:	00 00 00 00 44 38 28 44 00 00 00 00 04 38 c0 38     ....D8(D.....8.8
     b62:	04 80 80 00 00 00 64 54 4c 00 00 00 10 ee 01 00     ......dTL.......
     b72:	00 80 ff 80 01 ee 10 80 00 00 10 08 10 08 00 00     ................
     b82:	00 00 7f 41 7f 00 00 00                             ...A....

00000b8a <sun>:
     b8a:	09 09 10 92 7c 7c ff 7c 7c 92 10 00 00 00 00 01     ....||.||.......
     b9a:	00 00 00 00                                         ....

00000b9e <Moon>:
     b9e:	09 09 00 7c fe ee 83 01 01 00 00 00 00 00 00 01     ...|............
     bae:	01 01 00 00                                         ....

00000bb2 <logo>:
     bb2:	80 40 ff 01 01 01 01 01 01 01 01 01 01 01 01 01     .@..............
     bc2:	01 81 81 81 81 81 01 01 01 01 01 01 01 01 01 01     ................
     bd2:	01 01 01 01 01 01 01 01 f9 f9 f9 f9 39 39 39 39     ............9999
     be2:	01 01 01 81 81 81 81 01 01 01 01 01 01 01 81 81     ................
     bf2:	81 81 81 01 01 01 01 01 01 01 01 01 01 01 01 01     ................
     c02:	01 01 01 01 01 01 01 01 81 81 81 81 81 01 01 01     ................
     c12:	01 01 01 81 81 81 81 01 01 01 01 01 01 01 01 81     ................
     c22:	81 81 81 01 01 01 39 39 39 39 f9 f9 f9 f9 01 01     ......9999......
     c32:	01 ff ff 00 00 00 00 00 00 00 00 00 00 00 00 00     ................
     c42:	00 ff 00 00 24 ff 00 00 00 00 00 00 00 00 00 00     ....$...........
	...
     c5a:	ff ff ff ff 00 00 00 00 00 00 00 ff ff ff ff 80     ................
     c6a:	c0 e0 f0 f8 3e 1f 1f 0f 07 03 01 00 00 00 00 00     ....>...........
	...
     c82:	00 00 80 c0 f0 f8 fc 7e 1f ff ff ff ff 00 00 00     .......~........
     c92:	00 00 00 ff ff ff ff 00 00 00 00 00 00 00 00 ff     ................
     ca2:	ff ff ff 00 00 00 00 00 00 00 ff ff ff ff 00 00     ................
     cb2:	00 ff ff 00 00 00 00 00 00 00 00 00 00 00 00 00     ................
     cc2:	e0 1f 08 08 09 1f e0 00 00 00 00 00 00 00 00 00     ................
	...
     cda:	ff ff ff ff 00 00 00 00 00 00 00 ff ff ff ff 0f     ................
     cea:	1f 3f 7f fc f8 f0 e0 c0 80 00 00 00 00 1c 1c 1c     .?..............
     cfa:	1c 1c 1c 1c 1c 00 00 f0 fc fe ff ff e7 e1 e0 e0     ................
     d0a:	e0 ff ff ff ff e0 e0 00 00 00 00 ff ff ff ff c0     ................
     d1a:	00 00 00 00 00 00 c0 ff ff ff ff 00 00 00 00 00     ................
     d2a:	00 00 ff ff ff ff 00 00 00 ff ff 00 00 00 00 00     ................
     d3a:	c0 c0 c0 c0 00 00 00 00 00 01 02 02 02 01 00 00     ................
     d4a:	00 80 80 00 00 00 00 00 00 00 00 00 00 00 00 00     ................
     d5a:	ff ff ff ff c0 c0 c0 c0 00 00 00 1f 1f 1f 1f 00     ................
     d6a:	00 00 00 00 01 03 0f 1f 1f 1f 1c 18 00 00 00 00     ................
	...
     d8a:	00 1f 1f 1f 1f 00 00 00 00 00 00 00 03 07 0f 1f     ................
     d9a:	1f 1e 1e 1e 1e 1f 1f 0f 07 03 00 00 00 00 c0 c0     ................
     daa:	c0 c0 ff ff ff ff 00 00 00 ff ff 00 00 00 00 00     ................
     dba:	ff ff 00 00 00 00 06 06 06 06 fe fe 06 06 06 06     ................
     dca:	00 ff ff 30 30 30 30 70 e0 c0 00 00 80 e0 60 30     ...0000p......`0
     dda:	31 31 71 e1 c1 01 01 f1 f0 30 30 30 30 00 f0 f0     11q......0000...
     dea:	30 30 30 70 e0 e0 30 30 30 70 e0 c0 00 00 80 e0     000p..000p......
     dfa:	70 30 30 30 70 e0 80 00 00 00 00 00 00 00 00 00     p000p...........
	...
     e26:	00 00 01 01 01 01 01 01 01 01 00 00 00 ff ff 00     ................
     e36:	00 00 00 00 ff ff 80 80 00 00 00 00 00 00 3f 3f     ..............??
     e46:	00 00 00 00 00 3f 3f 00 00 00 00 00 3f 3f 00 00     .....??.....??..
     e56:	0f 1f 3b 33 33 33 33 33 03 00 00 3f 3f 00 00 00     ..;33333...??...
     e66:	00 00 3f 3f 00 00 00 00 3f 3f 00 00 00 00 3f 3f     ..??....??....??
     e76:	00 00 07 1f 38 30 30 30 38 1f 07 00 00 00 00 00     ....80008.......
     e86:	00 00 00 00 e0 e0 00 00 00 00 00 00 00 00 00 00     ................
	...
     ea2:	00 0c 0c fc fc 00 00 00 00 00 00 00 00 00 00 00     ................
     eb2:	00 ff ff 00 00 00 00 00 01 01 01 01 00 00 00 00     ................
	...
     eda:	00 00 00 ff ff 03 03 03 07 fe fe 03 03 03 07 fe     ................
     eea:	fc 00 00 f8 fe b6 33 33 33 37 3e 3c 00 00 e0 f3     ......3337><....
     efa:	1b 1b 1b 1b fe fc 00 00 1e 1f 33 33 e3 e0 00 00     ..........33....
     f0a:	ff ff 03 03 03 03 00 00 ff ff 03 03 03 03 00 78     ...............x
     f1a:	fe 87 03 03 03 87 fe 78 00 00 00 ff ff 00 00 00     .......x........
	...
     f32:	00 ff ff 80 80 80 80 80 80 80 80 80 80 80 80 80     ................
     f42:	80 80 80 80 80 80 80 80 80 80 80 80 80 80 80 80     ................
     f52:	80 80 80 80 80 80 80 80 80 80 80 83 83 80 80 80     ................
     f62:	80 83 83 80 80 80 80 83 83 80 80 80 81 83 83 83     ................
     f72:	83 83 83 80 80 80 80 81 83 83 83 83 83 83 80 80     ................
     f82:	83 83 83 83 83 81 80 80 81 83 83 83 83 83 80 80     ................
     f92:	83 83 80 80 80 80 80 80 81 83 83 83 83 83 81 80     ................
     fa2:	80 98 98 9f 9f 80 80 80 80 80 80 80 80 80 80 80     ................
     fb2:	80 ff                                               ..

00000fb4 <flame>:
     fb4:	07 09 70 f8 8c 07 9e f8 60 00 00 01 01 01 00 00     ..p.....`.......

00000fc4 <sun>:
     fc4:	09 09 10 92 7c 7c ff 7c 7c 92 10 00 00 00 00 01     ....||.||.......
     fd4:	00 00 00 00                                         ....

00000fd8 <Moon>:
     fd8:	09 09 00 7c fe ee 83 01 01 00 00 00 00 00 00 01     ...|............
     fe8:	01 01 00 00 00 40 7a 10 f3 5a 00 a0 72 4e 18 09     .....@z..Z..rN..
     ff8:	00 10 a5 d4 e8 00 00 e8 76 48 17 00 00 e4 0b 54     ........vH.....T
    1008:	02 00 00 ca 9a 3b 00 00 00 e1 f5 05 00 00 80 96     .....;..........
    1018:	98 00 00 00 40 42 0f 00 00 00 a0 86 01 00 00 00     ....@B..........
    1028:	10 27 00 00 00 00 e8 03 00 00 00 00 64 00 00 00     .'..........d...
    1038:	00 00 0a 00 00 00 00 00 01 00 00 00 00 00 2c 76     ..............,v
    1048:	d8 88 dc 67 4f 08 23 df c1 df ae 59 e1 b1 b7 96     ...gO.#....Y....
    1058:	e5 e3 e4 53 c6 3a e6 51 99 76 96 e8 e6 c2 84 26     ...S.:.Q.v.....&
    1068:	eb 89 8c 9b 62 ed 40 7c 6f fc ef bc 9c 9f 40 f2     ....b.@|o.....@.
    1078:	ba a5 6f a5 f4 90 05 5a 2a f7 5c 93 6b 6c f9 67     ..o....Z*.\.kl.g
    1088:	6d c1 1b fc e0 e4 0d 47 fe f5 20 e6 b5 00 d0 ed     m......G.. .....
    1098:	90 2e 03 00 94 35 77 05 00 80 84 1e 08 00 00 20     .....5w........ 
    10a8:	4e 0a 00 00 00 c8 0c 33 33 33 33 0f 98 6e 12 83     N......3333..n..
    10b8:	11 41 ef 8d 21 14 89 3b e6 55 16 cf fe e6 db 18     .A..!..;.U......
    10c8:	d1 84 4b 38 1b f7 7c 1d 90 1d a4 bb e4 24 20 32     ..K8..|......$ 2
    10d8:	84 72 5e 22 81 00 c9 f1 24 ec a1 e5 3d 27           .r^"....$...='

000010e6 <__ctors_end>:
    10e6:	11 24       	eor	r1, r1
    10e8:	1f be       	out	0x3f, r1	; 63
    10ea:	cf ef       	ldi	r28, 0xFF	; 255
    10ec:	d4 e0       	ldi	r29, 0x04	; 4
    10ee:	de bf       	out	0x3e, r29	; 62
    10f0:	cd bf       	out	0x3d, r28	; 61

000010f2 <__do_copy_data>:
    10f2:	11 e0       	ldi	r17, 0x01	; 1
    10f4:	a0 e0       	ldi	r26, 0x00	; 0
    10f6:	b1 e0       	ldi	r27, 0x01	; 1
    10f8:	e4 e1       	ldi	r30, 0x14	; 20
    10fa:	fc e3       	ldi	r31, 0x3C	; 60
    10fc:	02 c0       	rjmp	.+4      	; 0x1102 <__do_copy_data+0x10>
    10fe:	05 90       	lpm	r0, Z+
    1100:	0d 92       	st	X+, r0
    1102:	a2 33       	cpi	r26, 0x32	; 50
    1104:	b1 07       	cpc	r27, r17
    1106:	d9 f7       	brne	.-10     	; 0x10fe <__do_copy_data+0xc>

00001108 <__do_clear_bss>:
    1108:	11 e0       	ldi	r17, 0x01	; 1
    110a:	a2 e3       	ldi	r26, 0x32	; 50
    110c:	b1 e0       	ldi	r27, 0x01	; 1
    110e:	01 c0       	rjmp	.+2      	; 0x1112 <.do_clear_bss_start>

00001110 <.do_clear_bss_loop>:
    1110:	1d 92       	st	X+, r1

00001112 <.do_clear_bss_start>:
    1112:	af 3a       	cpi	r26, 0xAF	; 175
    1114:	b1 07       	cpc	r27, r17
    1116:	e1 f7       	brne	.-8      	; 0x1110 <.do_clear_bss_loop>
    1118:	0e 94 95 13 	call	0x272a	; 0x272a <main>
    111c:	0c 94 08 1e 	jmp	0x3c10	; 0x3c10 <_exit>

00001120 <__bad_interrupt>:
    1120:	0c 94 00 00 	jmp	0	; 0x0 <__vectors>

00001124 <loadImage>:
    1124:	4f 92       	push	r4
    1126:	5f 92       	push	r5
    1128:	7f 92       	push	r7
    112a:	8f 92       	push	r8
    112c:	9f 92       	push	r9
    112e:	af 92       	push	r10
    1130:	bf 92       	push	r11
    1132:	cf 92       	push	r12
    1134:	df 92       	push	r13
    1136:	ef 92       	push	r14
    1138:	ff 92       	push	r15
    113a:	0f 93       	push	r16
    113c:	1f 93       	push	r17
    113e:	df 93       	push	r29
    1140:	cf 93       	push	r28
    1142:	0f 92       	push	r0
    1144:	cd b7       	in	r28, 0x3d	; 61
    1146:	de b7       	in	r29, 0x3e	; 62
    1148:	c8 2e       	mov	r12, r24
    114a:	d6 2e       	mov	r13, r22
    114c:	9a 01       	movw	r18, r20
    114e:	2f 5f       	subi	r18, 0xFF	; 255
    1150:	3f 4f       	sbci	r19, 0xFF	; 255
    1152:	fa 01       	movw	r30, r20
    1154:	a4 90       	lpm	r10, Z+
    1156:	29 01       	movw	r4, r18
    1158:	08 94       	sec
    115a:	41 1c       	adc	r4, r1
    115c:	51 1c       	adc	r5, r1
    115e:	f9 01       	movw	r30, r18
    1160:	94 90       	lpm	r9, Z+
    1162:	90 e0       	ldi	r25, 0x00	; 0
    1164:	ea 2c       	mov	r14, r10
    1166:	ff 24       	eor	r15, r15
    1168:	14 c0       	rjmp	.+40     	; 0x1192 <loadImage+0x6e>
    116a:	f8 01       	movw	r30, r16
    116c:	0f 5f       	subi	r16, 0xFF	; 255
    116e:	1f 4f       	sbci	r17, 0xFF	; 255
    1170:	74 90       	lpm	r7, Z+
    1172:	8b 2d       	mov	r24, r11
    1174:	8c 0d       	add	r24, r12
    1176:	68 2d       	mov	r22, r8
    1178:	99 83       	std	Y+1, r25	; 0x01
    117a:	0e 94 02 0d 	call	0x1a04	; 0x1a04 <ks0108GotoXY>
    117e:	87 2d       	mov	r24, r7
    1180:	0e 94 6b 0d 	call	0x1ad6	; 0x1ad6 <ks0108WriteData>
    1184:	b3 94       	inc	r11
    1186:	99 81       	ldd	r25, Y+1	; 0x01
    1188:	ba 14       	cp	r11, r10
    118a:	78 f3       	brcs	.-34     	; 0x116a <loadImage+0x46>
    118c:	4e 0c       	add	r4, r14
    118e:	5f 1c       	adc	r5, r15
    1190:	98 5f       	subi	r25, 0xF8	; 248
    1192:	99 15       	cp	r25, r9
    1194:	28 f4       	brcc	.+10     	; 0x11a0 <loadImage+0x7c>
    1196:	82 01       	movw	r16, r4
    1198:	bb 24       	eor	r11, r11
    119a:	89 2e       	mov	r8, r25
    119c:	8d 0c       	add	r8, r13
    119e:	f4 cf       	rjmp	.-24     	; 0x1188 <loadImage+0x64>
    11a0:	0f 90       	pop	r0
    11a2:	cf 91       	pop	r28
    11a4:	df 91       	pop	r29
    11a6:	1f 91       	pop	r17
    11a8:	0f 91       	pop	r16
    11aa:	ff 90       	pop	r15
    11ac:	ef 90       	pop	r14
    11ae:	df 90       	pop	r13
    11b0:	cf 90       	pop	r12
    11b2:	bf 90       	pop	r11
    11b4:	af 90       	pop	r10
    11b6:	9f 90       	pop	r9
    11b8:	8f 90       	pop	r8
    11ba:	7f 90       	pop	r7
    11bc:	5f 90       	pop	r5
    11be:	4f 90       	pop	r4
    11c0:	08 95       	ret

000011c2 <loadImageInverted>:
    11c2:	4f 92       	push	r4
    11c4:	5f 92       	push	r5
    11c6:	7f 92       	push	r7
    11c8:	8f 92       	push	r8
    11ca:	9f 92       	push	r9
    11cc:	af 92       	push	r10
    11ce:	bf 92       	push	r11
    11d0:	cf 92       	push	r12
    11d2:	df 92       	push	r13
    11d4:	ef 92       	push	r14
    11d6:	ff 92       	push	r15
    11d8:	0f 93       	push	r16
    11da:	1f 93       	push	r17
    11dc:	df 93       	push	r29
    11de:	cf 93       	push	r28
    11e0:	0f 92       	push	r0
    11e2:	cd b7       	in	r28, 0x3d	; 61
    11e4:	de b7       	in	r29, 0x3e	; 62
    11e6:	c8 2e       	mov	r12, r24
    11e8:	d6 2e       	mov	r13, r22
    11ea:	9a 01       	movw	r18, r20
    11ec:	2f 5f       	subi	r18, 0xFF	; 255
    11ee:	3f 4f       	sbci	r19, 0xFF	; 255
    11f0:	fa 01       	movw	r30, r20
    11f2:	a4 90       	lpm	r10, Z+
    11f4:	29 01       	movw	r4, r18
    11f6:	08 94       	sec
    11f8:	41 1c       	adc	r4, r1
    11fa:	51 1c       	adc	r5, r1
    11fc:	f9 01       	movw	r30, r18
    11fe:	94 90       	lpm	r9, Z+
    1200:	90 e0       	ldi	r25, 0x00	; 0
    1202:	ea 2c       	mov	r14, r10
    1204:	ff 24       	eor	r15, r15
    1206:	15 c0       	rjmp	.+42     	; 0x1232 <loadImageInverted+0x70>
    1208:	f8 01       	movw	r30, r16
    120a:	0f 5f       	subi	r16, 0xFF	; 255
    120c:	1f 4f       	sbci	r17, 0xFF	; 255
    120e:	74 90       	lpm	r7, Z+
    1210:	8b 2d       	mov	r24, r11
    1212:	8c 0d       	add	r24, r12
    1214:	68 2d       	mov	r22, r8
    1216:	99 83       	std	Y+1, r25	; 0x01
    1218:	0e 94 02 0d 	call	0x1a04	; 0x1a04 <ks0108GotoXY>
    121c:	87 2d       	mov	r24, r7
    121e:	80 95       	com	r24
    1220:	0e 94 6b 0d 	call	0x1ad6	; 0x1ad6 <ks0108WriteData>
    1224:	b3 94       	inc	r11
    1226:	99 81       	ldd	r25, Y+1	; 0x01
    1228:	ba 14       	cp	r11, r10
    122a:	70 f3       	brcs	.-36     	; 0x1208 <loadImageInverted+0x46>
    122c:	4e 0c       	add	r4, r14
    122e:	5f 1c       	adc	r5, r15
    1230:	98 5f       	subi	r25, 0xF8	; 248
    1232:	99 15       	cp	r25, r9
    1234:	28 f4       	brcc	.+10     	; 0x1240 <loadImageInverted+0x7e>
    1236:	82 01       	movw	r16, r4
    1238:	bb 24       	eor	r11, r11
    123a:	89 2e       	mov	r8, r25
    123c:	8d 0c       	add	r8, r13
    123e:	f4 cf       	rjmp	.-24     	; 0x1228 <loadImageInverted+0x66>
    1240:	0f 90       	pop	r0
    1242:	cf 91       	pop	r28
    1244:	df 91       	pop	r29
    1246:	1f 91       	pop	r17
    1248:	0f 91       	pop	r16
    124a:	ff 90       	pop	r15
    124c:	ef 90       	pop	r14
    124e:	df 90       	pop	r13
    1250:	cf 90       	pop	r12
    1252:	bf 90       	pop	r11
    1254:	af 90       	pop	r10
    1256:	9f 90       	pop	r9
    1258:	8f 90       	pop	r8
    125a:	7f 90       	pop	r7
    125c:	5f 90       	pop	r5
    125e:	4f 90       	pop	r4
    1260:	08 95       	ret

00001262 <crc8>:
    1262:	28 2f       	mov	r18, r24
    1264:	39 2f       	mov	r19, r25
    1266:	f9 01       	movw	r30, r18
    1268:	20 e0       	ldi	r18, 0x00	; 0
    126a:	30 e0       	ldi	r19, 0x00	; 0
    126c:	80 e0       	ldi	r24, 0x00	; 0
    126e:	a8 e1       	ldi	r26, 0x18	; 24
    1270:	12 c0       	rjmp	.+36     	; 0x1296 <crc8+0x34>
    1272:	41 91       	ld	r20, Z+
    1274:	98 e0       	ldi	r25, 0x08	; 8
    1276:	54 2f       	mov	r21, r20
    1278:	58 27       	eor	r21, r24
    127a:	b5 2f       	mov	r27, r21
    127c:	b1 70       	andi	r27, 0x01	; 1
    127e:	50 fd       	sbrc	r21, 0
    1280:	8a 27       	eor	r24, r26
    1282:	86 95       	lsr	r24
    1284:	b1 30       	cpi	r27, 0x01	; 1
    1286:	09 f4       	brne	.+2      	; 0x128a <crc8+0x28>
    1288:	80 68       	ori	r24, 0x80	; 128
    128a:	91 50       	subi	r25, 0x01	; 1
    128c:	11 f0       	breq	.+4      	; 0x1292 <crc8+0x30>
    128e:	46 95       	lsr	r20
    1290:	f2 cf       	rjmp	.-28     	; 0x1276 <crc8+0x14>
    1292:	2f 5f       	subi	r18, 0xFF	; 255
    1294:	3f 4f       	sbci	r19, 0xFF	; 255
    1296:	26 17       	cp	r18, r22
    1298:	37 07       	cpc	r19, r23
    129a:	59 f7       	brne	.-42     	; 0x1272 <crc8+0x10>
    129c:	08 95       	ret

0000129e <drawTime>:
    129e:	ff 92       	push	r15
    12a0:	0f 93       	push	r16
    12a2:	1f 93       	push	r17
    12a4:	cf 93       	push	r28
    12a6:	df 93       	push	r29
    12a8:	82 e5       	ldi	r24, 0x52	; 82
    12aa:	98 e0       	ldi	r25, 0x08	; 8
    12ac:	6a e5       	ldi	r22, 0x5A	; 90
    12ae:	7c e0       	ldi	r23, 0x0C	; 12
    12b0:	4f ef       	ldi	r20, 0xFF	; 255
    12b2:	0e 94 5d 0c 	call	0x18ba	; 0x18ba <ks0108SelectFont>
    12b6:	8d e5       	ldi	r24, 0x5D	; 93
    12b8:	60 e0       	ldi	r22, 0x00	; 0
    12ba:	43 e2       	ldi	r20, 0x23	; 35
    12bc:	27 e0       	ldi	r18, 0x07	; 7
    12be:	00 e0       	ldi	r16, 0x00	; 0
    12c0:	0e 94 44 10 	call	0x2088	; 0x2088 <ks0108FillRect>
    12c4:	8f e5       	ldi	r24, 0x5F	; 95
    12c6:	60 e0       	ldi	r22, 0x00	; 0
    12c8:	0e 94 02 0d 	call	0x1a04	; 0x1a04 <ks0108GotoXY>
    12cc:	0b e5       	ldi	r16, 0x5B	; 91
    12ce:	11 e0       	ldi	r17, 0x01	; 1
    12d0:	80 91 5b 01 	lds	r24, 0x015B
    12d4:	9a e0       	ldi	r25, 0x0A	; 10
    12d6:	f9 2e       	mov	r15, r25
    12d8:	6f 2d       	mov	r22, r15
    12da:	0e 94 6e 18 	call	0x30dc	; 0x30dc <__udivmodqi4>
    12de:	80 5d       	subi	r24, 0xD0	; 208
    12e0:	0e 94 07 0e 	call	0x1c0e	; 0x1c0e <ks0108PutChar>
    12e4:	80 91 5b 01 	lds	r24, 0x015B
    12e8:	6f 2d       	mov	r22, r15
    12ea:	0e 94 6e 18 	call	0x30dc	; 0x30dc <__udivmodqi4>
    12ee:	89 2f       	mov	r24, r25
    12f0:	80 5d       	subi	r24, 0xD0	; 208
    12f2:	0e 94 07 0e 	call	0x1c0e	; 0x1c0e <ks0108PutChar>
    12f6:	8a e3       	ldi	r24, 0x3A	; 58
    12f8:	0e 94 07 0e 	call	0x1c0e	; 0x1c0e <ks0108PutChar>
    12fc:	e8 01       	movw	r28, r16
    12fe:	8a 91       	ld	r24, -Y
    1300:	6f 2d       	mov	r22, r15
    1302:	0e 94 6e 18 	call	0x30dc	; 0x30dc <__udivmodqi4>
    1306:	80 5d       	subi	r24, 0xD0	; 208
    1308:	0e 94 07 0e 	call	0x1c0e	; 0x1c0e <ks0108PutChar>
    130c:	88 81       	ld	r24, Y
    130e:	6f 2d       	mov	r22, r15
    1310:	0e 94 6e 18 	call	0x30dc	; 0x30dc <__udivmodqi4>
    1314:	89 2f       	mov	r24, r25
    1316:	80 5d       	subi	r24, 0xD0	; 208
    1318:	0e 94 07 0e 	call	0x1c0e	; 0x1c0e <ks0108PutChar>
    131c:	8a e3       	ldi	r24, 0x3A	; 58
    131e:	0e 94 07 0e 	call	0x1c0e	; 0x1c0e <ks0108PutChar>
    1322:	e8 01       	movw	r28, r16
    1324:	22 97       	sbiw	r28, 0x02	; 2
    1326:	88 81       	ld	r24, Y
    1328:	6f 2d       	mov	r22, r15
    132a:	0e 94 6e 18 	call	0x30dc	; 0x30dc <__udivmodqi4>
    132e:	80 5d       	subi	r24, 0xD0	; 208
    1330:	0e 94 07 0e 	call	0x1c0e	; 0x1c0e <ks0108PutChar>
    1334:	88 81       	ld	r24, Y
    1336:	6f 2d       	mov	r22, r15
    1338:	0e 94 6e 18 	call	0x30dc	; 0x30dc <__udivmodqi4>
    133c:	89 2f       	mov	r24, r25
    133e:	80 5d       	subi	r24, 0xD0	; 208
    1340:	0e 94 07 0e 	call	0x1c0e	; 0x1c0e <ks0108PutChar>
    1344:	df 91       	pop	r29
    1346:	cf 91       	pop	r28
    1348:	1f 91       	pop	r17
    134a:	0f 91       	pop	r16
    134c:	ff 90       	pop	r15
    134e:	08 95       	ret

00001350 <drawDate>:
    1350:	0f 93       	push	r16
    1352:	cf 93       	push	r28
    1354:	df 93       	push	r29
    1356:	8d b7       	in	r24, 0x3d	; 61
    1358:	9e b7       	in	r25, 0x3e	; 62
    135a:	0a 97       	sbiw	r24, 0x0a	; 10
    135c:	0f b6       	in	r0, 0x3f	; 63
    135e:	f8 94       	cli
    1360:	9e bf       	out	0x3e, r25	; 62
    1362:	0f be       	out	0x3f, r0	; 63
    1364:	8d bf       	out	0x3d, r24	; 61
    1366:	ed b7       	in	r30, 0x3d	; 61
    1368:	fe b7       	in	r31, 0x3e	; 62
    136a:	31 96       	adiw	r30, 0x01	; 1
    136c:	c1 e5       	ldi	r28, 0x51	; 81
    136e:	d1 e0       	ldi	r29, 0x01	; 1
    1370:	ad b7       	in	r26, 0x3d	; 61
    1372:	be b7       	in	r27, 0x3e	; 62
    1374:	12 96       	adiw	r26, 0x02	; 2
    1376:	dc 93       	st	X, r29
    1378:	ce 93       	st	-X, r28
    137a:	11 97       	sbiw	r26, 0x01	; 1
    137c:	80 e0       	ldi	r24, 0x00	; 0
    137e:	91 e0       	ldi	r25, 0x01	; 1
    1380:	93 83       	std	Z+3, r25	; 0x03
    1382:	82 83       	std	Z+2, r24	; 0x02
    1384:	80 91 5d 01 	lds	r24, 0x015D
    1388:	84 83       	std	Z+4, r24	; 0x04
    138a:	15 82       	std	Z+5, r1	; 0x05
    138c:	80 91 5e 01 	lds	r24, 0x015E
    1390:	86 83       	std	Z+6, r24	; 0x06
    1392:	17 82       	std	Z+7, r1	; 0x07
    1394:	80 91 5f 01 	lds	r24, 0x015F
    1398:	80 87       	std	Z+8, r24	; 0x08
    139a:	11 86       	std	Z+9, r1	; 0x09
    139c:	0e 94 f8 18 	call	0x31f0	; 0x31f0 <sprintf>
    13a0:	8d b7       	in	r24, 0x3d	; 61
    13a2:	9e b7       	in	r25, 0x3e	; 62
    13a4:	0a 96       	adiw	r24, 0x0a	; 10
    13a6:	0f b6       	in	r0, 0x3f	; 63
    13a8:	f8 94       	cli
    13aa:	9e bf       	out	0x3e, r25	; 62
    13ac:	0f be       	out	0x3f, r0	; 63
    13ae:	8d bf       	out	0x3d, r24	; 61
    13b0:	82 e5       	ldi	r24, 0x52	; 82
    13b2:	98 e0       	ldi	r25, 0x08	; 8
    13b4:	6a e5       	ldi	r22, 0x5A	; 90
    13b6:	7c e0       	ldi	r23, 0x0C	; 12
    13b8:	4f ef       	ldi	r20, 0xFF	; 255
    13ba:	0e 94 5d 0c 	call	0x18ba	; 0x18ba <ks0108SelectFont>
    13be:	ce 01       	movw	r24, r28
    13c0:	0e 94 a2 0c 	call	0x1944	; 0x1944 <ks0108StringWidth>
    13c4:	48 2f       	mov	r20, r24
    13c6:	83 e0       	ldi	r24, 0x03	; 3
    13c8:	60 e0       	ldi	r22, 0x00	; 0
    13ca:	27 e0       	ldi	r18, 0x07	; 7
    13cc:	00 e0       	ldi	r16, 0x00	; 0
    13ce:	0e 94 44 10 	call	0x2088	; 0x2088 <ks0108FillRect>
    13d2:	83 e0       	ldi	r24, 0x03	; 3
    13d4:	60 e0       	ldi	r22, 0x00	; 0
    13d6:	0e 94 02 0d 	call	0x1a04	; 0x1a04 <ks0108GotoXY>
    13da:	ce 01       	movw	r24, r28
    13dc:	0e 94 4c 0f 	call	0x1e98	; 0x1e98 <ks0108Puts>
    13e0:	df 91       	pop	r29
    13e2:	cf 91       	pop	r28
    13e4:	0f 91       	pop	r16
    13e6:	08 95       	ret

000013e8 <drawMenuHeader>:
    13e8:	0f 93       	push	r16
    13ea:	0e 94 4f 09 	call	0x129e	; 0x129e <drawTime>
    13ee:	0e 94 a8 09 	call	0x1350	; 0x1350 <drawDate>
    13f2:	80 e0       	ldi	r24, 0x00	; 0
    13f4:	68 e0       	ldi	r22, 0x08	; 8
    13f6:	40 e8       	ldi	r20, 0x80	; 128
    13f8:	20 e0       	ldi	r18, 0x00	; 0
    13fa:	0f ef       	ldi	r16, 0xFF	; 255
    13fc:	0e 94 44 10 	call	0x2088	; 0x2088 <ks0108FillRect>
    1400:	0f 91       	pop	r16
    1402:	08 95       	ret

00001404 <drawPresetDrawer>:
    1404:	0f 93       	push	r16
    1406:	80 91 7a 01 	lds	r24, 0x017A
    140a:	80 62       	ori	r24, 0x20	; 32
    140c:	80 93 7a 01 	sts	0x017A, r24
    1410:	80 e4       	ldi	r24, 0x40	; 64
    1412:	6d e2       	ldi	r22, 0x2D	; 45
    1414:	4c e2       	ldi	r20, 0x2C	; 44
    1416:	2c e0       	ldi	r18, 0x0C	; 12
    1418:	00 e0       	ldi	r16, 0x00	; 0
    141a:	0e 94 44 10 	call	0x2088	; 0x2088 <ks0108FillRect>
    141e:	80 e4       	ldi	r24, 0x40	; 64
    1420:	6d e2       	ldi	r22, 0x2D	; 45
    1422:	4c e2       	ldi	r20, 0x2C	; 44
    1424:	2c e0       	ldi	r18, 0x0C	; 12
    1426:	0f ef       	ldi	r16, 0xFF	; 255
    1428:	0e 94 d3 11 	call	0x23a6	; 0x23a6 <ks0108DrawRect>
    142c:	81 e6       	ldi	r24, 0x61	; 97
    142e:	6b e2       	ldi	r22, 0x2B	; 43
    1430:	4a e0       	ldi	r20, 0x0A	; 10
    1432:	22 e0       	ldi	r18, 0x02	; 2
    1434:	00 e0       	ldi	r16, 0x00	; 0
    1436:	0e 94 44 10 	call	0x2088	; 0x2088 <ks0108FillRect>
    143a:	83 e4       	ldi	r24, 0x43	; 67
    143c:	6f e2       	ldi	r22, 0x2F	; 47
    143e:	4a e8       	ldi	r20, 0x8A	; 138
    1440:	5b e0       	ldi	r21, 0x0B	; 11
    1442:	0e 94 92 08 	call	0x1124	; 0x1124 <loadImage>
    1446:	8f e4       	ldi	r24, 0x4F	; 79
    1448:	6f e2       	ldi	r22, 0x2F	; 47
    144a:	4e e9       	ldi	r20, 0x9E	; 158
    144c:	5b e0       	ldi	r21, 0x0B	; 11
    144e:	0e 94 92 08 	call	0x1124	; 0x1124 <loadImage>
    1452:	83 e4       	ldi	r24, 0x43	; 67
    1454:	80 93 37 01 	sts	0x0137, r24
    1458:	9f e2       	ldi	r25, 0x2F	; 47
    145a:	90 93 38 01 	sts	0x0138, r25
    145e:	89 e0       	ldi	r24, 0x09	; 9
    1460:	80 93 39 01 	sts	0x0139, r24
    1464:	80 93 3a 01 	sts	0x013A, r24
    1468:	2f e4       	ldi	r18, 0x4F	; 79
    146a:	20 93 3b 01 	sts	0x013B, r18
    146e:	90 93 3c 01 	sts	0x013C, r25
    1472:	80 93 3d 01 	sts	0x013D, r24
    1476:	80 93 3e 01 	sts	0x013E, r24
    147a:	0f 91       	pop	r16
    147c:	08 95       	ret

0000147e <closePresetDrawer>:
    147e:	0f 93       	push	r16
    1480:	80 91 7a 01 	lds	r24, 0x017A
    1484:	8f 7d       	andi	r24, 0xDF	; 223
    1486:	80 93 7a 01 	sts	0x017A, r24
    148a:	80 e4       	ldi	r24, 0x40	; 64
    148c:	6d e2       	ldi	r22, 0x2D	; 45
    148e:	4c e2       	ldi	r20, 0x2C	; 44
    1490:	2c e0       	ldi	r18, 0x0C	; 12
    1492:	00 e0       	ldi	r16, 0x00	; 0
    1494:	0e 94 44 10 	call	0x2088	; 0x2088 <ks0108FillRect>
    1498:	0f 91       	pop	r16
    149a:	08 95       	ret

0000149c <drawPresetActive>:
    149c:	0f 93       	push	r16
    149e:	82 e6       	ldi	r24, 0x62	; 98
    14a0:	65 e1       	ldi	r22, 0x15	; 21
    14a2:	49 e0       	ldi	r20, 0x09	; 9
    14a4:	29 e0       	ldi	r18, 0x09	; 9
    14a6:	00 e0       	ldi	r16, 0x00	; 0
    14a8:	0e 94 44 10 	call	0x2088	; 0x2088 <ks0108FillRect>
    14ac:	80 91 7d 01 	lds	r24, 0x017D
    14b0:	90 91 7e 01 	lds	r25, 0x017E
    14b4:	21 e0       	ldi	r18, 0x01	; 1
    14b6:	87 31       	cpi	r24, 0x17	; 23
    14b8:	92 07       	cpc	r25, r18
    14ba:	29 f4       	brne	.+10     	; 0x14c6 <drawPresetActive+0x2a>
    14bc:	82 e6       	ldi	r24, 0x62	; 98
    14be:	65 e1       	ldi	r22, 0x15	; 21
    14c0:	4a e8       	ldi	r20, 0x8A	; 138
    14c2:	5b e0       	ldi	r21, 0x0B	; 11
    14c4:	04 c0       	rjmp	.+8      	; 0x14ce <drawPresetActive+0x32>
    14c6:	82 e6       	ldi	r24, 0x62	; 98
    14c8:	65 e1       	ldi	r22, 0x15	; 21
    14ca:	4e e9       	ldi	r20, 0x9E	; 158
    14cc:	5b e0       	ldi	r21, 0x0B	; 11
    14ce:	0e 94 92 08 	call	0x1124	; 0x1124 <loadImage>
    14d2:	0f 91       	pop	r16
    14d4:	08 95       	ret

000014d6 <isIn>:
    14d6:	fc 01       	movw	r30, r24
    14d8:	db 01       	movw	r26, r22
    14da:	20 81       	ld	r18, Z
    14dc:	4c 91       	ld	r20, X
    14de:	24 17       	cp	r18, r20
    14e0:	d8 f0       	brcs	.+54     	; 0x1518 <isIn+0x42>
    14e2:	30 e0       	ldi	r19, 0x00	; 0
    14e4:	12 96       	adiw	r26, 0x02	; 2
    14e6:	8c 91       	ld	r24, X
    14e8:	12 97       	sbiw	r26, 0x02	; 2
    14ea:	90 e0       	ldi	r25, 0x00	; 0
    14ec:	84 0f       	add	r24, r20
    14ee:	91 1d       	adc	r25, r1
    14f0:	82 17       	cp	r24, r18
    14f2:	93 07       	cpc	r25, r19
    14f4:	8c f0       	brlt	.+34     	; 0x1518 <isIn+0x42>
    14f6:	41 81       	ldd	r20, Z+1	; 0x01
    14f8:	11 96       	adiw	r26, 0x01	; 1
    14fa:	8c 91       	ld	r24, X
    14fc:	11 97       	sbiw	r26, 0x01	; 1
    14fe:	48 17       	cp	r20, r24
    1500:	68 f0       	brcs	.+26     	; 0x151c <isIn+0x46>
    1502:	50 e0       	ldi	r21, 0x00	; 0
    1504:	13 96       	adiw	r26, 0x03	; 3
    1506:	2c 91       	ld	r18, X
    1508:	13 97       	sbiw	r26, 0x03	; 3
    150a:	30 e0       	ldi	r19, 0x00	; 0
    150c:	28 0f       	add	r18, r24
    150e:	31 1d       	adc	r19, r1
    1510:	81 e0       	ldi	r24, 0x01	; 1
    1512:	24 17       	cp	r18, r20
    1514:	35 07       	cpc	r19, r21
    1516:	1c f4       	brge	.+6      	; 0x151e <isIn+0x48>
    1518:	80 e0       	ldi	r24, 0x00	; 0
    151a:	08 95       	ret
    151c:	80 e0       	ldi	r24, 0x00	; 0
    151e:	08 95       	ret

00001520 <isDifferent>:
    1520:	fc 01       	movw	r30, r24
    1522:	db 01       	movw	r26, r22
    1524:	8c 91       	ld	r24, X
    1526:	90 e0       	ldi	r25, 0x00	; 0
    1528:	20 81       	ld	r18, Z
    152a:	30 e0       	ldi	r19, 0x00	; 0
    152c:	ac 01       	movw	r20, r24
    152e:	41 50       	subi	r20, 0x01	; 1
    1530:	50 40       	sbci	r21, 0x00	; 0
    1532:	24 17       	cp	r18, r20
    1534:	35 07       	cpc	r19, r21
    1536:	4c f0       	brlt	.+18     	; 0x154a <isDifferent+0x2a>
    1538:	ac 01       	movw	r20, r24
    153a:	4f 5f       	subi	r20, 0xFF	; 255
    153c:	5f 4f       	sbci	r21, 0xFF	; 255
    153e:	81 e0       	ldi	r24, 0x01	; 1
    1540:	42 17       	cp	r20, r18
    1542:	53 07       	cpc	r21, r19
    1544:	1c f0       	brlt	.+6      	; 0x154c <isDifferent+0x2c>
    1546:	80 e0       	ldi	r24, 0x00	; 0
    1548:	01 c0       	rjmp	.+2      	; 0x154c <isDifferent+0x2c>
    154a:	81 e0       	ldi	r24, 0x01	; 1
    154c:	11 96       	adiw	r26, 0x01	; 1
    154e:	4c 91       	ld	r20, X
    1550:	11 97       	sbiw	r26, 0x01	; 1
    1552:	50 e0       	ldi	r21, 0x00	; 0
    1554:	21 81       	ldd	r18, Z+1	; 0x01
    1556:	30 e0       	ldi	r19, 0x00	; 0
    1558:	ba 01       	movw	r22, r20
    155a:	61 50       	subi	r22, 0x01	; 1
    155c:	70 40       	sbci	r23, 0x00	; 0
    155e:	26 17       	cp	r18, r22
    1560:	37 07       	cpc	r19, r23
    1562:	2c f0       	brlt	.+10     	; 0x156e <isDifferent+0x4e>
    1564:	4f 5f       	subi	r20, 0xFF	; 255
    1566:	5f 4f       	sbci	r21, 0xFF	; 255
    1568:	42 17       	cp	r20, r18
    156a:	53 07       	cpc	r21, r19
    156c:	0c f4       	brge	.+2      	; 0x1570 <isDifferent+0x50>
    156e:	82 60       	ori	r24, 0x02	; 2
    1570:	22 81       	ldd	r18, Z+2	; 0x02
    1572:	12 96       	adiw	r26, 0x02	; 2
    1574:	9c 91       	ld	r25, X
    1576:	12 97       	sbiw	r26, 0x02	; 2
    1578:	29 13       	cpse	r18, r25
    157a:	84 60       	ori	r24, 0x04	; 4
    157c:	08 95       	ret

0000157e <drawValues>:
    157e:	ef 92       	push	r14
    1580:	ff 92       	push	r15
    1582:	0f 93       	push	r16
    1584:	1f 93       	push	r17
    1586:	cf 93       	push	r28
    1588:	df 93       	push	r29
    158a:	83 e0       	ldi	r24, 0x03	; 3
    158c:	64 e1       	ldi	r22, 0x14	; 20
    158e:	43 e2       	ldi	r20, 0x23	; 35
    1590:	24 e1       	ldi	r18, 0x14	; 20
    1592:	00 e0       	ldi	r16, 0x00	; 0
    1594:	0e 94 44 10 	call	0x2088	; 0x2088 <ks0108FillRect>
    1598:	83 e0       	ldi	r24, 0x03	; 3
    159a:	64 e1       	ldi	r22, 0x14	; 20
    159c:	0e 94 02 0d 	call	0x1a04	; 0x1a04 <ks0108GotoXY>
    15a0:	ca e5       	ldi	r28, 0x5A	; 90
    15a2:	dc e0       	ldi	r29, 0x0C	; 12
    15a4:	88 e6       	ldi	r24, 0x68	; 104
    15a6:	90 e0       	ldi	r25, 0x00	; 0
    15a8:	be 01       	movw	r22, r28
    15aa:	4f ef       	ldi	r20, 0xFF	; 255
    15ac:	0e 94 5d 0c 	call	0x18ba	; 0x18ba <ks0108SelectFont>
    15b0:	04 e6       	ldi	r16, 0x64	; 100
    15b2:	11 e0       	ldi	r17, 0x01	; 1
    15b4:	c8 01       	movw	r24, r16
    15b6:	0e 94 a2 0c 	call	0x1944	; 0x1944 <ks0108StringWidth>
    15ba:	f8 2e       	mov	r15, r24
    15bc:	c8 01       	movw	r24, r16
    15be:	0e 94 4c 0f 	call	0x1e98	; 0x1e98 <ks0108Puts>
    15c2:	8f 2d       	mov	r24, r15
    15c4:	8b 5f       	subi	r24, 0xFB	; 251
    15c6:	61 e1       	ldi	r22, 0x11	; 17
    15c8:	46 e0       	ldi	r20, 0x06	; 6
    15ca:	26 e0       	ldi	r18, 0x06	; 6
    15cc:	03 e0       	ldi	r16, 0x03	; 3
    15ce:	ee 24       	eor	r14, r14
    15d0:	ea 94       	dec	r14
    15d2:	0e 94 f8 10 	call	0x21f0	; 0x21f0 <ks0108DrawRoundRect>
    15d6:	8f 2d       	mov	r24, r15
    15d8:	8a 5f       	subi	r24, 0xFA	; 250
    15da:	62 e1       	ldi	r22, 0x12	; 18
    15dc:	44 e0       	ldi	r20, 0x04	; 4
    15de:	24 e0       	ldi	r18, 0x04	; 4
    15e0:	02 e0       	ldi	r16, 0x02	; 2
    15e2:	0e 94 f8 10 	call	0x21f0	; 0x21f0 <ks0108DrawRoundRect>
    15e6:	86 e4       	ldi	r24, 0x46	; 70
    15e8:	93 e0       	ldi	r25, 0x03	; 3
    15ea:	be 01       	movw	r22, r28
    15ec:	4f ef       	ldi	r20, 0xFF	; 255
    15ee:	0e 94 5d 0c 	call	0x18ba	; 0x18ba <ks0108SelectFont>
    15f2:	c9 e6       	ldi	r28, 0x69	; 105
    15f4:	d1 e0       	ldi	r29, 0x01	; 1
    15f6:	ce 01       	movw	r24, r28
    15f8:	0e 94 a2 0c 	call	0x1944	; 0x1944 <ks0108StringWidth>
    15fc:	18 2f       	mov	r17, r24
    15fe:	48 2f       	mov	r20, r24
    1600:	4c 5f       	subi	r20, 0xFC	; 252
    1602:	82 e4       	ldi	r24, 0x42	; 66
    1604:	64 e1       	ldi	r22, 0x14	; 20
    1606:	2e e0       	ldi	r18, 0x0E	; 14
    1608:	00 e0       	ldi	r16, 0x00	; 0
    160a:	0e 94 44 10 	call	0x2088	; 0x2088 <ks0108FillRect>
    160e:	82 e4       	ldi	r24, 0x42	; 66
    1610:	64 e1       	ldi	r22, 0x14	; 20
    1612:	0e 94 02 0d 	call	0x1a04	; 0x1a04 <ks0108GotoXY>
    1616:	ce 01       	movw	r24, r28
    1618:	0e 94 4c 0f 	call	0x1e98	; 0x1e98 <ks0108Puts>
    161c:	81 2f       	mov	r24, r17
    161e:	8c 5b       	subi	r24, 0xBC	; 188
    1620:	62 e1       	ldi	r22, 0x12	; 18
    1622:	44 e0       	ldi	r20, 0x04	; 4
    1624:	24 e0       	ldi	r18, 0x04	; 4
    1626:	02 e0       	ldi	r16, 0x02	; 2
    1628:	0e 94 f8 10 	call	0x21f0	; 0x21f0 <ks0108DrawRoundRect>
    162c:	df 91       	pop	r29
    162e:	cf 91       	pop	r28
    1630:	1f 91       	pop	r17
    1632:	0f 91       	pop	r16
    1634:	ff 90       	pop	r15
    1636:	ef 90       	pop	r14
    1638:	08 95       	ret

0000163a <drawMainScreenButtons>:
    163a:	0f 93       	push	r16
    163c:	1f 93       	push	r17
    163e:	18 2f       	mov	r17, r24
    1640:	80 e5       	ldi	r24, 0x50	; 80
    1642:	64 e2       	ldi	r22, 0x24	; 36
    1644:	4c e0       	ldi	r20, 0x0C	; 12
    1646:	28 e0       	ldi	r18, 0x08	; 8
    1648:	00 e0       	ldi	r16, 0x00	; 0
    164a:	0e 94 44 10 	call	0x2088	; 0x2088 <ks0108FillRect>
    164e:	80 e4       	ldi	r24, 0x40	; 64
    1650:	64 e2       	ldi	r22, 0x24	; 36
    1652:	4c e0       	ldi	r20, 0x0C	; 12
    1654:	28 e0       	ldi	r18, 0x08	; 8
    1656:	0e 94 44 10 	call	0x2088	; 0x2088 <ks0108FillRect>
    165a:	80 e6       	ldi	r24, 0x60	; 96
    165c:	64 e2       	ldi	r22, 0x24	; 36
    165e:	4c e0       	ldi	r20, 0x0C	; 12
    1660:	28 e0       	ldi	r18, 0x08	; 8
    1662:	0e 94 44 10 	call	0x2088	; 0x2088 <ks0108FillRect>
    1666:	80 e5       	ldi	r24, 0x50	; 80
    1668:	64 e2       	ldi	r22, 0x24	; 36
    166a:	4c e0       	ldi	r20, 0x0C	; 12
    166c:	28 e0       	ldi	r18, 0x08	; 8
    166e:	0f ef       	ldi	r16, 0xFF	; 255
    1670:	0e 94 d3 11 	call	0x23a6	; 0x23a6 <ks0108DrawRect>
    1674:	80 e4       	ldi	r24, 0x40	; 64
    1676:	64 e2       	ldi	r22, 0x24	; 36
    1678:	4c e0       	ldi	r20, 0x0C	; 12
    167a:	28 e0       	ldi	r18, 0x08	; 8
    167c:	0e 94 d3 11 	call	0x23a6	; 0x23a6 <ks0108DrawRect>
    1680:	80 e6       	ldi	r24, 0x60	; 96
    1682:	64 e2       	ldi	r22, 0x24	; 36
    1684:	4c e0       	ldi	r20, 0x0C	; 12
    1686:	28 e0       	ldi	r18, 0x08	; 8
    1688:	0e 94 d3 11 	call	0x23a6	; 0x23a6 <ks0108DrawRect>
    168c:	84 e4       	ldi	r24, 0x44	; 68
    168e:	68 e2       	ldi	r22, 0x28	; 40
    1690:	48 e4       	ldi	r20, 0x48	; 72
    1692:	28 e2       	ldi	r18, 0x28	; 40
    1694:	0e 94 fb 11 	call	0x23f6	; 0x23f6 <ks0108DrawLine>
    1698:	84 e5       	ldi	r24, 0x54	; 84
    169a:	68 e2       	ldi	r22, 0x28	; 40
    169c:	48 e5       	ldi	r20, 0x58	; 88
    169e:	28 e2       	ldi	r18, 0x28	; 40
    16a0:	0e 94 fb 11 	call	0x23f6	; 0x23f6 <ks0108DrawLine>
    16a4:	86 e5       	ldi	r24, 0x56	; 86
    16a6:	66 e2       	ldi	r22, 0x26	; 38
    16a8:	46 e5       	ldi	r20, 0x56	; 86
    16aa:	2a e2       	ldi	r18, 0x2A	; 42
    16ac:	0e 94 fb 11 	call	0x23f6	; 0x23f6 <ks0108DrawLine>
    16b0:	80 91 7a 01 	lds	r24, 0x017A
    16b4:	85 ff       	sbrs	r24, 5
    16b6:	13 c0       	rjmp	.+38     	; 0x16de <drawMainScreenButtons+0xa4>
    16b8:	81 e6       	ldi	r24, 0x61	; 97
    16ba:	6b e2       	ldi	r22, 0x2B	; 43
    16bc:	4a e0       	ldi	r20, 0x0A	; 10
    16be:	22 e0       	ldi	r18, 0x02	; 2
    16c0:	00 e0       	ldi	r16, 0x00	; 0
    16c2:	0e 94 44 10 	call	0x2088	; 0x2088 <ks0108FillRect>
    16c6:	84 e6       	ldi	r24, 0x64	; 100
    16c8:	69 e2       	ldi	r22, 0x29	; 41
    16ca:	46 e6       	ldi	r20, 0x66	; 102
    16cc:	27 e2       	ldi	r18, 0x27	; 39
    16ce:	0f ef       	ldi	r16, 0xFF	; 255
    16d0:	0e 94 fb 11 	call	0x23f6	; 0x23f6 <ks0108DrawLine>
    16d4:	88 e6       	ldi	r24, 0x68	; 104
    16d6:	69 e2       	ldi	r22, 0x29	; 41
    16d8:	46 e6       	ldi	r20, 0x66	; 102
    16da:	27 e2       	ldi	r18, 0x27	; 39
    16dc:	0b c0       	rjmp	.+22     	; 0x16f4 <drawMainScreenButtons+0xba>
    16de:	84 e6       	ldi	r24, 0x64	; 100
    16e0:	67 e2       	ldi	r22, 0x27	; 39
    16e2:	46 e6       	ldi	r20, 0x66	; 102
    16e4:	29 e2       	ldi	r18, 0x29	; 41
    16e6:	0f ef       	ldi	r16, 0xFF	; 255
    16e8:	0e 94 fb 11 	call	0x23f6	; 0x23f6 <ks0108DrawLine>
    16ec:	88 e6       	ldi	r24, 0x68	; 104
    16ee:	67 e2       	ldi	r22, 0x27	; 39
    16f0:	46 e6       	ldi	r20, 0x66	; 102
    16f2:	29 e2       	ldi	r18, 0x29	; 41
    16f4:	0e 94 fb 11 	call	0x23f6	; 0x23f6 <ks0108DrawLine>
    16f8:	11 30       	cpi	r17, 0x01	; 1
    16fa:	11 f4       	brne	.+4      	; 0x1700 <drawMainScreenButtons+0xc6>
    16fc:	80 e5       	ldi	r24, 0x50	; 80
    16fe:	07 c0       	rjmp	.+14     	; 0x170e <drawMainScreenButtons+0xd4>
    1700:	12 30       	cpi	r17, 0x02	; 2
    1702:	11 f4       	brne	.+4      	; 0x1708 <drawMainScreenButtons+0xce>
    1704:	80 e4       	ldi	r24, 0x40	; 64
    1706:	03 c0       	rjmp	.+6      	; 0x170e <drawMainScreenButtons+0xd4>
    1708:	13 30       	cpi	r17, 0x03	; 3
    170a:	31 f4       	brne	.+12     	; 0x1718 <drawMainScreenButtons+0xde>
    170c:	80 e6       	ldi	r24, 0x60	; 96
    170e:	64 e2       	ldi	r22, 0x24	; 36
    1710:	4c e0       	ldi	r20, 0x0C	; 12
    1712:	28 e0       	ldi	r18, 0x08	; 8
    1714:	0e 94 ab 0f 	call	0x1f56	; 0x1f56 <ks0108InvertRect>
    1718:	1f 91       	pop	r17
    171a:	0f 91       	pop	r16
    171c:	08 95       	ret

0000171e <drawMainScreen>:
    171e:	82 e5       	ldi	r24, 0x52	; 82
    1720:	98 e0       	ldi	r25, 0x08	; 8
    1722:	6a e5       	ldi	r22, 0x5A	; 90
    1724:	7c e0       	ldi	r23, 0x0C	; 12
    1726:	4f ef       	ldi	r20, 0xFF	; 255
    1728:	0e 94 5d 0c 	call	0x18ba	; 0x18ba <ks0108SelectFont>
    172c:	0e 94 f4 09 	call	0x13e8	; 0x13e8 <drawMenuHeader>
    1730:	0e 94 bf 0a 	call	0x157e	; 0x157e <drawValues>
    1734:	0e 94 4e 0a 	call	0x149c	; 0x149c <drawPresetActive>
    1738:	80 e0       	ldi	r24, 0x00	; 0
    173a:	0e 94 1d 0b 	call	0x163a	; 0x163a <drawMainScreenButtons>
    173e:	80 e4       	ldi	r24, 0x40	; 64
    1740:	80 93 43 01 	sts	0x0143, r24
    1744:	24 e2       	ldi	r18, 0x24	; 36
    1746:	20 93 44 01 	sts	0x0144, r18
    174a:	9c e0       	ldi	r25, 0x0C	; 12
    174c:	90 93 45 01 	sts	0x0145, r25
    1750:	88 e0       	ldi	r24, 0x08	; 8
    1752:	80 93 46 01 	sts	0x0146, r24
    1756:	30 e5       	ldi	r19, 0x50	; 80
    1758:	30 93 3f 01 	sts	0x013F, r19
    175c:	20 93 40 01 	sts	0x0140, r18
    1760:	90 93 41 01 	sts	0x0141, r25
    1764:	80 93 42 01 	sts	0x0142, r24
    1768:	30 e6       	ldi	r19, 0x60	; 96
    176a:	30 93 33 01 	sts	0x0133, r19
    176e:	20 93 34 01 	sts	0x0134, r18
    1772:	90 93 35 01 	sts	0x0135, r25
    1776:	80 93 36 01 	sts	0x0136, r24
    177a:	08 95       	ret

0000177c <turnLcdOn>:
    177c:	df 93       	push	r29
    177e:	cf 93       	push	r28
    1780:	00 d0       	rcall	.+0      	; 0x1782 <turnLcdOn+0x6>
    1782:	cd b7       	in	r28, 0x3d	; 61
    1784:	de b7       	in	r29, 0x3e	; 62
    1786:	5d 9a       	sbi	0x0b, 5	; 11
    1788:	80 91 7a 01 	lds	r24, 0x017A
    178c:	82 60       	ori	r24, 0x02	; 2
    178e:	80 93 7a 01 	sts	0x017A, r24
    1792:	1a 82       	std	Y+2, r1	; 0x02
    1794:	19 82       	std	Y+1, r1	; 0x01
    1796:	05 c0       	rjmp	.+10     	; 0x17a2 <turnLcdOn+0x26>
    1798:	89 81       	ldd	r24, Y+1	; 0x01
    179a:	9a 81       	ldd	r25, Y+2	; 0x02
    179c:	01 96       	adiw	r24, 0x01	; 1
    179e:	9a 83       	std	Y+2, r25	; 0x02
    17a0:	89 83       	std	Y+1, r24	; 0x01
    17a2:	89 81       	ldd	r24, Y+1	; 0x01
    17a4:	9a 81       	ldd	r25, Y+2	; 0x02
    17a6:	2a e3       	ldi	r18, 0x3A	; 58
    17a8:	88 39       	cpi	r24, 0x98	; 152
    17aa:	92 07       	cpc	r25, r18
    17ac:	a8 f3       	brcs	.-22     	; 0x1798 <turnLcdOn+0x1c>
    17ae:	80 e0       	ldi	r24, 0x00	; 0
    17b0:	0e 94 d0 10 	call	0x21a0	; 0x21a0 <ks0108Init>
    17b4:	0e 94 8f 0b 	call	0x171e	; 0x171e <drawMainScreen>
    17b8:	0f 90       	pop	r0
    17ba:	0f 90       	pop	r0
    17bc:	cf 91       	pop	r28
    17be:	df 91       	pop	r29
    17c0:	08 95       	ret

000017c2 <turnLcdOff>:
    17c2:	5d 98       	cbi	0x0b, 5	; 11
    17c4:	80 91 7a 01 	lds	r24, 0x017A
    17c8:	8d 7f       	andi	r24, 0xFD	; 253
    17ca:	80 93 7a 01 	sts	0x017A, r24
    17ce:	08 95       	ret

000017d0 <readPos>:
    17d0:	df 92       	push	r13
    17d2:	ef 92       	push	r14
    17d4:	ff 92       	push	r15
    17d6:	0f 93       	push	r16
    17d8:	1f 93       	push	r17
    17da:	df 93       	push	r29
    17dc:	cf 93       	push	r28
    17de:	00 d0       	rcall	.+0      	; 0x17e0 <readPos+0x10>
    17e0:	0f 92       	push	r0
    17e2:	cd b7       	in	r28, 0x3d	; 61
    17e4:	de b7       	in	r29, 0x3e	; 62
    17e6:	87 b1       	in	r24, 0x07	; 7
    17e8:	80 7f       	andi	r24, 0xF0	; 240
    17ea:	87 b9       	out	0x07, r24	; 7
    17ec:	87 b1       	in	r24, 0x07	; 7
    17ee:	85 60       	ori	r24, 0x05	; 5
    17f0:	87 b9       	out	0x07, r24	; 7
    17f2:	88 b1       	in	r24, 0x08	; 8
    17f4:	80 7f       	andi	r24, 0xF0	; 240
    17f6:	88 b9       	out	0x08, r24	; 8
    17f8:	42 9a       	sbi	0x08, 2	; 8
    17fa:	81 e0       	ldi	r24, 0x01	; 1
    17fc:	0e 94 50 13 	call	0x26a0	; 0x26a0 <read_adc>
    1800:	08 2f       	mov	r16, r24
    1802:	83 e0       	ldi	r24, 0x03	; 3
    1804:	0e 94 50 13 	call	0x26a0	; 0x26a0 <read_adc>
    1808:	e8 2e       	mov	r14, r24
    180a:	60 2f       	mov	r22, r16
    180c:	66 51       	subi	r22, 0x16	; 22
    180e:	70 e0       	ldi	r23, 0x00	; 0
    1810:	88 27       	eor	r24, r24
    1812:	77 fd       	sbrc	r23, 7
    1814:	80 95       	com	r24
    1816:	98 2f       	mov	r25, r24
    1818:	0e 94 ba 17 	call	0x2f74	; 0x2f74 <__floatsisf>
    181c:	20 e0       	ldi	r18, 0x00	; 0
    181e:	30 e0       	ldi	r19, 0x00	; 0
    1820:	48 ec       	ldi	r20, 0xC8	; 200
    1822:	5f e3       	ldi	r21, 0x3F	; 63
    1824:	0e 94 24 17 	call	0x2e48	; 0x2e48 <__divsf3>
    1828:	0e 94 8c 17 	call	0x2f18	; 0x2f18 <__fixunssfsi>
    182c:	f6 2e       	mov	r15, r22
    182e:	87 b1       	in	r24, 0x07	; 7
    1830:	80 7f       	andi	r24, 0xF0	; 240
    1832:	87 b9       	out	0x07, r24	; 7
    1834:	87 b1       	in	r24, 0x07	; 7
    1836:	8a 60       	ori	r24, 0x0A	; 10
    1838:	87 b9       	out	0x07, r24	; 7
    183a:	88 b1       	in	r24, 0x08	; 8
    183c:	80 7f       	andi	r24, 0xF0	; 240
    183e:	88 b9       	out	0x08, r24	; 8
    1840:	43 9a       	sbi	0x08, 3	; 8
    1842:	80 e0       	ldi	r24, 0x00	; 0
    1844:	0e 94 50 13 	call	0x26a0	; 0x26a0 <read_adc>
    1848:	18 2f       	mov	r17, r24
    184a:	10 95       	com	r17
    184c:	82 e0       	ldi	r24, 0x02	; 2
    184e:	0e 94 50 13 	call	0x26a0	; 0x26a0 <read_adc>
    1852:	d8 2e       	mov	r13, r24
    1854:	61 2f       	mov	r22, r17
    1856:	68 52       	subi	r22, 0x28	; 40
    1858:	70 e0       	ldi	r23, 0x00	; 0
    185a:	88 27       	eor	r24, r24
    185c:	77 fd       	sbrc	r23, 7
    185e:	80 95       	com	r24
    1860:	98 2f       	mov	r25, r24
    1862:	0e 94 ba 17 	call	0x2f74	; 0x2f74 <__floatsisf>
    1866:	20 e0       	ldi	r18, 0x00	; 0
    1868:	30 e0       	ldi	r19, 0x00	; 0
    186a:	41 e3       	ldi	r20, 0x31	; 49
    186c:	50 e4       	ldi	r21, 0x40	; 64
    186e:	0e 94 24 17 	call	0x2e48	; 0x2e48 <__divsf3>
    1872:	0e 94 8c 17 	call	0x2f18	; 0x2f18 <__fixunssfsi>
    1876:	76 2f       	mov	r23, r22
    1878:	8e 2d       	mov	r24, r14
    187a:	90 e0       	ldi	r25, 0x00	; 0
    187c:	80 1b       	sub	r24, r16
    187e:	91 09       	sbc	r25, r1
    1880:	84 30       	cpi	r24, 0x04	; 4
    1882:	91 05       	cpc	r25, r1
    1884:	4c f4       	brge	.+18     	; 0x1898 <readPos+0xc8>
    1886:	d0 94       	com	r13
    1888:	2d 2d       	mov	r18, r13
    188a:	30 e0       	ldi	r19, 0x00	; 0
    188c:	21 1b       	sub	r18, r17
    188e:	31 09       	sbc	r19, r1
    1890:	81 e0       	ldi	r24, 0x01	; 1
    1892:	24 30       	cpi	r18, 0x04	; 4
    1894:	31 05       	cpc	r19, r1
    1896:	0c f0       	brlt	.+2      	; 0x189a <readPos+0xca>
    1898:	80 e0       	ldi	r24, 0x00	; 0
    189a:	6f 2d       	mov	r22, r15
    189c:	90 e0       	ldi	r25, 0x00	; 0
    189e:	0f 90       	pop	r0
    18a0:	0f 90       	pop	r0
    18a2:	0f 90       	pop	r0
    18a4:	cf 91       	pop	r28
    18a6:	df 91       	pop	r29
    18a8:	1f 91       	pop	r17
    18aa:	0f 91       	pop	r16
    18ac:	ff 90       	pop	r15
    18ae:	ef 90       	pop	r14
    18b0:	df 90       	pop	r13
    18b2:	08 95       	ret

000018b4 <ks0108ReadFontData>:
    18b4:	fc 01       	movw	r30, r24
    18b6:	84 91       	lpm	r24, Z+
    18b8:	08 95       	ret

000018ba <ks0108SelectFont>:
    18ba:	90 93 4e 01 	sts	0x014E, r25
    18be:	80 93 4d 01 	sts	0x014D, r24
    18c2:	70 93 4c 01 	sts	0x014C, r23
    18c6:	60 93 4b 01 	sts	0x014B, r22
    18ca:	40 93 47 01 	sts	0x0147, r20
    18ce:	08 95       	ret

000018d0 <ks0108CharWidth>:
    18d0:	0f 93       	push	r16
    18d2:	1f 93       	push	r17
    18d4:	08 2f       	mov	r16, r24
    18d6:	20 91 4d 01 	lds	r18, 0x014D
    18da:	30 91 4e 01 	lds	r19, 0x014E
    18de:	e0 91 4b 01 	lds	r30, 0x014B
    18e2:	f0 91 4c 01 	lds	r31, 0x014C
    18e6:	c9 01       	movw	r24, r18
    18e8:	04 96       	adiw	r24, 0x04	; 4
    18ea:	09 95       	icall
    18ec:	18 2f       	mov	r17, r24
    18ee:	20 91 4d 01 	lds	r18, 0x014D
    18f2:	30 91 4e 01 	lds	r19, 0x014E
    18f6:	e0 91 4b 01 	lds	r30, 0x014B
    18fa:	f0 91 4c 01 	lds	r31, 0x014C
    18fe:	c9 01       	movw	r24, r18
    1900:	05 96       	adiw	r24, 0x05	; 5
    1902:	09 95       	icall
    1904:	01 17       	cp	r16, r17
    1906:	d0 f0       	brcs	.+52     	; 0x193c <ks0108CharWidth+0x6c>
    1908:	40 2f       	mov	r20, r16
    190a:	50 e0       	ldi	r21, 0x00	; 0
    190c:	21 2f       	mov	r18, r17
    190e:	30 e0       	ldi	r19, 0x00	; 0
    1910:	28 0f       	add	r18, r24
    1912:	31 1d       	adc	r19, r1
    1914:	42 17       	cp	r20, r18
    1916:	53 07       	cpc	r21, r19
    1918:	8c f4       	brge	.+34     	; 0x193c <ks0108CharWidth+0x6c>
    191a:	01 1b       	sub	r16, r17
    191c:	80 2f       	mov	r24, r16
    191e:	90 e0       	ldi	r25, 0x00	; 0
    1920:	06 96       	adiw	r24, 0x06	; 6
    1922:	20 91 4d 01 	lds	r18, 0x014D
    1926:	30 91 4e 01 	lds	r19, 0x014E
    192a:	e0 91 4b 01 	lds	r30, 0x014B
    192e:	f0 91 4c 01 	lds	r31, 0x014C
    1932:	82 0f       	add	r24, r18
    1934:	93 1f       	adc	r25, r19
    1936:	09 95       	icall
    1938:	8f 5f       	subi	r24, 0xFF	; 255
    193a:	01 c0       	rjmp	.+2      	; 0x193e <ks0108CharWidth+0x6e>
    193c:	80 e0       	ldi	r24, 0x00	; 0
    193e:	1f 91       	pop	r17
    1940:	0f 91       	pop	r16
    1942:	08 95       	ret

00001944 <ks0108StringWidth>:
    1944:	ef 92       	push	r14
    1946:	ff 92       	push	r15
    1948:	0f 93       	push	r16
    194a:	1f 93       	push	r17
    194c:	cf 93       	push	r28
    194e:	df 93       	push	r29
    1950:	08 2f       	mov	r16, r24
    1952:	19 2f       	mov	r17, r25
    1954:	c0 e0       	ldi	r28, 0x00	; 0
    1956:	d0 e0       	ldi	r29, 0x00	; 0
    1958:	04 c0       	rjmp	.+8      	; 0x1962 <ks0108StringWidth+0x1e>
    195a:	0e 94 68 0c 	call	0x18d0	; 0x18d0 <ks0108CharWidth>
    195e:	c8 0f       	add	r28, r24
    1960:	d1 1d       	adc	r29, r1
    1962:	f8 01       	movw	r30, r16
    1964:	81 91       	ld	r24, Z+
    1966:	8f 01       	movw	r16, r30
    1968:	88 23       	and	r24, r24
    196a:	b9 f7       	brne	.-18     	; 0x195a <ks0108StringWidth+0x16>
    196c:	ce 01       	movw	r24, r28
    196e:	df 91       	pop	r29
    1970:	cf 91       	pop	r28
    1972:	1f 91       	pop	r17
    1974:	0f 91       	pop	r16
    1976:	ff 90       	pop	r15
    1978:	ef 90       	pop	r14
    197a:	08 95       	ret

0000197c <ks0108StringWidth_P>:
    197c:	ef 92       	push	r14
    197e:	ff 92       	push	r15
    1980:	0f 93       	push	r16
    1982:	1f 93       	push	r17
    1984:	cf 93       	push	r28
    1986:	df 93       	push	r29
    1988:	8c 01       	movw	r16, r24
    198a:	c0 e0       	ldi	r28, 0x00	; 0
    198c:	d0 e0       	ldi	r29, 0x00	; 0
    198e:	08 c0       	rjmp	.+16     	; 0x19a0 <ks0108StringWidth_P+0x24>
    1990:	0f 5f       	subi	r16, 0xFF	; 255
    1992:	1f 4f       	sbci	r17, 0xFF	; 255
    1994:	fc 01       	movw	r30, r24
    1996:	84 91       	lpm	r24, Z+
    1998:	0e 94 68 0c 	call	0x18d0	; 0x18d0 <ks0108CharWidth>
    199c:	c8 0f       	add	r28, r24
    199e:	d1 1d       	adc	r29, r1
    19a0:	c8 01       	movw	r24, r16
    19a2:	f8 01       	movw	r30, r16
    19a4:	24 91       	lpm	r18, Z+
    19a6:	22 23       	and	r18, r18
    19a8:	99 f7       	brne	.-26     	; 0x1990 <ks0108StringWidth_P+0x14>
    19aa:	ce 01       	movw	r24, r28
    19ac:	df 91       	pop	r29
    19ae:	cf 91       	pop	r28
    19b0:	1f 91       	pop	r17
    19b2:	0f 91       	pop	r16
    19b4:	ff 90       	pop	r15
    19b6:	ef 90       	pop	r14
    19b8:	08 95       	ret

000019ba <ks0108WriteCommand>:
    19ba:	df 93       	push	r29
    19bc:	cf 93       	push	r28
    19be:	0f 92       	push	r0
    19c0:	cd b7       	in	r28, 0x3d	; 61
    19c2:	de b7       	in	r29, 0x3e	; 62
    19c4:	66 23       	and	r22, r22
    19c6:	19 f4       	brne	.+6      	; 0x19ce <ks0108WriteCommand+0x14>
    19c8:	5c 98       	cbi	0x0b, 4	; 11
    19ca:	5b 9a       	sbi	0x0b, 3	; 11
    19cc:	04 c0       	rjmp	.+8      	; 0x19d6 <ks0108WriteCommand+0x1c>
    19ce:	61 30       	cpi	r22, 0x01	; 1
    19d0:	11 f4       	brne	.+4      	; 0x19d6 <ks0108WriteCommand+0x1c>
    19d2:	5b 98       	cbi	0x0b, 3	; 11
    19d4:	5c 9a       	sbi	0x0b, 4	; 11
    19d6:	5e 98       	cbi	0x0b, 6	; 11
    19d8:	5f 98       	cbi	0x0b, 7	; 11
    19da:	9f ef       	ldi	r25, 0xFF	; 255
    19dc:	94 b9       	out	0x04, r25	; 4
    19de:	85 b9       	out	0x05, r24	; 5
    19e0:	5a 9a       	sbi	0x0b, 2	; 11
    19e2:	00 00       	nop
    19e4:	00 00       	nop
    19e6:	00 00       	nop
    19e8:	5a 98       	cbi	0x0b, 2	; 11
    19ea:	19 82       	std	Y+1, r1	; 0x01
    19ec:	03 c0       	rjmp	.+6      	; 0x19f4 <ks0108WriteCommand+0x3a>
    19ee:	89 81       	ldd	r24, Y+1	; 0x01
    19f0:	8f 5f       	subi	r24, 0xFF	; 255
    19f2:	89 83       	std	Y+1, r24	; 0x01
    19f4:	89 81       	ldd	r24, Y+1	; 0x01
    19f6:	88 30       	cpi	r24, 0x08	; 8
    19f8:	d0 f3       	brcs	.-12     	; 0x19ee <ks0108WriteCommand+0x34>
    19fa:	15 b8       	out	0x05, r1	; 5
    19fc:	0f 90       	pop	r0
    19fe:	cf 91       	pop	r28
    1a00:	df 91       	pop	r29
    1a02:	08 95       	ret

00001a04 <ks0108GotoXY>:
    1a04:	1f 93       	push	r17
    1a06:	87 fd       	sbrc	r24, 7
    1a08:	80 e0       	ldi	r24, 0x00	; 0
    1a0a:	60 34       	cpi	r22, 0x40	; 64
    1a0c:	08 f0       	brcs	.+2      	; 0x1a10 <ks0108GotoXY+0xc>
    1a0e:	60 e0       	ldi	r22, 0x00	; 0
    1a10:	80 93 48 01 	sts	0x0148, r24
    1a14:	60 93 49 01 	sts	0x0149, r22
    1a18:	66 95       	lsr	r22
    1a1a:	66 95       	lsr	r22
    1a1c:	66 95       	lsr	r22
    1a1e:	60 93 4a 01 	sts	0x014A, r22
    1a22:	80 34       	cpi	r24, 0x40	; 64
    1a24:	18 f0       	brcs	.+6      	; 0x1a2c <ks0108GotoXY+0x28>
    1a26:	80 54       	subi	r24, 0x40	; 64
    1a28:	61 e0       	ldi	r22, 0x01	; 1
    1a2a:	01 c0       	rjmp	.+2      	; 0x1a2e <ks0108GotoXY+0x2a>
    1a2c:	60 e0       	ldi	r22, 0x00	; 0
    1a2e:	80 64       	ori	r24, 0x40	; 64
    1a30:	0e 94 dd 0c 	call	0x19ba	; 0x19ba <ks0108WriteCommand>
    1a34:	10 91 4a 01 	lds	r17, 0x014A
    1a38:	18 6b       	ori	r17, 0xB8	; 184
    1a3a:	81 2f       	mov	r24, r17
    1a3c:	60 e0       	ldi	r22, 0x00	; 0
    1a3e:	0e 94 dd 0c 	call	0x19ba	; 0x19ba <ks0108WriteCommand>
    1a42:	81 2f       	mov	r24, r17
    1a44:	61 e0       	ldi	r22, 0x01	; 1
    1a46:	0e 94 dd 0c 	call	0x19ba	; 0x19ba <ks0108WriteCommand>
    1a4a:	1f 91       	pop	r17
    1a4c:	08 95       	ret

00001a4e <ks0108DoReadData>:
    1a4e:	1f 93       	push	r17
    1a50:	df 93       	push	r29
    1a52:	cf 93       	push	r28
    1a54:	0f 92       	push	r0
    1a56:	cd b7       	in	r28, 0x3d	; 61
    1a58:	de b7       	in	r29, 0x3e	; 62
    1a5a:	15 b8       	out	0x05, r1	; 5
    1a5c:	14 b8       	out	0x04, r1	; 4
    1a5e:	90 91 48 01 	lds	r25, 0x0148
    1a62:	90 34       	cpi	r25, 0x40	; 64
    1a64:	18 f4       	brcc	.+6      	; 0x1a6c <ks0108DoReadData+0x1e>
    1a66:	5c 98       	cbi	0x0b, 4	; 11
    1a68:	5b 9a       	sbi	0x0b, 3	; 11
    1a6a:	02 c0       	rjmp	.+4      	; 0x1a70 <ks0108DoReadData+0x22>
    1a6c:	5b 98       	cbi	0x0b, 3	; 11
    1a6e:	5c 9a       	sbi	0x0b, 4	; 11
    1a70:	90 91 48 01 	lds	r25, 0x0148
    1a74:	90 34       	cpi	r25, 0x40	; 64
    1a76:	31 f4       	brne	.+12     	; 0x1a84 <ks0108DoReadData+0x36>
    1a78:	88 23       	and	r24, r24
    1a7a:	21 f0       	breq	.+8      	; 0x1a84 <ks0108DoReadData+0x36>
    1a7c:	80 e4       	ldi	r24, 0x40	; 64
    1a7e:	61 e0       	ldi	r22, 0x01	; 1
    1a80:	0e 94 dd 0c 	call	0x19ba	; 0x19ba <ks0108WriteCommand>
    1a84:	5e 9a       	sbi	0x0b, 6	; 11
    1a86:	5f 9a       	sbi	0x0b, 7	; 11
    1a88:	5a 9a       	sbi	0x0b, 2	; 11
    1a8a:	00 00       	nop
    1a8c:	00 00       	nop
    1a8e:	00 00       	nop
    1a90:	13 b1       	in	r17, 0x03	; 3
    1a92:	5a 98       	cbi	0x0b, 2	; 11
    1a94:	19 82       	std	Y+1, r1	; 0x01
    1a96:	03 c0       	rjmp	.+6      	; 0x1a9e <ks0108DoReadData+0x50>
    1a98:	89 81       	ldd	r24, Y+1	; 0x01
    1a9a:	8f 5f       	subi	r24, 0xFF	; 255
    1a9c:	89 83       	std	Y+1, r24	; 0x01
    1a9e:	89 81       	ldd	r24, Y+1	; 0x01
    1aa0:	88 30       	cpi	r24, 0x08	; 8
    1aa2:	d0 f3       	brcs	.-12     	; 0x1a98 <ks0108DoReadData+0x4a>
    1aa4:	8f ef       	ldi	r24, 0xFF	; 255
    1aa6:	84 b9       	out	0x04, r24	; 4
    1aa8:	80 91 48 01 	lds	r24, 0x0148
    1aac:	60 91 49 01 	lds	r22, 0x0149
    1ab0:	0e 94 02 0d 	call	0x1a04	; 0x1a04 <ks0108GotoXY>
    1ab4:	80 91 32 01 	lds	r24, 0x0132
    1ab8:	81 11       	cpse	r24, r1
    1aba:	10 95       	com	r17
    1abc:	81 2f       	mov	r24, r17
    1abe:	0f 90       	pop	r0
    1ac0:	cf 91       	pop	r28
    1ac2:	df 91       	pop	r29
    1ac4:	1f 91       	pop	r17
    1ac6:	08 95       	ret

00001ac8 <ks0108ReadData>:
    1ac8:	81 e0       	ldi	r24, 0x01	; 1
    1aca:	0e 94 27 0d 	call	0x1a4e	; 0x1a4e <ks0108DoReadData>
    1ace:	80 e0       	ldi	r24, 0x00	; 0
    1ad0:	0e 94 27 0d 	call	0x1a4e	; 0x1a4e <ks0108DoReadData>
    1ad4:	08 95       	ret

00001ad6 <ks0108WriteData>:
    1ad6:	df 92       	push	r13
    1ad8:	ef 92       	push	r14
    1ada:	ff 92       	push	r15
    1adc:	0f 93       	push	r16
    1ade:	1f 93       	push	r17
    1ae0:	df 93       	push	r29
    1ae2:	cf 93       	push	r28
    1ae4:	00 d0       	rcall	.+0      	; 0x1ae6 <ks0108WriteData+0x10>
    1ae6:	cd b7       	in	r28, 0x3d	; 61
    1ae8:	de b7       	in	r29, 0x3e	; 62
    1aea:	08 2f       	mov	r16, r24
    1aec:	80 91 48 01 	lds	r24, 0x0148
    1af0:	87 fd       	sbrc	r24, 7
    1af2:	83 c0       	rjmp	.+262    	; 0x1bfa <ks0108WriteData+0x124>
    1af4:	80 34       	cpi	r24, 0x40	; 64
    1af6:	18 f4       	brcc	.+6      	; 0x1afe <ks0108WriteData+0x28>
    1af8:	5c 98       	cbi	0x0b, 4	; 11
    1afa:	5b 9a       	sbi	0x0b, 3	; 11
    1afc:	02 c0       	rjmp	.+4      	; 0x1b02 <ks0108WriteData+0x2c>
    1afe:	5b 98       	cbi	0x0b, 3	; 11
    1b00:	5c 9a       	sbi	0x0b, 4	; 11
    1b02:	80 91 48 01 	lds	r24, 0x0148
    1b06:	80 34       	cpi	r24, 0x40	; 64
    1b08:	19 f4       	brne	.+6      	; 0x1b10 <ks0108WriteData+0x3a>
    1b0a:	61 e0       	ldi	r22, 0x01	; 1
    1b0c:	0e 94 dd 0c 	call	0x19ba	; 0x19ba <ks0108WriteCommand>
    1b10:	5e 9a       	sbi	0x0b, 6	; 11
    1b12:	5f 98       	cbi	0x0b, 7	; 11
    1b14:	1f ef       	ldi	r17, 0xFF	; 255
    1b16:	14 b9       	out	0x04, r17	; 4
    1b18:	20 91 49 01 	lds	r18, 0x0149
    1b1c:	27 70       	andi	r18, 0x07	; 7
    1b1e:	09 f4       	brne	.+2      	; 0x1b22 <ks0108WriteData+0x4c>
    1b20:	54 c0       	rjmp	.+168    	; 0x1bca <ks0108WriteData+0xf4>
    1b22:	db b0       	in	r13, 0x0b	; 11
    1b24:	2a 83       	std	Y+2, r18	; 0x02
    1b26:	0e 94 64 0d 	call	0x1ac8	; 0x1ac8 <ks0108ReadData>
    1b2a:	db b8       	out	0x0b, r13	; 11
    1b2c:	14 b9       	out	0x04, r17	; 4
    1b2e:	10 e0       	ldi	r17, 0x00	; 0
    1b30:	2a 81       	ldd	r18, Y+2	; 0x02
    1b32:	e2 2e       	mov	r14, r18
    1b34:	ff 24       	eor	r15, r15
    1b36:	a8 01       	movw	r20, r16
    1b38:	02 c0       	rjmp	.+4      	; 0x1b3e <ks0108WriteData+0x68>
    1b3a:	44 0f       	add	r20, r20
    1b3c:	55 1f       	adc	r21, r21
    1b3e:	2a 95       	dec	r18
    1b40:	e2 f7       	brpl	.-8      	; 0x1b3a <ks0108WriteData+0x64>
    1b42:	84 2b       	or	r24, r20
    1b44:	90 91 32 01 	lds	r25, 0x0132
    1b48:	91 11       	cpse	r25, r1
    1b4a:	80 95       	com	r24
    1b4c:	85 b9       	out	0x05, r24	; 5
    1b4e:	5a 9a       	sbi	0x0b, 2	; 11
    1b50:	00 00       	nop
    1b52:	00 00       	nop
    1b54:	00 00       	nop
    1b56:	5a 98       	cbi	0x0b, 2	; 11
    1b58:	19 82       	std	Y+1, r1	; 0x01
    1b5a:	03 c0       	rjmp	.+6      	; 0x1b62 <ks0108WriteData+0x8c>
    1b5c:	89 81       	ldd	r24, Y+1	; 0x01
    1b5e:	8f 5f       	subi	r24, 0xFF	; 255
    1b60:	89 83       	std	Y+1, r24	; 0x01
    1b62:	89 81       	ldd	r24, Y+1	; 0x01
    1b64:	88 30       	cpi	r24, 0x08	; 8
    1b66:	d0 f3       	brcs	.-12     	; 0x1b5c <ks0108WriteData+0x86>
    1b68:	60 91 49 01 	lds	r22, 0x0149
    1b6c:	68 5f       	subi	r22, 0xF8	; 248
    1b6e:	80 91 48 01 	lds	r24, 0x0148
    1b72:	0e 94 02 0d 	call	0x1a04	; 0x1a04 <ks0108GotoXY>
    1b76:	0e 94 64 0d 	call	0x1ac8	; 0x1ac8 <ks0108ReadData>
    1b7a:	db b8       	out	0x0b, r13	; 11
    1b7c:	9f ef       	ldi	r25, 0xFF	; 255
    1b7e:	94 b9       	out	0x04, r25	; 4
    1b80:	28 e0       	ldi	r18, 0x08	; 8
    1b82:	30 e0       	ldi	r19, 0x00	; 0
    1b84:	2e 19       	sub	r18, r14
    1b86:	3f 09       	sbc	r19, r15
    1b88:	02 c0       	rjmp	.+4      	; 0x1b8e <ks0108WriteData+0xb8>
    1b8a:	15 95       	asr	r17
    1b8c:	07 95       	ror	r16
    1b8e:	2a 95       	dec	r18
    1b90:	e2 f7       	brpl	.-8      	; 0x1b8a <ks0108WriteData+0xb4>
    1b92:	08 2b       	or	r16, r24
    1b94:	80 91 32 01 	lds	r24, 0x0132
    1b98:	81 11       	cpse	r24, r1
    1b9a:	00 95       	com	r16
    1b9c:	05 b9       	out	0x05, r16	; 5
    1b9e:	5a 9a       	sbi	0x0b, 2	; 11
    1ba0:	00 00       	nop
    1ba2:	00 00       	nop
    1ba4:	00 00       	nop
    1ba6:	5a 98       	cbi	0x0b, 2	; 11
    1ba8:	19 82       	std	Y+1, r1	; 0x01
    1baa:	03 c0       	rjmp	.+6      	; 0x1bb2 <ks0108WriteData+0xdc>
    1bac:	89 81       	ldd	r24, Y+1	; 0x01
    1bae:	8f 5f       	subi	r24, 0xFF	; 255
    1bb0:	89 83       	std	Y+1, r24	; 0x01
    1bb2:	89 81       	ldd	r24, Y+1	; 0x01
    1bb4:	88 30       	cpi	r24, 0x08	; 8
    1bb6:	d0 f3       	brcs	.-12     	; 0x1bac <ks0108WriteData+0xd6>
    1bb8:	80 91 48 01 	lds	r24, 0x0148
    1bbc:	60 91 49 01 	lds	r22, 0x0149
    1bc0:	68 50       	subi	r22, 0x08	; 8
    1bc2:	8f 5f       	subi	r24, 0xFF	; 255
    1bc4:	0e 94 02 0d 	call	0x1a04	; 0x1a04 <ks0108GotoXY>
    1bc8:	17 c0       	rjmp	.+46     	; 0x1bf8 <ks0108WriteData+0x122>
    1bca:	80 91 32 01 	lds	r24, 0x0132
    1bce:	81 11       	cpse	r24, r1
    1bd0:	00 95       	com	r16
    1bd2:	05 b9       	out	0x05, r16	; 5
    1bd4:	5a 9a       	sbi	0x0b, 2	; 11
    1bd6:	00 00       	nop
    1bd8:	00 00       	nop
    1bda:	00 00       	nop
    1bdc:	5a 98       	cbi	0x0b, 2	; 11
    1bde:	19 82       	std	Y+1, r1	; 0x01
    1be0:	03 c0       	rjmp	.+6      	; 0x1be8 <ks0108WriteData+0x112>
    1be2:	89 81       	ldd	r24, Y+1	; 0x01
    1be4:	8f 5f       	subi	r24, 0xFF	; 255
    1be6:	89 83       	std	Y+1, r24	; 0x01
    1be8:	89 81       	ldd	r24, Y+1	; 0x01
    1bea:	88 30       	cpi	r24, 0x08	; 8
    1bec:	d0 f3       	brcs	.-12     	; 0x1be2 <ks0108WriteData+0x10c>
    1bee:	80 91 48 01 	lds	r24, 0x0148
    1bf2:	8f 5f       	subi	r24, 0xFF	; 255
    1bf4:	80 93 48 01 	sts	0x0148, r24
    1bf8:	15 b8       	out	0x05, r1	; 5
    1bfa:	0f 90       	pop	r0
    1bfc:	0f 90       	pop	r0
    1bfe:	cf 91       	pop	r28
    1c00:	df 91       	pop	r29
    1c02:	1f 91       	pop	r17
    1c04:	0f 91       	pop	r16
    1c06:	ff 90       	pop	r15
    1c08:	ef 90       	pop	r14
    1c0a:	df 90       	pop	r13
    1c0c:	08 95       	ret

00001c0e <ks0108PutChar>:
    1c0e:	2f 92       	push	r2
    1c10:	3f 92       	push	r3
    1c12:	4f 92       	push	r4
    1c14:	5f 92       	push	r5
    1c16:	6f 92       	push	r6
    1c18:	7f 92       	push	r7
    1c1a:	8f 92       	push	r8
    1c1c:	9f 92       	push	r9
    1c1e:	af 92       	push	r10
    1c20:	bf 92       	push	r11
    1c22:	cf 92       	push	r12
    1c24:	df 92       	push	r13
    1c26:	ef 92       	push	r14
    1c28:	ff 92       	push	r15
    1c2a:	0f 93       	push	r16
    1c2c:	1f 93       	push	r17
    1c2e:	df 93       	push	r29
    1c30:	cf 93       	push	r28
    1c32:	00 d0       	rcall	.+0      	; 0x1c34 <ks0108PutChar+0x26>
    1c34:	00 d0       	rcall	.+0      	; 0x1c36 <ks0108PutChar+0x28>
    1c36:	00 d0       	rcall	.+0      	; 0x1c38 <ks0108PutChar+0x2a>
    1c38:	cd b7       	in	r28, 0x3d	; 61
    1c3a:	de b7       	in	r29, 0x3e	; 62
    1c3c:	c8 2e       	mov	r12, r24
    1c3e:	80 91 4d 01 	lds	r24, 0x014D
    1c42:	90 91 4e 01 	lds	r25, 0x014E
    1c46:	e0 91 4b 01 	lds	r30, 0x014B
    1c4a:	f0 91 4c 01 	lds	r31, 0x014C
    1c4e:	03 96       	adiw	r24, 0x03	; 3
    1c50:	09 95       	icall
    1c52:	68 2e       	mov	r6, r24
    1c54:	28 2f       	mov	r18, r24
    1c56:	27 70       	andi	r18, 0x07	; 7
    1c58:	29 83       	std	Y+1, r18	; 0x01
    1c5a:	80 91 4d 01 	lds	r24, 0x014D
    1c5e:	90 91 4e 01 	lds	r25, 0x014E
    1c62:	e0 91 4b 01 	lds	r30, 0x014B
    1c66:	f0 91 4c 01 	lds	r31, 0x014C
    1c6a:	04 96       	adiw	r24, 0x04	; 4
    1c6c:	09 95       	icall
    1c6e:	08 2f       	mov	r16, r24
    1c70:	20 91 4d 01 	lds	r18, 0x014D
    1c74:	30 91 4e 01 	lds	r19, 0x014E
    1c78:	e0 91 4b 01 	lds	r30, 0x014B
    1c7c:	f0 91 4c 01 	lds	r31, 0x014C
    1c80:	c9 01       	movw	r24, r18
    1c82:	05 96       	adiw	r24, 0x05	; 5
    1c84:	09 95       	icall
    1c86:	b8 2e       	mov	r11, r24
    1c88:	70 90 48 01 	lds	r7, 0x0148
    1c8c:	30 91 49 01 	lds	r19, 0x0149
    1c90:	3a 83       	std	Y+2, r19	; 0x02
    1c92:	c0 16       	cp	r12, r16
    1c94:	08 f4       	brcc	.+2      	; 0x1c98 <ks0108PutChar+0x8a>
    1c96:	bb c0       	rjmp	.+374    	; 0x1e0e <ks0108PutChar+0x200>
    1c98:	4c 2d       	mov	r20, r12
    1c9a:	50 e0       	ldi	r21, 0x00	; 0
    1c9c:	20 2f       	mov	r18, r16
    1c9e:	30 e0       	ldi	r19, 0x00	; 0
    1ca0:	28 0f       	add	r18, r24
    1ca2:	31 1d       	adc	r19, r1
    1ca4:	42 17       	cp	r20, r18
    1ca6:	53 07       	cpc	r21, r19
    1ca8:	0c f0       	brlt	.+2      	; 0x1cac <ks0108PutChar+0x9e>
    1caa:	b1 c0       	rjmp	.+354    	; 0x1e0e <ks0108PutChar+0x200>
    1cac:	c0 1a       	sub	r12, r16
    1cae:	56 e0       	ldi	r21, 0x06	; 6
    1cb0:	e5 2e       	mov	r14, r21
    1cb2:	f1 2c       	mov	r15, r1
    1cb4:	00 e0       	ldi	r16, 0x00	; 0
    1cb6:	10 e0       	ldi	r17, 0x00	; 0
    1cb8:	09 c0       	rjmp	.+18     	; 0x1ccc <ks0108PutChar+0xbe>
    1cba:	c9 01       	movw	r24, r18
    1cbc:	8e 0d       	add	r24, r14
    1cbe:	9f 1d       	adc	r25, r15
    1cc0:	09 95       	icall
    1cc2:	08 0f       	add	r16, r24
    1cc4:	11 1d       	adc	r17, r1
    1cc6:	08 94       	sec
    1cc8:	e1 1c       	adc	r14, r1
    1cca:	f1 1c       	adc	r15, r1
    1ccc:	8e 2d       	mov	r24, r14
    1cce:	86 50       	subi	r24, 0x06	; 6
    1cd0:	20 91 4d 01 	lds	r18, 0x014D
    1cd4:	30 91 4e 01 	lds	r19, 0x014E
    1cd8:	e0 91 4b 01 	lds	r30, 0x014B
    1cdc:	f0 91 4c 01 	lds	r31, 0x014C
    1ce0:	8c 15       	cp	r24, r12
    1ce2:	58 f3       	brcs	.-42     	; 0x1cba <ks0108PutChar+0xac>
    1ce4:	86 2d       	mov	r24, r6
    1ce6:	90 e0       	ldi	r25, 0x00	; 0
    1ce8:	07 96       	adiw	r24, 0x07	; 7
    1cea:	43 e0       	ldi	r20, 0x03	; 3
    1cec:	95 95       	asr	r25
    1cee:	87 95       	ror	r24
    1cf0:	4a 95       	dec	r20
    1cf2:	e1 f7       	brne	.-8      	; 0x1cec <ks0108PutChar+0xde>
    1cf4:	68 2e       	mov	r6, r24
    1cf6:	e8 2e       	mov	r14, r24
    1cf8:	ff 24       	eor	r15, r15
    1cfa:	0e 9d       	mul	r16, r14
    1cfc:	a0 01       	movw	r20, r0
    1cfe:	0f 9d       	mul	r16, r15
    1d00:	50 0d       	add	r21, r0
    1d02:	1e 9d       	mul	r17, r14
    1d04:	50 0d       	add	r21, r0
    1d06:	11 24       	eor	r1, r1
    1d08:	8b 2d       	mov	r24, r11
    1d0a:	90 e0       	ldi	r25, 0x00	; 0
    1d0c:	06 96       	adiw	r24, 0x06	; 6
    1d0e:	84 0f       	add	r24, r20
    1d10:	95 1f       	adc	r25, r21
    1d12:	9e 83       	std	Y+6, r25	; 0x06
    1d14:	8d 83       	std	Y+5, r24	; 0x05
    1d16:	8c 2d       	mov	r24, r12
    1d18:	90 e0       	ldi	r25, 0x00	; 0
    1d1a:	06 96       	adiw	r24, 0x06	; 6
    1d1c:	82 0f       	add	r24, r18
    1d1e:	93 1f       	adc	r25, r19
    1d20:	09 95       	icall
    1d22:	b8 2e       	mov	r11, r24
    1d24:	98 2e       	mov	r9, r24
    1d26:	91 94       	neg	r9
    1d28:	aa 24       	eor	r10, r10
    1d2a:	02 e0       	ldi	r16, 0x02	; 2
    1d2c:	10 e0       	ldi	r17, 0x00	; 0
    1d2e:	27 01       	movw	r4, r14
    1d30:	60 c0       	rjmp	.+192    	; 0x1df2 <ks0108PutChar+0x1e4>
    1d32:	2d 80       	ldd	r2, Y+5	; 0x05
    1d34:	3e 80       	ldd	r3, Y+6	; 0x06
    1d36:	29 0c       	add	r2, r9
    1d38:	31 1c       	adc	r3, r1
    1d3a:	cd 80       	ldd	r12, Y+5	; 0x05
    1d3c:	de 80       	ldd	r13, Y+6	; 0x06
    1d3e:	ca 0c       	add	r12, r10
    1d40:	d1 1c       	adc	r13, r1
    1d42:	71 01       	movw	r14, r2
    1d44:	f8 01       	movw	r30, r16
    1d46:	31 97       	sbiw	r30, 0x01	; 1
    1d48:	fc 83       	std	Y+4, r31	; 0x04
    1d4a:	eb 83       	std	Y+3, r30	; 0x03
    1d4c:	35 c0       	rjmp	.+106    	; 0x1db8 <ks0108PutChar+0x1aa>
    1d4e:	80 91 4d 01 	lds	r24, 0x014D
    1d52:	90 91 4e 01 	lds	r25, 0x014E
    1d56:	e0 91 4b 01 	lds	r30, 0x014B
    1d5a:	f0 91 4c 01 	lds	r31, 0x014C
    1d5e:	8c 0d       	add	r24, r12
    1d60:	9d 1d       	adc	r25, r13
    1d62:	09 95       	icall
    1d64:	88 2e       	mov	r8, r24
    1d66:	2b 81       	ldd	r18, Y+3	; 0x03
    1d68:	3c 81       	ldd	r19, Y+4	; 0x04
    1d6a:	24 15       	cp	r18, r4
    1d6c:	35 05       	cpc	r19, r5
    1d6e:	a1 f4       	brne	.+40     	; 0x1d98 <ks0108PutChar+0x18a>
    1d70:	20 91 4d 01 	lds	r18, 0x014D
    1d74:	30 91 4e 01 	lds	r19, 0x014E
    1d78:	e0 91 4b 01 	lds	r30, 0x014B
    1d7c:	f0 91 4c 01 	lds	r31, 0x014C
    1d80:	c9 01       	movw	r24, r18
    1d82:	8e 0d       	add	r24, r14
    1d84:	9f 1d       	adc	r25, r15
    1d86:	09 95       	icall
    1d88:	90 e0       	ldi	r25, 0x00	; 0
    1d8a:	09 80       	ldd	r0, Y+1	; 0x01
    1d8c:	02 c0       	rjmp	.+4      	; 0x1d92 <ks0108PutChar+0x184>
    1d8e:	95 95       	asr	r25
    1d90:	87 95       	ror	r24
    1d92:	0a 94       	dec	r0
    1d94:	e2 f7       	brpl	.-8      	; 0x1d8e <ks0108PutChar+0x180>
    1d96:	88 2a       	or	r8, r24
    1d98:	80 91 47 01 	lds	r24, 0x0147
    1d9c:	8f 3f       	cpi	r24, 0xFF	; 255
    1d9e:	11 f4       	brne	.+4      	; 0x1da4 <ks0108PutChar+0x196>
    1da0:	88 2d       	mov	r24, r8
    1da2:	02 c0       	rjmp	.+4      	; 0x1da8 <ks0108PutChar+0x19a>
    1da4:	88 2d       	mov	r24, r8
    1da6:	80 95       	com	r24
    1da8:	0e 94 6b 0d 	call	0x1ad6	; 0x1ad6 <ks0108WriteData>
    1dac:	08 94       	sec
    1dae:	c1 1c       	adc	r12, r1
    1db0:	d1 1c       	adc	r13, r1
    1db2:	08 94       	sec
    1db4:	e1 1c       	adc	r14, r1
    1db6:	f1 1c       	adc	r15, r1
    1db8:	8e 2d       	mov	r24, r14
    1dba:	82 19       	sub	r24, r2
    1dbc:	8b 15       	cp	r24, r11
    1dbe:	38 f2       	brcs	.-114    	; 0x1d4e <ks0108PutChar+0x140>
    1dc0:	80 91 47 01 	lds	r24, 0x0147
    1dc4:	8f 3f       	cpi	r24, 0xFF	; 255
    1dc6:	11 f4       	brne	.+4      	; 0x1dcc <ks0108PutChar+0x1be>
    1dc8:	80 e0       	ldi	r24, 0x00	; 0
    1dca:	01 c0       	rjmp	.+2      	; 0x1dce <ks0108PutChar+0x1c0>
    1dcc:	8f ef       	ldi	r24, 0xFF	; 255
    1dce:	0e 94 6b 0d 	call	0x1ad6	; 0x1ad6 <ks0108WriteData>
    1dd2:	60 91 49 01 	lds	r22, 0x0149
    1dd6:	04 15       	cp	r16, r4
    1dd8:	15 05       	cpc	r17, r5
    1dda:	14 f4       	brge	.+4      	; 0x1de0 <ks0108PutChar+0x1d2>
    1ddc:	68 5f       	subi	r22, 0xF8	; 248
    1dde:	02 c0       	rjmp	.+4      	; 0x1de4 <ks0108PutChar+0x1d6>
    1de0:	39 81       	ldd	r19, Y+1	; 0x01
    1de2:	63 0f       	add	r22, r19
    1de4:	87 2d       	mov	r24, r7
    1de6:	0e 94 02 0d 	call	0x1a04	; 0x1a04 <ks0108GotoXY>
    1dea:	0f 5f       	subi	r16, 0xFF	; 255
    1dec:	1f 4f       	sbci	r17, 0xFF	; 255
    1dee:	9b 0c       	add	r9, r11
    1df0:	ab 0c       	add	r10, r11
    1df2:	80 2f       	mov	r24, r16
    1df4:	82 50       	subi	r24, 0x02	; 2
    1df6:	86 15       	cp	r24, r6
    1df8:	08 f4       	brcc	.+2      	; 0x1dfc <ks0108PutChar+0x1ee>
    1dfa:	9b cf       	rjmp	.-202    	; 0x1d32 <ks0108PutChar+0x124>
    1dfc:	87 2d       	mov	r24, r7
    1dfe:	8f 5f       	subi	r24, 0xFF	; 255
    1e00:	8b 0d       	add	r24, r11
    1e02:	6a 81       	ldd	r22, Y+2	; 0x02
    1e04:	0e 94 02 0d 	call	0x1a04	; 0x1a04 <ks0108GotoXY>
    1e08:	20 e0       	ldi	r18, 0x00	; 0
    1e0a:	30 e0       	ldi	r19, 0x00	; 0
    1e0c:	02 c0       	rjmp	.+4      	; 0x1e12 <ks0108PutChar+0x204>
    1e0e:	21 e0       	ldi	r18, 0x01	; 1
    1e10:	30 e0       	ldi	r19, 0x00	; 0
    1e12:	c9 01       	movw	r24, r18
    1e14:	26 96       	adiw	r28, 0x06	; 6
    1e16:	0f b6       	in	r0, 0x3f	; 63
    1e18:	f8 94       	cli
    1e1a:	de bf       	out	0x3e, r29	; 62
    1e1c:	0f be       	out	0x3f, r0	; 63
    1e1e:	cd bf       	out	0x3d, r28	; 61
    1e20:	cf 91       	pop	r28
    1e22:	df 91       	pop	r29
    1e24:	1f 91       	pop	r17
    1e26:	0f 91       	pop	r16
    1e28:	ff 90       	pop	r15
    1e2a:	ef 90       	pop	r14
    1e2c:	df 90       	pop	r13
    1e2e:	cf 90       	pop	r12
    1e30:	bf 90       	pop	r11
    1e32:	af 90       	pop	r10
    1e34:	9f 90       	pop	r9
    1e36:	8f 90       	pop	r8
    1e38:	7f 90       	pop	r7
    1e3a:	6f 90       	pop	r6
    1e3c:	5f 90       	pop	r5
    1e3e:	4f 90       	pop	r4
    1e40:	3f 90       	pop	r3
    1e42:	2f 90       	pop	r2
    1e44:	08 95       	ret

00001e46 <ks0108Puts_P>:
    1e46:	0f 93       	push	r16
    1e48:	1f 93       	push	r17
    1e4a:	cf 93       	push	r28
    1e4c:	df 93       	push	r29
    1e4e:	ec 01       	movw	r28, r24
    1e50:	10 91 48 01 	lds	r17, 0x0148
    1e54:	18 c0       	rjmp	.+48     	; 0x1e86 <ks0108Puts_P+0x40>
    1e56:	8a 30       	cpi	r24, 0x0A	; 10
    1e58:	99 f4       	brne	.+38     	; 0x1e80 <ks0108Puts_P+0x3a>
    1e5a:	00 91 49 01 	lds	r16, 0x0149
    1e5e:	20 91 4d 01 	lds	r18, 0x014D
    1e62:	30 91 4e 01 	lds	r19, 0x014E
    1e66:	e0 91 4b 01 	lds	r30, 0x014B
    1e6a:	f0 91 4c 01 	lds	r31, 0x014C
    1e6e:	c9 01       	movw	r24, r18
    1e70:	03 96       	adiw	r24, 0x03	; 3
    1e72:	09 95       	icall
    1e74:	68 2f       	mov	r22, r24
    1e76:	60 0f       	add	r22, r16
    1e78:	81 2f       	mov	r24, r17
    1e7a:	0e 94 02 0d 	call	0x1a04	; 0x1a04 <ks0108GotoXY>
    1e7e:	02 c0       	rjmp	.+4      	; 0x1e84 <ks0108Puts_P+0x3e>
    1e80:	0e 94 07 0e 	call	0x1c0e	; 0x1c0e <ks0108PutChar>
    1e84:	21 96       	adiw	r28, 0x01	; 1
    1e86:	fe 01       	movw	r30, r28
    1e88:	84 91       	lpm	r24, Z+
    1e8a:	88 23       	and	r24, r24
    1e8c:	21 f7       	brne	.-56     	; 0x1e56 <ks0108Puts_P+0x10>
    1e8e:	df 91       	pop	r29
    1e90:	cf 91       	pop	r28
    1e92:	1f 91       	pop	r17
    1e94:	0f 91       	pop	r16
    1e96:	08 95       	ret

00001e98 <ks0108Puts>:
    1e98:	ef 92       	push	r14
    1e9a:	ff 92       	push	r15
    1e9c:	0f 93       	push	r16
    1e9e:	1f 93       	push	r17
    1ea0:	cf 93       	push	r28
    1ea2:	df 93       	push	r29
    1ea4:	10 91 48 01 	lds	r17, 0x0148
    1ea8:	e8 2e       	mov	r14, r24
    1eaa:	e7 01       	movw	r28, r14
    1eac:	7e 01       	movw	r14, r28
    1eae:	f9 2e       	mov	r15, r25
    1eb0:	e7 01       	movw	r28, r14
    1eb2:	17 c0       	rjmp	.+46     	; 0x1ee2 <ks0108Puts+0x4a>
    1eb4:	8a 30       	cpi	r24, 0x0A	; 10
    1eb6:	99 f4       	brne	.+38     	; 0x1ede <ks0108Puts+0x46>
    1eb8:	00 91 49 01 	lds	r16, 0x0149
    1ebc:	20 91 4d 01 	lds	r18, 0x014D
    1ec0:	30 91 4e 01 	lds	r19, 0x014E
    1ec4:	e0 91 4b 01 	lds	r30, 0x014B
    1ec8:	f0 91 4c 01 	lds	r31, 0x014C
    1ecc:	c9 01       	movw	r24, r18
    1ece:	03 96       	adiw	r24, 0x03	; 3
    1ed0:	09 95       	icall
    1ed2:	68 2f       	mov	r22, r24
    1ed4:	60 0f       	add	r22, r16
    1ed6:	81 2f       	mov	r24, r17
    1ed8:	0e 94 02 0d 	call	0x1a04	; 0x1a04 <ks0108GotoXY>
    1edc:	02 c0       	rjmp	.+4      	; 0x1ee2 <ks0108Puts+0x4a>
    1ede:	0e 94 07 0e 	call	0x1c0e	; 0x1c0e <ks0108PutChar>
    1ee2:	89 91       	ld	r24, Y+
    1ee4:	88 23       	and	r24, r24
    1ee6:	31 f7       	brne	.-52     	; 0x1eb4 <ks0108Puts+0x1c>
    1ee8:	df 91       	pop	r29
    1eea:	cf 91       	pop	r28
    1eec:	1f 91       	pop	r17
    1eee:	0f 91       	pop	r16
    1ef0:	ff 90       	pop	r15
    1ef2:	ef 90       	pop	r14
    1ef4:	08 95       	ret

00001ef6 <ks0108SetDot>:
    1ef6:	1f 93       	push	r17
    1ef8:	df 93       	push	r29
    1efa:	cf 93       	push	r28
    1efc:	0f 92       	push	r0
    1efe:	cd b7       	in	r28, 0x3d	; 61
    1f00:	de b7       	in	r29, 0x3e	; 62
    1f02:	16 2f       	mov	r17, r22
    1f04:	68 7f       	andi	r22, 0xF8	; 248
    1f06:	49 83       	std	Y+1, r20	; 0x01
    1f08:	0e 94 02 0d 	call	0x1a04	; 0x1a04 <ks0108GotoXY>
    1f0c:	0e 94 64 0d 	call	0x1ac8	; 0x1ac8 <ks0108ReadData>
    1f10:	61 2f       	mov	r22, r17
    1f12:	70 e0       	ldi	r23, 0x00	; 0
    1f14:	49 81       	ldd	r20, Y+1	; 0x01
    1f16:	4f 3f       	cpi	r20, 0xFF	; 255
    1f18:	59 f4       	brne	.+22     	; 0x1f30 <ks0108SetDot+0x3a>
    1f1a:	67 70       	andi	r22, 0x07	; 7
    1f1c:	70 70       	andi	r23, 0x00	; 0
    1f1e:	21 e0       	ldi	r18, 0x01	; 1
    1f20:	30 e0       	ldi	r19, 0x00	; 0
    1f22:	02 c0       	rjmp	.+4      	; 0x1f28 <ks0108SetDot+0x32>
    1f24:	22 0f       	add	r18, r18
    1f26:	33 1f       	adc	r19, r19
    1f28:	6a 95       	dec	r22
    1f2a:	e2 f7       	brpl	.-8      	; 0x1f24 <ks0108SetDot+0x2e>
    1f2c:	28 2b       	or	r18, r24
    1f2e:	0b c0       	rjmp	.+22     	; 0x1f46 <ks0108SetDot+0x50>
    1f30:	67 70       	andi	r22, 0x07	; 7
    1f32:	70 70       	andi	r23, 0x00	; 0
    1f34:	21 e0       	ldi	r18, 0x01	; 1
    1f36:	30 e0       	ldi	r19, 0x00	; 0
    1f38:	02 c0       	rjmp	.+4      	; 0x1f3e <ks0108SetDot+0x48>
    1f3a:	22 0f       	add	r18, r18
    1f3c:	33 1f       	adc	r19, r19
    1f3e:	6a 95       	dec	r22
    1f40:	e2 f7       	brpl	.-8      	; 0x1f3a <ks0108SetDot+0x44>
    1f42:	20 95       	com	r18
    1f44:	28 23       	and	r18, r24
    1f46:	82 2f       	mov	r24, r18
    1f48:	0e 94 6b 0d 	call	0x1ad6	; 0x1ad6 <ks0108WriteData>
    1f4c:	0f 90       	pop	r0
    1f4e:	cf 91       	pop	r28
    1f50:	df 91       	pop	r29
    1f52:	1f 91       	pop	r17
    1f54:	08 95       	ret

00001f56 <ks0108InvertRect>:
    1f56:	af 92       	push	r10
    1f58:	bf 92       	push	r11
    1f5a:	cf 92       	push	r12
    1f5c:	df 92       	push	r13
    1f5e:	ef 92       	push	r14
    1f60:	ff 92       	push	r15
    1f62:	0f 93       	push	r16
    1f64:	1f 93       	push	r17
    1f66:	cf 93       	push	r28
    1f68:	df 93       	push	r29
    1f6a:	18 2f       	mov	r17, r24
    1f6c:	04 2f       	mov	r16, r20
    1f6e:	e2 2e       	mov	r14, r18
    1f70:	e3 94       	inc	r14
    1f72:	26 2f       	mov	r18, r22
    1f74:	27 70       	andi	r18, 0x07	; 7
    1f76:	f6 2e       	mov	r15, r22
    1f78:	f2 1a       	sub	r15, r18
    1f7a:	ce 2d       	mov	r28, r14
    1f7c:	d0 e0       	ldi	r29, 0x00	; 0
    1f7e:	e8 e0       	ldi	r30, 0x08	; 8
    1f80:	f0 e0       	ldi	r31, 0x00	; 0
    1f82:	cf 01       	movw	r24, r30
    1f84:	82 1b       	sub	r24, r18
    1f86:	91 09       	sbc	r25, r1
    1f88:	c8 17       	cp	r28, r24
    1f8a:	d9 07       	cpc	r29, r25
    1f8c:	64 f4       	brge	.+24     	; 0x1fa6 <ks0108InvertRect+0x50>
    1f8e:	cf 01       	movw	r24, r30
    1f90:	8c 1b       	sub	r24, r28
    1f92:	9d 0b       	sbc	r25, r29
    1f94:	ef ef       	ldi	r30, 0xFF	; 255
    1f96:	f0 e0       	ldi	r31, 0x00	; 0
    1f98:	02 c0       	rjmp	.+4      	; 0x1f9e <ks0108InvertRect+0x48>
    1f9a:	f5 95       	asr	r31
    1f9c:	e7 95       	ror	r30
    1f9e:	8a 95       	dec	r24
    1fa0:	e2 f7       	brpl	.-8      	; 0x1f9a <ks0108InvertRect+0x44>
    1fa2:	de 2c       	mov	r13, r14
    1fa4:	04 c0       	rjmp	.+8      	; 0x1fae <ks0108InvertRect+0x58>
    1fa6:	68 e0       	ldi	r22, 0x08	; 8
    1fa8:	d6 2e       	mov	r13, r22
    1faa:	d2 1a       	sub	r13, r18
    1fac:	ef ef       	ldi	r30, 0xFF	; 255
    1fae:	ce 2e       	mov	r12, r30
    1fb0:	01 c0       	rjmp	.+2      	; 0x1fb4 <ks0108InvertRect+0x5e>
    1fb2:	cc 0c       	add	r12, r12
    1fb4:	2a 95       	dec	r18
    1fb6:	ea f7       	brpl	.-6      	; 0x1fb2 <ks0108InvertRect+0x5c>
    1fb8:	81 2f       	mov	r24, r17
    1fba:	6f 2d       	mov	r22, r15
    1fbc:	0e 94 02 0d 	call	0x1a04	; 0x1a04 <ks0108GotoXY>
    1fc0:	bb 24       	eor	r11, r11
    1fc2:	ac 2c       	mov	r10, r12
    1fc4:	a0 94       	com	r10
    1fc6:	0e 94 64 0d 	call	0x1ac8	; 0x1ac8 <ks0108ReadData>
    1fca:	98 2f       	mov	r25, r24
    1fcc:	90 95       	com	r25
    1fce:	9c 21       	and	r25, r12
    1fd0:	8a 21       	and	r24, r10
    1fd2:	89 2b       	or	r24, r25
    1fd4:	0e 94 6b 0d 	call	0x1ad6	; 0x1ad6 <ks0108WriteData>
    1fd8:	b3 94       	inc	r11
    1fda:	0b 15       	cp	r16, r11
    1fdc:	a0 f7       	brcc	.-24     	; 0x1fc6 <ks0108InvertRect+0x70>
    1fde:	10 c0       	rjmp	.+32     	; 0x2000 <ks0108InvertRect+0xaa>
    1fe0:	88 e0       	ldi	r24, 0x08	; 8
    1fe2:	d8 0e       	add	r13, r24
    1fe4:	f8 0e       	add	r15, r24
    1fe6:	81 2f       	mov	r24, r17
    1fe8:	6f 2d       	mov	r22, r15
    1fea:	0e 94 02 0d 	call	0x1a04	; 0x1a04 <ks0108GotoXY>
    1fee:	cc 24       	eor	r12, r12
    1ff0:	0e 94 64 0d 	call	0x1ac8	; 0x1ac8 <ks0108ReadData>
    1ff4:	80 95       	com	r24
    1ff6:	0e 94 6b 0d 	call	0x1ad6	; 0x1ad6 <ks0108WriteData>
    1ffa:	c3 94       	inc	r12
    1ffc:	0c 15       	cp	r16, r12
    1ffe:	c0 f7       	brcc	.-16     	; 0x1ff0 <ks0108InvertRect+0x9a>
    2000:	ed 2d       	mov	r30, r13
    2002:	f0 e0       	ldi	r31, 0x00	; 0
    2004:	cf 01       	movw	r24, r30
    2006:	07 96       	adiw	r24, 0x07	; 7
    2008:	8c 17       	cp	r24, r28
    200a:	9d 07       	cpc	r25, r29
    200c:	4c f3       	brlt	.-46     	; 0x1fe0 <ks0108InvertRect+0x8a>
    200e:	de 14       	cp	r13, r14
    2010:	00 f5       	brcc	.+64     	; 0x2052 <ks0108InvertRect+0xfc>
    2012:	ce 1b       	sub	r28, r30
    2014:	df 0b       	sbc	r29, r31
    2016:	2f ef       	ldi	r18, 0xFF	; 255
    2018:	30 e0       	ldi	r19, 0x00	; 0
    201a:	0c 2e       	mov	r0, r28
    201c:	02 c0       	rjmp	.+4      	; 0x2022 <ks0108InvertRect+0xcc>
    201e:	22 0f       	add	r18, r18
    2020:	33 1f       	adc	r19, r19
    2022:	0a 94       	dec	r0
    2024:	e2 f7       	brpl	.-8      	; 0x201e <ks0108InvertRect+0xc8>
    2026:	e2 2e       	mov	r14, r18
    2028:	e0 94       	com	r14
    202a:	6f 2d       	mov	r22, r15
    202c:	68 5f       	subi	r22, 0xF8	; 248
    202e:	81 2f       	mov	r24, r17
    2030:	0e 94 02 0d 	call	0x1a04	; 0x1a04 <ks0108GotoXY>
    2034:	10 e0       	ldi	r17, 0x00	; 0
    2036:	fe 2c       	mov	r15, r14
    2038:	f0 94       	com	r15
    203a:	0e 94 64 0d 	call	0x1ac8	; 0x1ac8 <ks0108ReadData>
    203e:	98 2f       	mov	r25, r24
    2040:	90 95       	com	r25
    2042:	9e 21       	and	r25, r14
    2044:	8f 21       	and	r24, r15
    2046:	89 2b       	or	r24, r25
    2048:	0e 94 6b 0d 	call	0x1ad6	; 0x1ad6 <ks0108WriteData>
    204c:	1f 5f       	subi	r17, 0xFF	; 255
    204e:	01 17       	cp	r16, r17
    2050:	a0 f7       	brcc	.-24     	; 0x203a <ks0108InvertRect+0xe4>
    2052:	df 91       	pop	r29
    2054:	cf 91       	pop	r28
    2056:	1f 91       	pop	r17
    2058:	0f 91       	pop	r16
    205a:	ff 90       	pop	r15
    205c:	ef 90       	pop	r14
    205e:	df 90       	pop	r13
    2060:	cf 90       	pop	r12
    2062:	bf 90       	pop	r11
    2064:	af 90       	pop	r10
    2066:	08 95       	ret

00002068 <ks0108SetInverted>:
    2068:	1f 93       	push	r17
    206a:	18 2f       	mov	r17, r24
    206c:	80 91 32 01 	lds	r24, 0x0132
    2070:	81 17       	cp	r24, r17
    2072:	41 f0       	breq	.+16     	; 0x2084 <ks0108SetInverted+0x1c>
    2074:	80 e0       	ldi	r24, 0x00	; 0
    2076:	60 e0       	ldi	r22, 0x00	; 0
    2078:	4f e7       	ldi	r20, 0x7F	; 127
    207a:	2f e3       	ldi	r18, 0x3F	; 63
    207c:	0e 94 ab 0f 	call	0x1f56	; 0x1f56 <ks0108InvertRect>
    2080:	10 93 32 01 	sts	0x0132, r17
    2084:	1f 91       	pop	r17
    2086:	08 95       	ret

00002088 <ks0108FillRect>:
    2088:	9f 92       	push	r9
    208a:	af 92       	push	r10
    208c:	bf 92       	push	r11
    208e:	cf 92       	push	r12
    2090:	df 92       	push	r13
    2092:	ef 92       	push	r14
    2094:	ff 92       	push	r15
    2096:	0f 93       	push	r16
    2098:	1f 93       	push	r17
    209a:	cf 93       	push	r28
    209c:	df 93       	push	r29
    209e:	18 2f       	mov	r17, r24
    20a0:	f4 2e       	mov	r15, r20
    20a2:	d2 2e       	mov	r13, r18
    20a4:	e0 2e       	mov	r14, r16
    20a6:	d3 94       	inc	r13
    20a8:	26 2f       	mov	r18, r22
    20aa:	27 70       	andi	r18, 0x07	; 7
    20ac:	06 2f       	mov	r16, r22
    20ae:	02 1b       	sub	r16, r18
    20b0:	cd 2d       	mov	r28, r13
    20b2:	d0 e0       	ldi	r29, 0x00	; 0
    20b4:	e8 e0       	ldi	r30, 0x08	; 8
    20b6:	f0 e0       	ldi	r31, 0x00	; 0
    20b8:	cf 01       	movw	r24, r30
    20ba:	82 1b       	sub	r24, r18
    20bc:	91 09       	sbc	r25, r1
    20be:	c8 17       	cp	r28, r24
    20c0:	d9 07       	cpc	r29, r25
    20c2:	64 f4       	brge	.+24     	; 0x20dc <ks0108FillRect+0x54>
    20c4:	cf 01       	movw	r24, r30
    20c6:	8c 1b       	sub	r24, r28
    20c8:	9d 0b       	sbc	r25, r29
    20ca:	ef ef       	ldi	r30, 0xFF	; 255
    20cc:	f0 e0       	ldi	r31, 0x00	; 0
    20ce:	02 c0       	rjmp	.+4      	; 0x20d4 <ks0108FillRect+0x4c>
    20d0:	f5 95       	asr	r31
    20d2:	e7 95       	ror	r30
    20d4:	8a 95       	dec	r24
    20d6:	e2 f7       	brpl	.-8      	; 0x20d0 <ks0108FillRect+0x48>
    20d8:	cd 2c       	mov	r12, r13
    20da:	04 c0       	rjmp	.+8      	; 0x20e4 <ks0108FillRect+0x5c>
    20dc:	78 e0       	ldi	r23, 0x08	; 8
    20de:	c7 2e       	mov	r12, r23
    20e0:	c2 1a       	sub	r12, r18
    20e2:	ef ef       	ldi	r30, 0xFF	; 255
    20e4:	be 2e       	mov	r11, r30
    20e6:	01 c0       	rjmp	.+2      	; 0x20ea <ks0108FillRect+0x62>
    20e8:	bb 0c       	add	r11, r11
    20ea:	2a 95       	dec	r18
    20ec:	ea f7       	brpl	.-6      	; 0x20e8 <ks0108FillRect+0x60>
    20ee:	81 2f       	mov	r24, r17
    20f0:	60 2f       	mov	r22, r16
    20f2:	0e 94 02 0d 	call	0x1a04	; 0x1a04 <ks0108GotoXY>
    20f6:	aa 24       	eor	r10, r10
    20f8:	9b 2c       	mov	r9, r11
    20fa:	90 94       	com	r9
    20fc:	0e 94 64 0d 	call	0x1ac8	; 0x1ac8 <ks0108ReadData>
    2100:	9e 2d       	mov	r25, r14
    2102:	9f 3f       	cpi	r25, 0xFF	; 255
    2104:	11 f4       	brne	.+4      	; 0x210a <ks0108FillRect+0x82>
    2106:	8b 29       	or	r24, r11
    2108:	01 c0       	rjmp	.+2      	; 0x210c <ks0108FillRect+0x84>
    210a:	89 21       	and	r24, r9
    210c:	0e 94 6b 0d 	call	0x1ad6	; 0x1ad6 <ks0108WriteData>
    2110:	a3 94       	inc	r10
    2112:	fa 14       	cp	r15, r10
    2114:	98 f7       	brcc	.-26     	; 0x20fc <ks0108FillRect+0x74>
    2116:	0e c0       	rjmp	.+28     	; 0x2134 <ks0108FillRect+0xac>
    2118:	88 e0       	ldi	r24, 0x08	; 8
    211a:	c8 0e       	add	r12, r24
    211c:	08 5f       	subi	r16, 0xF8	; 248
    211e:	81 2f       	mov	r24, r17
    2120:	60 2f       	mov	r22, r16
    2122:	0e 94 02 0d 	call	0x1a04	; 0x1a04 <ks0108GotoXY>
    2126:	bb 24       	eor	r11, r11
    2128:	8e 2d       	mov	r24, r14
    212a:	0e 94 6b 0d 	call	0x1ad6	; 0x1ad6 <ks0108WriteData>
    212e:	b3 94       	inc	r11
    2130:	fb 14       	cp	r15, r11
    2132:	d0 f7       	brcc	.-12     	; 0x2128 <ks0108FillRect+0xa0>
    2134:	ec 2d       	mov	r30, r12
    2136:	f0 e0       	ldi	r31, 0x00	; 0
    2138:	cf 01       	movw	r24, r30
    213a:	07 96       	adiw	r24, 0x07	; 7
    213c:	8c 17       	cp	r24, r28
    213e:	9d 07       	cpc	r25, r29
    2140:	5c f3       	brlt	.-42     	; 0x2118 <ks0108FillRect+0x90>
    2142:	cd 14       	cp	r12, r13
    2144:	08 f5       	brcc	.+66     	; 0x2188 <ks0108FillRect+0x100>
    2146:	ce 1b       	sub	r28, r30
    2148:	df 0b       	sbc	r29, r31
    214a:	2f ef       	ldi	r18, 0xFF	; 255
    214c:	30 e0       	ldi	r19, 0x00	; 0
    214e:	0c 2e       	mov	r0, r28
    2150:	02 c0       	rjmp	.+4      	; 0x2156 <ks0108FillRect+0xce>
    2152:	22 0f       	add	r18, r18
    2154:	33 1f       	adc	r19, r19
    2156:	0a 94       	dec	r0
    2158:	e2 f7       	brpl	.-8      	; 0x2152 <ks0108FillRect+0xca>
    215a:	d2 2e       	mov	r13, r18
    215c:	d0 94       	com	r13
    215e:	60 2f       	mov	r22, r16
    2160:	68 5f       	subi	r22, 0xF8	; 248
    2162:	81 2f       	mov	r24, r17
    2164:	0e 94 02 0d 	call	0x1a04	; 0x1a04 <ks0108GotoXY>
    2168:	10 e0       	ldi	r17, 0x00	; 0
    216a:	0d 2d       	mov	r16, r13
    216c:	00 95       	com	r16
    216e:	0e 94 64 0d 	call	0x1ac8	; 0x1ac8 <ks0108ReadData>
    2172:	9e 2d       	mov	r25, r14
    2174:	9f 3f       	cpi	r25, 0xFF	; 255
    2176:	11 f4       	brne	.+4      	; 0x217c <ks0108FillRect+0xf4>
    2178:	8d 29       	or	r24, r13
    217a:	01 c0       	rjmp	.+2      	; 0x217e <ks0108FillRect+0xf6>
    217c:	80 23       	and	r24, r16
    217e:	0e 94 6b 0d 	call	0x1ad6	; 0x1ad6 <ks0108WriteData>
    2182:	1f 5f       	subi	r17, 0xFF	; 255
    2184:	f1 16       	cp	r15, r17
    2186:	98 f7       	brcc	.-26     	; 0x216e <ks0108FillRect+0xe6>
    2188:	df 91       	pop	r29
    218a:	cf 91       	pop	r28
    218c:	1f 91       	pop	r17
    218e:	0f 91       	pop	r16
    2190:	ff 90       	pop	r15
    2192:	ef 90       	pop	r14
    2194:	df 90       	pop	r13
    2196:	cf 90       	pop	r12
    2198:	bf 90       	pop	r11
    219a:	af 90       	pop	r10
    219c:	9f 90       	pop	r9
    219e:	08 95       	ret

000021a0 <ks0108Init>:
    21a0:	0f 93       	push	r16
    21a2:	10 92 48 01 	sts	0x0148, r1
    21a6:	10 92 49 01 	sts	0x0149, r1
    21aa:	10 92 4a 01 	sts	0x014A, r1
    21ae:	80 93 32 01 	sts	0x0132, r24
    21b2:	8f ef       	ldi	r24, 0xFF	; 255
    21b4:	8a b9       	out	0x0a, r24	; 10
    21b6:	8f e3       	ldi	r24, 0x3F	; 63
    21b8:	60 e0       	ldi	r22, 0x00	; 0
    21ba:	0e 94 dd 0c 	call	0x19ba	; 0x19ba <ks0108WriteCommand>
    21be:	8f e3       	ldi	r24, 0x3F	; 63
    21c0:	61 e0       	ldi	r22, 0x01	; 1
    21c2:	0e 94 dd 0c 	call	0x19ba	; 0x19ba <ks0108WriteCommand>
    21c6:	80 ec       	ldi	r24, 0xC0	; 192
    21c8:	60 e0       	ldi	r22, 0x00	; 0
    21ca:	0e 94 dd 0c 	call	0x19ba	; 0x19ba <ks0108WriteCommand>
    21ce:	80 ec       	ldi	r24, 0xC0	; 192
    21d0:	61 e0       	ldi	r22, 0x01	; 1
    21d2:	0e 94 dd 0c 	call	0x19ba	; 0x19ba <ks0108WriteCommand>
    21d6:	80 e0       	ldi	r24, 0x00	; 0
    21d8:	60 e0       	ldi	r22, 0x00	; 0
    21da:	4f e7       	ldi	r20, 0x7F	; 127
    21dc:	2f e3       	ldi	r18, 0x3F	; 63
    21de:	00 e0       	ldi	r16, 0x00	; 0
    21e0:	0e 94 44 10 	call	0x2088	; 0x2088 <ks0108FillRect>
    21e4:	80 e0       	ldi	r24, 0x00	; 0
    21e6:	60 e0       	ldi	r22, 0x00	; 0
    21e8:	0e 94 02 0d 	call	0x1a04	; 0x1a04 <ks0108GotoXY>
    21ec:	0f 91       	pop	r16
    21ee:	08 95       	ret

000021f0 <ks0108DrawRoundRect>:
    21f0:	2f 92       	push	r2
    21f2:	3f 92       	push	r3
    21f4:	4f 92       	push	r4
    21f6:	5f 92       	push	r5
    21f8:	6f 92       	push	r6
    21fa:	7f 92       	push	r7
    21fc:	8f 92       	push	r8
    21fe:	9f 92       	push	r9
    2200:	af 92       	push	r10
    2202:	bf 92       	push	r11
    2204:	cf 92       	push	r12
    2206:	df 92       	push	r13
    2208:	ef 92       	push	r14
    220a:	ff 92       	push	r15
    220c:	0f 93       	push	r16
    220e:	1f 93       	push	r17
    2210:	df 93       	push	r29
    2212:	cf 93       	push	r28
    2214:	cd b7       	in	r28, 0x3d	; 61
    2216:	de b7       	in	r29, 0x3e	; 62
    2218:	2b 97       	sbiw	r28, 0x0b	; 11
    221a:	0f b6       	in	r0, 0x3f	; 63
    221c:	f8 94       	cli
    221e:	de bf       	out	0x3e, r29	; 62
    2220:	0f be       	out	0x3f, r0	; 63
    2222:	cd bf       	out	0x3d, r28	; 61
    2224:	58 2f       	mov	r21, r24
    2226:	16 2f       	mov	r17, r22
    2228:	74 2f       	mov	r23, r20
    222a:	2d 83       	std	Y+5, r18	; 0x05
    222c:	c0 2e       	mov	r12, r16
    222e:	dd 24       	eor	r13, r13
    2230:	88 27       	eor	r24, r24
    2232:	99 27       	eor	r25, r25
    2234:	8c 19       	sub	r24, r12
    2236:	9d 09       	sbc	r25, r13
    2238:	88 0f       	add	r24, r24
    223a:	99 1f       	adc	r25, r25
    223c:	03 96       	adiw	r24, 0x03	; 3
    223e:	9b 87       	std	Y+11, r25	; 0x0b
    2240:	8a 87       	std	Y+10, r24	; 0x0a
    2242:	90 2e       	mov	r9, r16
    2244:	95 0e       	add	r9, r21
    2246:	f0 2e       	mov	r15, r16
    2248:	f6 0e       	add	r15, r22
    224a:	94 2f       	mov	r25, r20
    224c:	95 0f       	add	r25, r21
    224e:	99 83       	std	Y+1, r25	; 0x01
    2250:	90 1b       	sub	r25, r16
    2252:	9a 83       	std	Y+2, r25	; 0x02
    2254:	e2 2f       	mov	r30, r18
    2256:	e6 0f       	add	r30, r22
    2258:	eb 83       	std	Y+3, r30	; 0x03
    225a:	e0 1b       	sub	r30, r16
    225c:	ec 83       	std	Y+4, r30	; 0x04
    225e:	7e 2e       	mov	r7, r30
    2260:	89 2e       	mov	r8, r25
    2262:	5f 2c       	mov	r5, r15
    2264:	49 2c       	mov	r4, r9
    2266:	20 e0       	ldi	r18, 0x00	; 0
    2268:	30 e0       	ldi	r19, 0x00	; 0
    226a:	aa 24       	eor	r10, r10
    226c:	bb 24       	eor	r11, r11
    226e:	6c 2c       	mov	r6, r12
    2270:	3f 2c       	mov	r3, r15
    2272:	3c 18       	sub	r3, r12
    2274:	84 2d       	mov	r24, r4
    2276:	63 2d       	mov	r22, r3
    2278:	4e 2d       	mov	r20, r14
    227a:	2e 83       	std	Y+6, r18	; 0x06
    227c:	3f 83       	std	Y+7, r19	; 0x07
    227e:	59 87       	std	Y+9, r21	; 0x09
    2280:	78 87       	std	Y+8, r23	; 0x08
    2282:	0e 94 7b 0f 	call	0x1ef6	; 0x1ef6 <ks0108SetDot>
    2286:	29 2c       	mov	r2, r9
    2288:	2c 18       	sub	r2, r12
    228a:	82 2d       	mov	r24, r2
    228c:	65 2d       	mov	r22, r5
    228e:	4e 2d       	mov	r20, r14
    2290:	0e 94 7b 0f 	call	0x1ef6	; 0x1ef6 <ks0108SetDot>
    2294:	88 2d       	mov	r24, r8
    2296:	63 2d       	mov	r22, r3
    2298:	4e 2d       	mov	r20, r14
    229a:	0e 94 7b 0f 	call	0x1ef6	; 0x1ef6 <ks0108SetDot>
    229e:	3a 80       	ldd	r3, Y+2	; 0x02
    22a0:	3c 0c       	add	r3, r12
    22a2:	83 2d       	mov	r24, r3
    22a4:	65 2d       	mov	r22, r5
    22a6:	4e 2d       	mov	r20, r14
    22a8:	0e 94 7b 0f 	call	0x1ef6	; 0x1ef6 <ks0108SetDot>
    22ac:	fc 81       	ldd	r31, Y+4	; 0x04
    22ae:	6f 0e       	add	r6, r31
    22b0:	88 2d       	mov	r24, r8
    22b2:	66 2d       	mov	r22, r6
    22b4:	4e 2d       	mov	r20, r14
    22b6:	0e 94 7b 0f 	call	0x1ef6	; 0x1ef6 <ks0108SetDot>
    22ba:	83 2d       	mov	r24, r3
    22bc:	67 2d       	mov	r22, r7
    22be:	4e 2d       	mov	r20, r14
    22c0:	0e 94 7b 0f 	call	0x1ef6	; 0x1ef6 <ks0108SetDot>
    22c4:	84 2d       	mov	r24, r4
    22c6:	66 2d       	mov	r22, r6
    22c8:	4e 2d       	mov	r20, r14
    22ca:	0e 94 7b 0f 	call	0x1ef6	; 0x1ef6 <ks0108SetDot>
    22ce:	82 2d       	mov	r24, r2
    22d0:	67 2d       	mov	r22, r7
    22d2:	4e 2d       	mov	r20, r14
    22d4:	0e 94 7b 0f 	call	0x1ef6	; 0x1ef6 <ks0108SetDot>
    22d8:	2e 81       	ldd	r18, Y+6	; 0x06
    22da:	3f 81       	ldd	r19, Y+7	; 0x07
    22dc:	59 85       	ldd	r21, Y+9	; 0x09
    22de:	78 85       	ldd	r23, Y+8	; 0x08
    22e0:	8a 85       	ldd	r24, Y+10	; 0x0a
    22e2:	9b 85       	ldd	r25, Y+11	; 0x0b
    22e4:	97 ff       	sbrs	r25, 7
    22e6:	06 c0       	rjmp	.+12     	; 0x22f4 <ks0108DrawRoundRect+0x104>
    22e8:	06 96       	adiw	r24, 0x06	; 6
    22ea:	82 0f       	add	r24, r18
    22ec:	93 1f       	adc	r25, r19
    22ee:	9b 87       	std	Y+11, r25	; 0x0b
    22f0:	8a 87       	std	Y+10, r24	; 0x0a
    22f2:	11 c0       	rjmp	.+34     	; 0x2316 <ks0108DrawRoundRect+0x126>
    22f4:	ea 85       	ldd	r30, Y+10	; 0x0a
    22f6:	fb 85       	ldd	r31, Y+11	; 0x0b
    22f8:	3a 96       	adiw	r30, 0x0a	; 10
    22fa:	c5 01       	movw	r24, r10
    22fc:	8c 19       	sub	r24, r12
    22fe:	9d 09       	sbc	r25, r13
    2300:	88 0f       	add	r24, r24
    2302:	99 1f       	adc	r25, r25
    2304:	88 0f       	add	r24, r24
    2306:	99 1f       	adc	r25, r25
    2308:	e8 0f       	add	r30, r24
    230a:	f9 1f       	adc	r31, r25
    230c:	fb 87       	std	Y+11, r31	; 0x0b
    230e:	ea 87       	std	Y+10, r30	; 0x0a
    2310:	08 94       	sec
    2312:	c1 08       	sbc	r12, r1
    2314:	d1 08       	sbc	r13, r1
    2316:	08 94       	sec
    2318:	a1 1c       	adc	r10, r1
    231a:	b1 1c       	adc	r11, r1
    231c:	4a 94       	dec	r4
    231e:	5a 94       	dec	r5
    2320:	83 94       	inc	r8
    2322:	73 94       	inc	r7
    2324:	2c 5f       	subi	r18, 0xFC	; 252
    2326:	3f 4f       	sbci	r19, 0xFF	; 255
    2328:	ca 14       	cp	r12, r10
    232a:	db 04       	cpc	r13, r11
    232c:	0c f0       	brlt	.+2      	; 0x2330 <ks0108DrawRoundRect+0x140>
    232e:	9f cf       	rjmp	.-194    	; 0x226e <ks0108DrawRoundRect+0x7e>
    2330:	c0 2e       	mov	r12, r16
    2332:	c1 94       	neg	r12
    2334:	cc 0c       	add	r12, r12
    2336:	ac 2c       	mov	r10, r12
    2338:	a7 0e       	add	r10, r23
    233a:	89 2d       	mov	r24, r9
    233c:	61 2f       	mov	r22, r17
    233e:	4a 2d       	mov	r20, r10
    2340:	20 e0       	ldi	r18, 0x00	; 0
    2342:	0e 2d       	mov	r16, r14
    2344:	59 87       	std	Y+9, r21	; 0x09
    2346:	0e 94 44 10 	call	0x2088	; 0x2088 <ks0108FillRect>
    234a:	89 2d       	mov	r24, r9
    234c:	6b 81       	ldd	r22, Y+3	; 0x03
    234e:	4a 2d       	mov	r20, r10
    2350:	20 e0       	ldi	r18, 0x00	; 0
    2352:	0e 94 44 10 	call	0x2088	; 0x2088 <ks0108FillRect>
    2356:	fd 81       	ldd	r31, Y+5	; 0x05
    2358:	cf 0e       	add	r12, r31
    235a:	59 85       	ldd	r21, Y+9	; 0x09
    235c:	85 2f       	mov	r24, r21
    235e:	6f 2d       	mov	r22, r15
    2360:	40 e0       	ldi	r20, 0x00	; 0
    2362:	2c 2d       	mov	r18, r12
    2364:	0e 94 44 10 	call	0x2088	; 0x2088 <ks0108FillRect>
    2368:	89 81       	ldd	r24, Y+1	; 0x01
    236a:	6f 2d       	mov	r22, r15
    236c:	40 e0       	ldi	r20, 0x00	; 0
    236e:	2c 2d       	mov	r18, r12
    2370:	0e 94 44 10 	call	0x2088	; 0x2088 <ks0108FillRect>
    2374:	2b 96       	adiw	r28, 0x0b	; 11
    2376:	0f b6       	in	r0, 0x3f	; 63
    2378:	f8 94       	cli
    237a:	de bf       	out	0x3e, r29	; 62
    237c:	0f be       	out	0x3f, r0	; 63
    237e:	cd bf       	out	0x3d, r28	; 61
    2380:	cf 91       	pop	r28
    2382:	df 91       	pop	r29
    2384:	1f 91       	pop	r17
    2386:	0f 91       	pop	r16
    2388:	ff 90       	pop	r15
    238a:	ef 90       	pop	r14
    238c:	df 90       	pop	r13
    238e:	cf 90       	pop	r12
    2390:	bf 90       	pop	r11
    2392:	af 90       	pop	r10
    2394:	9f 90       	pop	r9
    2396:	8f 90       	pop	r8
    2398:	7f 90       	pop	r7
    239a:	6f 90       	pop	r6
    239c:	5f 90       	pop	r5
    239e:	4f 90       	pop	r4
    23a0:	3f 90       	pop	r3
    23a2:	2f 90       	pop	r2
    23a4:	08 95       	ret

000023a6 <ks0108DrawRect>:
    23a6:	cf 92       	push	r12
    23a8:	df 92       	push	r13
    23aa:	ef 92       	push	r14
    23ac:	ff 92       	push	r15
    23ae:	0f 93       	push	r16
    23b0:	1f 93       	push	r17
    23b2:	e8 2e       	mov	r14, r24
    23b4:	f6 2e       	mov	r15, r22
    23b6:	c4 2e       	mov	r12, r20
    23b8:	d2 2e       	mov	r13, r18
    23ba:	20 e0       	ldi	r18, 0x00	; 0
    23bc:	0e 94 44 10 	call	0x2088	; 0x2088 <ks0108FillRect>
    23c0:	6d 2d       	mov	r22, r13
    23c2:	6f 0d       	add	r22, r15
    23c4:	8e 2d       	mov	r24, r14
    23c6:	4c 2d       	mov	r20, r12
    23c8:	20 e0       	ldi	r18, 0x00	; 0
    23ca:	0e 94 44 10 	call	0x2088	; 0x2088 <ks0108FillRect>
    23ce:	8e 2d       	mov	r24, r14
    23d0:	6f 2d       	mov	r22, r15
    23d2:	40 e0       	ldi	r20, 0x00	; 0
    23d4:	2d 2d       	mov	r18, r13
    23d6:	0e 94 44 10 	call	0x2088	; 0x2088 <ks0108FillRect>
    23da:	8c 2d       	mov	r24, r12
    23dc:	8e 0d       	add	r24, r14
    23de:	6f 2d       	mov	r22, r15
    23e0:	40 e0       	ldi	r20, 0x00	; 0
    23e2:	2d 2d       	mov	r18, r13
    23e4:	0e 94 44 10 	call	0x2088	; 0x2088 <ks0108FillRect>
    23e8:	1f 91       	pop	r17
    23ea:	0f 91       	pop	r16
    23ec:	ff 90       	pop	r15
    23ee:	ef 90       	pop	r14
    23f0:	df 90       	pop	r13
    23f2:	cf 90       	pop	r12
    23f4:	08 95       	ret

000023f6 <ks0108DrawLine>:
    23f6:	2f 92       	push	r2
    23f8:	3f 92       	push	r3
    23fa:	4f 92       	push	r4
    23fc:	5f 92       	push	r5
    23fe:	6f 92       	push	r6
    2400:	7f 92       	push	r7
    2402:	8f 92       	push	r8
    2404:	9f 92       	push	r9
    2406:	af 92       	push	r10
    2408:	bf 92       	push	r11
    240a:	cf 92       	push	r12
    240c:	df 92       	push	r13
    240e:	ef 92       	push	r14
    2410:	ff 92       	push	r15
    2412:	0f 93       	push	r16
    2414:	1f 93       	push	r17
    2416:	cf 93       	push	r28
    2418:	df 93       	push	r29
    241a:	18 2f       	mov	r17, r24
    241c:	f6 2e       	mov	r15, r22
    241e:	e4 2e       	mov	r14, r20
    2420:	d2 2e       	mov	r13, r18
    2422:	c0 2e       	mov	r12, r16
    2424:	84 17       	cp	r24, r20
    2426:	51 f4       	brne	.+20     	; 0x243c <ks0108DrawLine+0x46>
    2428:	26 17       	cp	r18, r22
    242a:	10 f4       	brcc	.+4      	; 0x2430 <ks0108DrawLine+0x3a>
    242c:	f2 2e       	mov	r15, r18
    242e:	d6 2e       	mov	r13, r22
    2430:	2d 2d       	mov	r18, r13
    2432:	2f 19       	sub	r18, r15
    2434:	81 2f       	mov	r24, r17
    2436:	6f 2d       	mov	r22, r15
    2438:	40 e0       	ldi	r20, 0x00	; 0
    243a:	0b c0       	rjmp	.+22     	; 0x2452 <ks0108DrawLine+0x5c>
    243c:	62 17       	cp	r22, r18
    243e:	69 f4       	brne	.+26     	; 0x245a <ks0108DrawLine+0x64>
    2440:	48 17       	cp	r20, r24
    2442:	10 f4       	brcc	.+4      	; 0x2448 <ks0108DrawLine+0x52>
    2444:	14 2f       	mov	r17, r20
    2446:	e8 2e       	mov	r14, r24
    2448:	4e 2d       	mov	r20, r14
    244a:	41 1b       	sub	r20, r17
    244c:	81 2f       	mov	r24, r17
    244e:	6f 2d       	mov	r22, r15
    2450:	20 e0       	ldi	r18, 0x00	; 0
    2452:	0c 2d       	mov	r16, r12
    2454:	0e 94 44 10 	call	0x2088	; 0x2088 <ks0108FillRect>
    2458:	cc c0       	rjmp	.+408    	; 0x25f2 <ks0108DrawLine+0x1fc>
    245a:	30 e0       	ldi	r19, 0x00	; 0
    245c:	46 2f       	mov	r20, r22
    245e:	50 e0       	ldi	r21, 0x00	; 0
    2460:	8e 2d       	mov	r24, r14
    2462:	90 e0       	ldi	r25, 0x00	; 0
    2464:	81 1b       	sub	r24, r17
    2466:	91 09       	sbc	r25, r1
    2468:	b9 01       	movw	r22, r18
    246a:	64 1b       	sub	r22, r20
    246c:	75 0b       	sbc	r23, r21
    246e:	68 17       	cp	r22, r24
    2470:	79 07       	cpc	r23, r25
    2472:	34 f4       	brge	.+12     	; 0x2480 <ks0108DrawLine+0x8a>
    2474:	42 1b       	sub	r20, r18
    2476:	53 0b       	sbc	r21, r19
    2478:	48 17       	cp	r20, r24
    247a:	59 07       	cpc	r21, r25
    247c:	0c f4       	brge	.+2      	; 0x2480 <ks0108DrawLine+0x8a>
    247e:	5d c0       	rjmp	.+186    	; 0x253a <ks0108DrawLine+0x144>
    2480:	e1 16       	cp	r14, r17
    2482:	30 f4       	brcc	.+12     	; 0x2490 <ks0108DrawLine+0x9a>
    2484:	8f 2d       	mov	r24, r15
    2486:	fd 2c       	mov	r15, r13
    2488:	d8 2e       	mov	r13, r24
    248a:	81 2f       	mov	r24, r17
    248c:	1e 2d       	mov	r17, r14
    248e:	e8 2e       	mov	r14, r24
    2490:	ae 2c       	mov	r10, r14
    2492:	a1 1a       	sub	r10, r17
    2494:	ed 2d       	mov	r30, r13
    2496:	f0 e0       	ldi	r31, 0x00	; 0
    2498:	2f 2d       	mov	r18, r15
    249a:	30 e0       	ldi	r19, 0x00	; 0
    249c:	4f 01       	movw	r8, r30
    249e:	82 1a       	sub	r8, r18
    24a0:	93 0a       	sbc	r9, r19
    24a2:	ca 2d       	mov	r28, r10
    24a4:	d0 e0       	ldi	r29, 0x00	; 0
    24a6:	48 ec       	ldi	r20, 0xC8	; 200
    24a8:	50 e0       	ldi	r21, 0x00	; 0
    24aa:	84 9e       	mul	r8, r20
    24ac:	c0 01       	movw	r24, r0
    24ae:	85 9e       	mul	r8, r21
    24b0:	90 0d       	add	r25, r0
    24b2:	94 9e       	mul	r9, r20
    24b4:	90 0d       	add	r25, r0
    24b6:	11 24       	eor	r1, r1
    24b8:	be 01       	movw	r22, r28
    24ba:	0e 94 8e 18 	call	0x311c	; 0x311c <__divmodhi4>
    24be:	1b 01       	movw	r2, r22
    24c0:	0f 2d       	mov	r16, r15
    24c2:	ee 24       	eor	r14, r14
    24c4:	88 ec       	ldi	r24, 0xC8	; 200
    24c6:	48 2e       	mov	r4, r24
    24c8:	51 2c       	mov	r5, r1
    24ca:	39 01       	movw	r6, r18
    24cc:	6e 1a       	sub	r6, r30
    24ce:	7f 0a       	sbc	r7, r31
    24d0:	2e 2d       	mov	r18, r14
    24d2:	30 e0       	ldi	r19, 0x00	; 0
    24d4:	22 9d       	mul	r18, r2
    24d6:	c0 01       	movw	r24, r0
    24d8:	23 9d       	mul	r18, r3
    24da:	90 0d       	add	r25, r0
    24dc:	32 9d       	mul	r19, r2
    24de:	90 0d       	add	r25, r0
    24e0:	11 24       	eor	r1, r1
    24e2:	b2 01       	movw	r22, r4
    24e4:	0e 94 8e 18 	call	0x311c	; 0x311c <__divmodhi4>
    24e8:	bf 2c       	mov	r11, r15
    24ea:	b6 0e       	add	r11, r22
    24ec:	84 36       	cpi	r24, 0x64	; 100
    24ee:	91 05       	cpc	r25, r1
    24f0:	14 f0       	brlt	.+4      	; 0x24f6 <ks0108DrawLine+0x100>
    24f2:	b3 94       	inc	r11
    24f4:	05 c0       	rjmp	.+10     	; 0x2500 <ks0108DrawLine+0x10a>
    24f6:	2f ef       	ldi	r18, 0xFF	; 255
    24f8:	8d 39       	cpi	r24, 0x9D	; 157
    24fa:	92 07       	cpc	r25, r18
    24fc:	0c f4       	brge	.+2      	; 0x2500 <ks0108DrawLine+0x10a>
    24fe:	ba 94       	dec	r11
    2500:	4e 2d       	mov	r20, r14
    2502:	41 0f       	add	r20, r17
    2504:	84 2f       	mov	r24, r20
    2506:	60 2f       	mov	r22, r16
    2508:	2b 2d       	mov	r18, r11
    250a:	0c 2d       	mov	r16, r12
    250c:	0e 94 fb 11 	call	0x23f6	; 0x23f6 <ks0108DrawLine>
    2510:	8c 16       	cp	r8, r28
    2512:	9d 06       	cpc	r9, r29
    2514:	2c f0       	brlt	.+10     	; 0x2520 <ks0108DrawLine+0x12a>
    2516:	fd 14       	cp	r15, r13
    2518:	18 f4       	brcc	.+6      	; 0x2520 <ks0108DrawLine+0x12a>
    251a:	0b 2d       	mov	r16, r11
    251c:	0f 5f       	subi	r16, 0xFF	; 255
    251e:	09 c0       	rjmp	.+18     	; 0x2532 <ks0108DrawLine+0x13c>
    2520:	6c 16       	cp	r6, r28
    2522:	7d 06       	cpc	r7, r29
    2524:	2c f0       	brlt	.+10     	; 0x2530 <ks0108DrawLine+0x13a>
    2526:	df 14       	cp	r13, r15
    2528:	18 f4       	brcc	.+6      	; 0x2530 <ks0108DrawLine+0x13a>
    252a:	0b 2d       	mov	r16, r11
    252c:	01 50       	subi	r16, 0x01	; 1
    252e:	01 c0       	rjmp	.+2      	; 0x2532 <ks0108DrawLine+0x13c>
    2530:	0b 2d       	mov	r16, r11
    2532:	e3 94       	inc	r14
    2534:	ae 14       	cp	r10, r14
    2536:	60 f6       	brcc	.-104    	; 0x24d0 <ks0108DrawLine+0xda>
    2538:	5c c0       	rjmp	.+184    	; 0x25f2 <ks0108DrawLine+0x1fc>
    253a:	df 14       	cp	r13, r15
    253c:	30 f4       	brcc	.+12     	; 0x254a <ks0108DrawLine+0x154>
    253e:	8f 2d       	mov	r24, r15
    2540:	fd 2c       	mov	r15, r13
    2542:	d8 2e       	mov	r13, r24
    2544:	81 2f       	mov	r24, r17
    2546:	1e 2d       	mov	r17, r14
    2548:	e8 2e       	mov	r14, r24
    254a:	ad 2c       	mov	r10, r13
    254c:	af 18       	sub	r10, r15
    254e:	ee 2d       	mov	r30, r14
    2550:	f0 e0       	ldi	r31, 0x00	; 0
    2552:	21 2f       	mov	r18, r17
    2554:	30 e0       	ldi	r19, 0x00	; 0
    2556:	4f 01       	movw	r8, r30
    2558:	82 1a       	sub	r8, r18
    255a:	93 0a       	sbc	r9, r19
    255c:	ca 2d       	mov	r28, r10
    255e:	d0 e0       	ldi	r29, 0x00	; 0
    2560:	48 ec       	ldi	r20, 0xC8	; 200
    2562:	50 e0       	ldi	r21, 0x00	; 0
    2564:	84 9e       	mul	r8, r20
    2566:	c0 01       	movw	r24, r0
    2568:	85 9e       	mul	r8, r21
    256a:	90 0d       	add	r25, r0
    256c:	94 9e       	mul	r9, r20
    256e:	90 0d       	add	r25, r0
    2570:	11 24       	eor	r1, r1
    2572:	be 01       	movw	r22, r28
    2574:	0e 94 8e 18 	call	0x311c	; 0x311c <__divmodhi4>
    2578:	1b 01       	movw	r2, r22
    257a:	41 2f       	mov	r20, r17
    257c:	dd 24       	eor	r13, r13
    257e:	08 ec       	ldi	r16, 0xC8	; 200
    2580:	40 2e       	mov	r4, r16
    2582:	51 2c       	mov	r5, r1
    2584:	39 01       	movw	r6, r18
    2586:	6e 1a       	sub	r6, r30
    2588:	7f 0a       	sbc	r7, r31
    258a:	2d 2d       	mov	r18, r13
    258c:	30 e0       	ldi	r19, 0x00	; 0
    258e:	22 9d       	mul	r18, r2
    2590:	c0 01       	movw	r24, r0
    2592:	23 9d       	mul	r18, r3
    2594:	90 0d       	add	r25, r0
    2596:	32 9d       	mul	r19, r2
    2598:	90 0d       	add	r25, r0
    259a:	11 24       	eor	r1, r1
    259c:	b2 01       	movw	r22, r4
    259e:	0e 94 8e 18 	call	0x311c	; 0x311c <__divmodhi4>
    25a2:	b1 2e       	mov	r11, r17
    25a4:	b6 0e       	add	r11, r22
    25a6:	84 36       	cpi	r24, 0x64	; 100
    25a8:	91 05       	cpc	r25, r1
    25aa:	14 f0       	brlt	.+4      	; 0x25b0 <ks0108DrawLine+0x1ba>
    25ac:	b3 94       	inc	r11
    25ae:	05 c0       	rjmp	.+10     	; 0x25ba <ks0108DrawLine+0x1c4>
    25b0:	2f ef       	ldi	r18, 0xFF	; 255
    25b2:	8d 39       	cpi	r24, 0x9D	; 157
    25b4:	92 07       	cpc	r25, r18
    25b6:	0c f4       	brge	.+2      	; 0x25ba <ks0108DrawLine+0x1c4>
    25b8:	ba 94       	dec	r11
    25ba:	2d 2d       	mov	r18, r13
    25bc:	2f 0d       	add	r18, r15
    25be:	84 2f       	mov	r24, r20
    25c0:	62 2f       	mov	r22, r18
    25c2:	4b 2d       	mov	r20, r11
    25c4:	0c 2d       	mov	r16, r12
    25c6:	0e 94 fb 11 	call	0x23f6	; 0x23f6 <ks0108DrawLine>
    25ca:	8c 16       	cp	r8, r28
    25cc:	9d 06       	cpc	r9, r29
    25ce:	2c f0       	brlt	.+10     	; 0x25da <ks0108DrawLine+0x1e4>
    25d0:	1e 15       	cp	r17, r14
    25d2:	18 f4       	brcc	.+6      	; 0x25da <ks0108DrawLine+0x1e4>
    25d4:	4b 2d       	mov	r20, r11
    25d6:	4f 5f       	subi	r20, 0xFF	; 255
    25d8:	09 c0       	rjmp	.+18     	; 0x25ec <ks0108DrawLine+0x1f6>
    25da:	6c 16       	cp	r6, r28
    25dc:	7d 06       	cpc	r7, r29
    25de:	2c f0       	brlt	.+10     	; 0x25ea <ks0108DrawLine+0x1f4>
    25e0:	e1 16       	cp	r14, r17
    25e2:	18 f4       	brcc	.+6      	; 0x25ea <ks0108DrawLine+0x1f4>
    25e4:	4b 2d       	mov	r20, r11
    25e6:	41 50       	subi	r20, 0x01	; 1
    25e8:	01 c0       	rjmp	.+2      	; 0x25ec <ks0108DrawLine+0x1f6>
    25ea:	4b 2d       	mov	r20, r11
    25ec:	d3 94       	inc	r13
    25ee:	ad 14       	cp	r10, r13
    25f0:	60 f6       	brcc	.-104    	; 0x258a <ks0108DrawLine+0x194>
    25f2:	df 91       	pop	r29
    25f4:	cf 91       	pop	r28
    25f6:	1f 91       	pop	r17
    25f8:	0f 91       	pop	r16
    25fa:	ff 90       	pop	r15
    25fc:	ef 90       	pop	r14
    25fe:	df 90       	pop	r13
    2600:	cf 90       	pop	r12
    2602:	bf 90       	pop	r11
    2604:	af 90       	pop	r10
    2606:	9f 90       	pop	r9
    2608:	8f 90       	pop	r8
    260a:	7f 90       	pop	r7
    260c:	6f 90       	pop	r6
    260e:	5f 90       	pop	r5
    2610:	4f 90       	pop	r4
    2612:	3f 90       	pop	r3
    2614:	2f 90       	pop	r2
    2616:	08 95       	ret

00002618 <createBatteryBar>:
    2618:	df 93       	push	r29
    261a:	cf 93       	push	r28
    261c:	00 d0       	rcall	.+0      	; 0x261e <createBatteryBar+0x6>
    261e:	00 d0       	rcall	.+0      	; 0x2620 <createBatteryBar+0x8>
    2620:	0f 92       	push	r0
    2622:	cd b7       	in	r28, 0x3d	; 61
    2624:	de b7       	in	r29, 0x3e	; 62
    2626:	e4 2f       	mov	r30, r20
    2628:	89 83       	std	Y+1, r24	; 0x01
    262a:	9a 83       	std	Y+2, r25	; 0x02
    262c:	6b 83       	std	Y+3, r22	; 0x03
    262e:	7c 83       	std	Y+4, r23	; 0x04
    2630:	9c 01       	movw	r18, r24
    2632:	ab 01       	movw	r20, r22
    2634:	6e 2f       	mov	r22, r30
    2636:	70 e0       	ldi	r23, 0x00	; 0
    2638:	80 e0       	ldi	r24, 0x00	; 0
    263a:	90 e0       	ldi	r25, 0x00	; 0
    263c:	0f 90       	pop	r0
    263e:	0f 90       	pop	r0
    2640:	0f 90       	pop	r0
    2642:	0f 90       	pop	r0
    2644:	0f 90       	pop	r0
    2646:	cf 91       	pop	r28
    2648:	df 91       	pop	r29
    264a:	08 95       	ret

0000264c <drawBar>:
    264c:	0f 93       	push	r16
    264e:	1f 93       	push	r17
    2650:	cf 93       	push	r28
    2652:	df 93       	push	r29
    2654:	ec 01       	movw	r28, r24
    2656:	88 81       	ld	r24, Y
    2658:	99 81       	ldd	r25, Y+1	; 0x01
    265a:	96 95       	lsr	r25
    265c:	98 2f       	mov	r25, r24
    265e:	88 27       	eor	r24, r24
    2660:	97 95       	ror	r25
    2662:	87 95       	ror	r24
    2664:	6a 81       	ldd	r22, Y+2	; 0x02
    2666:	7b 81       	ldd	r23, Y+3	; 0x03
    2668:	0e 94 7a 18 	call	0x30f4	; 0x30f4 <__udivmodhi4>
    266c:	16 2f       	mov	r17, r22
    266e:	80 e0       	ldi	r24, 0x00	; 0
    2670:	6c 81       	ldd	r22, Y+4	; 0x04
    2672:	40 e8       	ldi	r20, 0x80	; 128
    2674:	20 e0       	ldi	r18, 0x00	; 0
    2676:	00 e0       	ldi	r16, 0x00	; 0
    2678:	0e 94 44 10 	call	0x2088	; 0x2088 <ks0108FillRect>
    267c:	80 e0       	ldi	r24, 0x00	; 0
    267e:	6c 81       	ldd	r22, Y+4	; 0x04
    2680:	41 2f       	mov	r20, r17
    2682:	20 e0       	ldi	r18, 0x00	; 0
    2684:	0f ef       	ldi	r16, 0xFF	; 255
    2686:	0e 94 44 10 	call	0x2088	; 0x2088 <ks0108FillRect>
    268a:	df 91       	pop	r29
    268c:	cf 91       	pop	r28
    268e:	1f 91       	pop	r17
    2690:	0f 91       	pop	r16
    2692:	08 95       	ret

00002694 <updateBar>:
    2694:	fc 01       	movw	r30, r24
    2696:	60 83       	st	Z, r22
    2698:	11 82       	std	Z+1, r1	; 0x01
    269a:	0e 94 26 13 	call	0x264c	; 0x264c <drawBar>
    269e:	08 95       	ret

000026a0 <read_adc>:
    26a0:	90 91 7a 00 	lds	r25, 0x007A
    26a4:	90 93 7a 00 	sts	0x007A, r25
    26a8:	10 92 7c 00 	sts	0x007C, r1
    26ac:	90 91 7c 00 	lds	r25, 0x007C
    26b0:	90 62       	ori	r25, 0x20	; 32
    26b2:	90 93 7c 00 	sts	0x007C, r25
    26b6:	90 91 7c 00 	lds	r25, 0x007C
    26ba:	98 2b       	or	r25, r24
    26bc:	90 93 7c 00 	sts	0x007C, r25
    26c0:	80 91 7a 00 	lds	r24, 0x007A
    26c4:	80 6c       	ori	r24, 0xC0	; 192
    26c6:	80 93 7a 00 	sts	0x007A, r24
    26ca:	80 91 7a 00 	lds	r24, 0x007A
    26ce:	84 ff       	sbrs	r24, 4
    26d0:	fc cf       	rjmp	.-8      	; 0x26ca <read_adc+0x2a>
    26d2:	80 91 7a 00 	lds	r24, 0x007A
    26d6:	80 61       	ori	r24, 0x10	; 16
    26d8:	80 93 7a 00 	sts	0x007A, r24
    26dc:	80 91 79 00 	lds	r24, 0x0079
    26e0:	08 95       	ret

000026e2 <read_adc_16>:
    26e2:	90 91 7a 00 	lds	r25, 0x007A
    26e6:	90 93 7a 00 	sts	0x007A, r25
    26ea:	10 92 7c 00 	sts	0x007C, r1
    26ee:	90 91 7c 00 	lds	r25, 0x007C
    26f2:	9f 7d       	andi	r25, 0xDF	; 223
    26f4:	90 93 7c 00 	sts	0x007C, r25
    26f8:	90 91 7c 00 	lds	r25, 0x007C
    26fc:	98 2b       	or	r25, r24
    26fe:	90 93 7c 00 	sts	0x007C, r25
    2702:	80 91 7a 00 	lds	r24, 0x007A
    2706:	80 6c       	ori	r24, 0xC0	; 192
    2708:	80 93 7a 00 	sts	0x007A, r24
    270c:	80 91 7a 00 	lds	r24, 0x007A
    2710:	84 ff       	sbrs	r24, 4
    2712:	fc cf       	rjmp	.-8      	; 0x270c <read_adc_16+0x2a>
    2714:	80 91 7a 00 	lds	r24, 0x007A
    2718:	80 61       	ori	r24, 0x10	; 16
    271a:	80 93 7a 00 	sts	0x007A, r24
    271e:	20 91 78 00 	lds	r18, 0x0078
    2722:	30 91 79 00 	lds	r19, 0x0079
    2726:	c9 01       	movw	r24, r18
    2728:	08 95       	ret

0000272a <main>:
    272a:	2f 92       	push	r2
    272c:	3f 92       	push	r3
    272e:	4f 92       	push	r4
    2730:	5f 92       	push	r5
    2732:	6f 92       	push	r6
    2734:	7f 92       	push	r7
    2736:	8f 92       	push	r8
    2738:	9f 92       	push	r9
    273a:	af 92       	push	r10
    273c:	bf 92       	push	r11
    273e:	cf 92       	push	r12
    2740:	df 92       	push	r13
    2742:	ef 92       	push	r14
    2744:	ff 92       	push	r15
    2746:	0f 93       	push	r16
    2748:	1f 93       	push	r17
    274a:	df 93       	push	r29
    274c:	cf 93       	push	r28
    274e:	cd b7       	in	r28, 0x3d	; 61
    2750:	de b7       	in	r29, 0x3e	; 62
    2752:	a1 97       	sbiw	r28, 0x21	; 33
    2754:	0f b6       	in	r0, 0x3f	; 63
    2756:	f8 94       	cli
    2758:	de bf       	out	0x3e, r29	; 62
    275a:	0f be       	out	0x3f, r0	; 63
    275c:	cd bf       	out	0x3d, r28	; 61
    275e:	14 b8       	out	0x04, r1	; 4
    2760:	17 b8       	out	0x07, r1	; 7
    2762:	80 e3       	ldi	r24, 0x30	; 48
    2764:	88 b9       	out	0x08, r24	; 8
    2766:	8f ef       	ldi	r24, 0xFF	; 255
    2768:	8a b9       	out	0x0a, r24	; 10
    276a:	83 e2       	ldi	r24, 0x23	; 35
    276c:	91 e0       	ldi	r25, 0x01	; 1
    276e:	90 93 ae 01 	sts	0x01AE, r25
    2772:	80 93 ad 01 	sts	0x01AD, r24
    2776:	90 93 ac 01 	sts	0x01AC, r25
    277a:	80 93 ab 01 	sts	0x01AB, r24
    277e:	0e 94 6b 16 	call	0x2cd6	; 0x2cd6 <uart_init>
    2782:	78 94       	sei
    2784:	8f e0       	ldi	r24, 0x0F	; 15
    2786:	91 e0       	ldi	r25, 0x01	; 1
    2788:	0e 94 c3 18 	call	0x3186	; 0x3186 <puts>
    278c:	5d 9a       	sbi	0x0b, 5	; 11
    278e:	80 91 7a 01 	lds	r24, 0x017A
    2792:	82 60       	ori	r24, 0x02	; 2
    2794:	80 93 7a 01 	sts	0x017A, r24
    2798:	1a 82       	std	Y+2, r1	; 0x02
    279a:	19 82       	std	Y+1, r1	; 0x01
    279c:	05 c0       	rjmp	.+10     	; 0x27a8 <main+0x7e>
    279e:	89 81       	ldd	r24, Y+1	; 0x01
    27a0:	9a 81       	ldd	r25, Y+2	; 0x02
    27a2:	01 96       	adiw	r24, 0x01	; 1
    27a4:	9a 83       	std	Y+2, r25	; 0x02
    27a6:	89 83       	std	Y+1, r24	; 0x01
    27a8:	89 81       	ldd	r24, Y+1	; 0x01
    27aa:	9a 81       	ldd	r25, Y+2	; 0x02
    27ac:	2a e3       	ldi	r18, 0x3A	; 58
    27ae:	88 39       	cpi	r24, 0x98	; 152
    27b0:	92 07       	cpc	r25, r18
    27b2:	a8 f3       	brcs	.-22     	; 0x279e <main+0x74>
    27b4:	80 e0       	ldi	r24, 0x00	; 0
    27b6:	0e 94 d0 10 	call	0x21a0	; 0x21a0 <ks0108Init>
    27ba:	80 91 7a 00 	lds	r24, 0x007A
    27be:	86 60       	ori	r24, 0x06	; 6
    27c0:	80 93 7a 00 	sts	0x007A, r24
    27c4:	80 91 7c 00 	lds	r24, 0x007C
    27c8:	80 93 7c 00 	sts	0x007C, r24
    27cc:	80 91 7c 00 	lds	r24, 0x007C
    27d0:	80 62       	ori	r24, 0x20	; 32
    27d2:	80 93 7c 00 	sts	0x007C, r24
    27d6:	80 91 7a 00 	lds	r24, 0x007A
    27da:	80 68       	ori	r24, 0x80	; 128
    27dc:	80 93 7a 00 	sts	0x007A, r24
    27e0:	80 91 7a 00 	lds	r24, 0x007A
    27e4:	80 64       	ori	r24, 0x40	; 64
    27e6:	80 93 7a 00 	sts	0x007A, r24
    27ea:	83 e8       	ldi	r24, 0x83	; 131
    27ec:	86 bd       	out	0x26, r24	; 38
    27ee:	23 e0       	ldi	r18, 0x03	; 3
    27f0:	25 bd       	out	0x25, r18	; 37
    27f2:	80 91 6e 00 	lds	r24, 0x006E
    27f6:	81 60       	ori	r24, 0x01	; 1
    27f8:	80 93 6e 00 	sts	0x006E, r24
    27fc:	80 e0       	ldi	r24, 0x00	; 0
    27fe:	90 e0       	ldi	r25, 0x00	; 0
    2800:	a0 e7       	ldi	r26, 0x70	; 112
    2802:	b1 e4       	ldi	r27, 0x41	; 65
    2804:	80 93 6e 01 	sts	0x016E, r24
    2808:	90 93 6f 01 	sts	0x016F, r25
    280c:	a0 93 70 01 	sts	0x0170, r26
    2810:	b0 93 71 01 	sts	0x0171, r27
    2814:	80 e0       	ldi	r24, 0x00	; 0
    2816:	90 e0       	ldi	r25, 0x00	; 0
    2818:	a8 e8       	ldi	r26, 0x88	; 136
    281a:	b1 e4       	ldi	r27, 0x41	; 65
    281c:	80 93 60 01 	sts	0x0160, r24
    2820:	90 93 61 01 	sts	0x0161, r25
    2824:	a0 93 62 01 	sts	0x0162, r26
    2828:	b0 93 63 01 	sts	0x0163, r27
    282c:	10 92 59 01 	sts	0x0159, r1
    2830:	85 e2       	ldi	r24, 0x25	; 37
    2832:	80 93 5a 01 	sts	0x015A, r24
    2836:	8d e0       	ldi	r24, 0x0D	; 13
    2838:	80 93 5b 01 	sts	0x015B, r24
    283c:	20 93 5d 01 	sts	0x015D, r18
    2840:	92 e0       	ldi	r25, 0x02	; 2
    2842:	90 93 5e 01 	sts	0x015E, r25
    2846:	80 93 5f 01 	sts	0x015F, r24
    284a:	60 e0       	ldi	r22, 0x00	; 0
    284c:	70 e0       	ldi	r23, 0x00	; 0
    284e:	80 e7       	ldi	r24, 0x70	; 112
    2850:	91 e4       	ldi	r25, 0x41	; 65
    2852:	41 e0       	ldi	r20, 0x01	; 1
    2854:	21 e0       	ldi	r18, 0x01	; 1
    2856:	04 e6       	ldi	r16, 0x64	; 100
    2858:	11 e0       	ldi	r17, 0x01	; 1
    285a:	0e 94 a1 18 	call	0x3142	; 0x3142 <dtostrf>
    285e:	60 91 60 01 	lds	r22, 0x0160
    2862:	70 91 61 01 	lds	r23, 0x0161
    2866:	80 91 62 01 	lds	r24, 0x0162
    286a:	90 91 63 01 	lds	r25, 0x0163
    286e:	41 e0       	ldi	r20, 0x01	; 1
    2870:	21 e0       	ldi	r18, 0x01	; 1
    2872:	09 e6       	ldi	r16, 0x69	; 105
    2874:	11 e0       	ldi	r17, 0x01	; 1
    2876:	0e 94 a1 18 	call	0x3142	; 0x3142 <dtostrf>
    287a:	80 e0       	ldi	r24, 0x00	; 0
    287c:	60 e0       	ldi	r22, 0x00	; 0
    287e:	42 eb       	ldi	r20, 0xB2	; 178
    2880:	5b e0       	ldi	r21, 0x0B	; 11
    2882:	0e 94 e1 08 	call	0x11c2	; 0x11c2 <loadImageInverted>
    2886:	8f ef       	ldi	r24, 0xFF	; 255
    2888:	91 ee       	ldi	r25, 0xE1	; 225
    288a:	a4 e0       	ldi	r26, 0x04	; 4
    288c:	81 50       	subi	r24, 0x01	; 1
    288e:	90 40       	sbci	r25, 0x00	; 0
    2890:	a0 40       	sbci	r26, 0x00	; 0
    2892:	e1 f7       	brne	.-8      	; 0x288c <main+0x162>
    2894:	00 c0       	rjmp	.+0      	; 0x2896 <main+0x16c>
    2896:	00 00       	nop
    2898:	80 e0       	ldi	r24, 0x00	; 0
    289a:	60 e0       	ldi	r22, 0x00	; 0
    289c:	42 eb       	ldi	r20, 0xB2	; 178
    289e:	5b e0       	ldi	r21, 0x0B	; 11
    28a0:	0e 94 92 08 	call	0x1124	; 0x1124 <loadImage>
    28a4:	8f ef       	ldi	r24, 0xFF	; 255
    28a6:	99 e6       	ldi	r25, 0x69	; 105
    28a8:	a8 e1       	ldi	r26, 0x18	; 24
    28aa:	81 50       	subi	r24, 0x01	; 1
    28ac:	90 40       	sbci	r25, 0x00	; 0
    28ae:	a0 40       	sbci	r26, 0x00	; 0
    28b0:	e1 f7       	brne	.-8      	; 0x28aa <main+0x180>
    28b2:	00 c0       	rjmp	.+0      	; 0x28b4 <main+0x18a>
    28b4:	00 00       	nop
    28b6:	80 e0       	ldi	r24, 0x00	; 0
    28b8:	60 e0       	ldi	r22, 0x00	; 0
    28ba:	4f e7       	ldi	r20, 0x7F	; 127
    28bc:	2f e3       	ldi	r18, 0x3F	; 63
    28be:	00 e0       	ldi	r16, 0x00	; 0
    28c0:	0e 94 44 10 	call	0x2088	; 0x2088 <ks0108FillRect>
    28c4:	0e 94 8f 0b 	call	0x171e	; 0x171e <drawMainScreen>
    28c8:	85 e0       	ldi	r24, 0x05	; 5
    28ca:	0e 94 50 13 	call	0x26a0	; 0x26a0 <read_adc>
    28ce:	e8 2e       	mov	r14, r24
    28d0:	90 e0       	ldi	r25, 0x00	; 0
    28d2:	60 e0       	ldi	r22, 0x00	; 0
    28d4:	71 e0       	ldi	r23, 0x01	; 1
    28d6:	49 e0       	ldi	r20, 0x09	; 9
    28d8:	0e 94 0c 13 	call	0x2618	; 0x2618 <createBatteryBar>
    28dc:	2b 8b       	std	Y+19, r18	; 0x13
    28de:	3c 8b       	std	Y+20, r19	; 0x14
    28e0:	4d 8b       	std	Y+21, r20	; 0x15
    28e2:	5e 8b       	std	Y+22, r21	; 0x16
    28e4:	6f 8b       	std	Y+23, r22	; 0x17
    28e6:	de 01       	movw	r26, r28
    28e8:	19 96       	adiw	r26, 0x09	; 9
    28ea:	fe 01       	movw	r30, r28
    28ec:	73 96       	adiw	r30, 0x13	; 19
    28ee:	85 e0       	ldi	r24, 0x05	; 5
    28f0:	01 90       	ld	r0, Z+
    28f2:	0d 92       	st	X+, r0
    28f4:	81 50       	subi	r24, 0x01	; 1
    28f6:	e1 f7       	brne	.-8      	; 0x28f0 <main+0x1c6>
    28f8:	20 91 7b 01 	lds	r18, 0x017B
    28fc:	84 e1       	ldi	r24, 0x14	; 20
    28fe:	90 e0       	ldi	r25, 0x00	; 0
    2900:	82 1b       	sub	r24, r18
    2902:	91 09       	sbc	r25, r1
    2904:	64 e1       	ldi	r22, 0x14	; 20
    2906:	70 e0       	ldi	r23, 0x00	; 0
    2908:	4f e3       	ldi	r20, 0x3F	; 63
    290a:	0e 94 0c 13 	call	0x2618	; 0x2618 <createBatteryBar>
    290e:	2b 8b       	std	Y+19, r18	; 0x13
    2910:	3c 8b       	std	Y+20, r19	; 0x14
    2912:	4d 8b       	std	Y+21, r20	; 0x15
    2914:	5e 8b       	std	Y+22, r21	; 0x16
    2916:	6f 8b       	std	Y+23, r22	; 0x17
    2918:	de 01       	movw	r26, r28
    291a:	1e 96       	adiw	r26, 0x0e	; 14
    291c:	fe 01       	movw	r30, r28
    291e:	73 96       	adiw	r30, 0x13	; 19
    2920:	85 e0       	ldi	r24, 0x05	; 5
    2922:	01 90       	ld	r0, Z+
    2924:	0d 92       	st	X+, r0
    2926:	81 50       	subi	r24, 0x01	; 1
    2928:	e1 f7       	brne	.-8      	; 0x2922 <main+0x1f8>
    292a:	39 e0       	ldi	r19, 0x09	; 9
    292c:	a3 2e       	mov	r10, r19
    292e:	b1 2c       	mov	r11, r1
    2930:	ac 0e       	add	r10, r28
    2932:	bd 1e       	adc	r11, r29
    2934:	c5 01       	movw	r24, r10
    2936:	0e 94 26 13 	call	0x264c	; 0x264c <drawBar>
    293a:	8e 01       	movw	r16, r28
    293c:	02 5f       	subi	r16, 0xF2	; 242
    293e:	1f 4f       	sbci	r17, 0xFF	; 255
    2940:	c8 01       	movw	r24, r16
    2942:	0e 94 26 13 	call	0x264c	; 0x264c <drawBar>
    2946:	80 91 7a 01 	lds	r24, 0x017A
    294a:	82 60       	ori	r24, 0x02	; 2
    294c:	80 93 7a 01 	sts	0x017A, r24
    2950:	5e 2c       	mov	r5, r14
    2952:	4a 2c       	mov	r4, r10
    2954:	bb 8e       	std	Y+27, r11	; 0x1b
    2956:	08 a3       	std	Y+32, r16	; 0x20
    2958:	19 a3       	std	Y+33, r17	; 0x21
    295a:	23 e0       	ldi	r18, 0x03	; 3
    295c:	e2 2e       	mov	r14, r18
    295e:	f1 2c       	mov	r15, r1
    2960:	ec 0e       	add	r14, r28
    2962:	fd 1e       	adc	r15, r29
    2964:	96 e0       	ldi	r25, 0x06	; 6
    2966:	29 2e       	mov	r2, r25
    2968:	31 2c       	mov	r3, r1
    296a:	2c 0e       	add	r2, r28
    296c:	3d 1e       	adc	r3, r29
    296e:	80 91 7a 01 	lds	r24, 0x017A
    2972:	81 fd       	sbrc	r24, 1
    2974:	18 c0       	rjmp	.+48     	; 0x29a6 <main+0x27c>
    2976:	35 99       	sbic	0x06, 5	; 6
    2978:	16 c0       	rjmp	.+44     	; 0x29a6 <main+0x27c>
    297a:	0e 94 be 0b 	call	0x177c	; 0x177c <turnLcdOn>
    297e:	84 2d       	mov	r24, r4
    2980:	9b 8d       	ldd	r25, Y+27	; 0x1b
    2982:	0e 94 26 13 	call	0x264c	; 0x264c <drawBar>
    2986:	88 a1       	ldd	r24, Y+32	; 0x20
    2988:	99 a1       	ldd	r25, Y+33	; 0x21
    298a:	0e 94 26 13 	call	0x264c	; 0x264c <drawBar>
    298e:	10 92 7b 01 	sts	0x017B, r1
    2992:	80 91 7a 01 	lds	r24, 0x017A
    2996:	80 ff       	sbrs	r24, 0
    2998:	06 c0       	rjmp	.+12     	; 0x29a6 <main+0x27c>
    299a:	88 e7       	ldi	r24, 0x78	; 120
    299c:	65 e3       	ldi	r22, 0x35	; 53
    299e:	44 eb       	ldi	r20, 0xB4	; 180
    29a0:	5f e0       	ldi	r21, 0x0F	; 15
    29a2:	0e 94 92 08 	call	0x1124	; 0x1124 <loadImage>
    29a6:	80 91 7a 01 	lds	r24, 0x017A
    29aa:	81 ff       	sbrs	r24, 1
    29ac:	cf c0       	rjmp	.+414    	; 0x2b4c <main+0x422>
    29ae:	0e 94 e8 0b 	call	0x17d0	; 0x17d0 <readPos>
    29b2:	68 8f       	std	Y+24, r22	; 0x18
    29b4:	79 8f       	std	Y+25, r23	; 0x19
    29b6:	8a 8f       	std	Y+26, r24	; 0x1a
    29b8:	d7 01       	movw	r26, r14
    29ba:	fe 01       	movw	r30, r28
    29bc:	78 96       	adiw	r30, 0x18	; 24
    29be:	83 e0       	ldi	r24, 0x03	; 3
    29c0:	01 90       	ld	r0, Z+
    29c2:	0d 92       	st	X+, r0
    29c4:	81 50       	subi	r24, 0x01	; 1
    29c6:	e1 f7       	brne	.-8      	; 0x29c0 <main+0x296>
    29c8:	c7 01       	movw	r24, r14
    29ca:	b1 01       	movw	r22, r2
    29cc:	0e 94 90 0a 	call	0x1520	; 0x1520 <isDifferent>
    29d0:	88 23       	and	r24, r24
    29d2:	09 f4       	brne	.+2      	; 0x29d6 <main+0x2ac>
    29d4:	93 c0       	rjmp	.+294    	; 0x2afc <main+0x3d2>
    29d6:	82 ff       	sbrs	r24, 2
    29d8:	8a c0       	rjmp	.+276    	; 0x2aee <main+0x3c4>
    29da:	8d 81       	ldd	r24, Y+5	; 0x05
    29dc:	88 23       	and	r24, r24
    29de:	09 f4       	brne	.+2      	; 0x29e2 <main+0x2b8>
    29e0:	81 c0       	rjmp	.+258    	; 0x2ae4 <main+0x3ba>
    29e2:	c7 01       	movw	r24, r14
    29e4:	63 e4       	ldi	r22, 0x43	; 67
    29e6:	71 e0       	ldi	r23, 0x01	; 1
    29e8:	0e 94 6b 0a 	call	0x14d6	; 0x14d6 <isIn>
    29ec:	88 23       	and	r24, r24
    29ee:	91 f0       	breq	.+36     	; 0x2a14 <main+0x2ea>
    29f0:	82 e0       	ldi	r24, 0x02	; 2
    29f2:	0e 94 1d 0b 	call	0x163a	; 0x163a <drawMainScreenButtons>
    29f6:	60 91 60 01 	lds	r22, 0x0160
    29fa:	70 91 61 01 	lds	r23, 0x0161
    29fe:	80 91 62 01 	lds	r24, 0x0162
    2a02:	90 91 63 01 	lds	r25, 0x0163
    2a06:	20 e0       	ldi	r18, 0x00	; 0
    2a08:	30 e0       	ldi	r19, 0x00	; 0
    2a0a:	40 e0       	ldi	r20, 0x00	; 0
    2a0c:	5f e3       	ldi	r21, 0x3F	; 63
    2a0e:	0e 94 bb 16 	call	0x2d76	; 0x2d76 <__subsf3>
    2a12:	18 c0       	rjmp	.+48     	; 0x2a44 <main+0x31a>
    2a14:	c7 01       	movw	r24, r14
    2a16:	6f e3       	ldi	r22, 0x3F	; 63
    2a18:	71 e0       	ldi	r23, 0x01	; 1
    2a1a:	0e 94 6b 0a 	call	0x14d6	; 0x14d6 <isIn>
    2a1e:	88 23       	and	r24, r24
    2a20:	d1 f0       	breq	.+52     	; 0x2a56 <main+0x32c>
    2a22:	81 e0       	ldi	r24, 0x01	; 1
    2a24:	0e 94 1d 0b 	call	0x163a	; 0x163a <drawMainScreenButtons>
    2a28:	60 91 60 01 	lds	r22, 0x0160
    2a2c:	70 91 61 01 	lds	r23, 0x0161
    2a30:	80 91 62 01 	lds	r24, 0x0162
    2a34:	90 91 63 01 	lds	r25, 0x0163
    2a38:	20 e0       	ldi	r18, 0x00	; 0
    2a3a:	30 e0       	ldi	r19, 0x00	; 0
    2a3c:	40 e0       	ldi	r20, 0x00	; 0
    2a3e:	5f e3       	ldi	r21, 0x3F	; 63
    2a40:	0e 94 bc 16 	call	0x2d78	; 0x2d78 <__addsf3>
    2a44:	60 93 60 01 	sts	0x0160, r22
    2a48:	70 93 61 01 	sts	0x0161, r23
    2a4c:	80 93 62 01 	sts	0x0162, r24
    2a50:	90 93 63 01 	sts	0x0163, r25
    2a54:	13 c0       	rjmp	.+38     	; 0x2a7c <main+0x352>
    2a56:	c7 01       	movw	r24, r14
    2a58:	63 e3       	ldi	r22, 0x33	; 51
    2a5a:	71 e0       	ldi	r23, 0x01	; 1
    2a5c:	0e 94 6b 0a 	call	0x14d6	; 0x14d6 <isIn>
    2a60:	88 23       	and	r24, r24
    2a62:	61 f0       	breq	.+24     	; 0x2a7c <main+0x352>
    2a64:	83 e0       	ldi	r24, 0x03	; 3
    2a66:	0e 94 1d 0b 	call	0x163a	; 0x163a <drawMainScreenButtons>
    2a6a:	80 91 7a 01 	lds	r24, 0x017A
    2a6e:	85 ff       	sbrs	r24, 5
    2a70:	03 c0       	rjmp	.+6      	; 0x2a78 <main+0x34e>
    2a72:	0e 94 3f 0a 	call	0x147e	; 0x147e <closePresetDrawer>
    2a76:	02 c0       	rjmp	.+4      	; 0x2a7c <main+0x352>
    2a78:	0e 94 02 0a 	call	0x1404	; 0x1404 <drawPresetDrawer>
    2a7c:	80 91 7a 01 	lds	r24, 0x017A
    2a80:	85 ff       	sbrs	r24, 5
    2a82:	33 c0       	rjmp	.+102    	; 0x2aea <main+0x3c0>
    2a84:	c7 01       	movw	r24, r14
    2a86:	67 e3       	ldi	r22, 0x37	; 55
    2a88:	71 e0       	ldi	r23, 0x01	; 1
    2a8a:	0e 94 6b 0a 	call	0x14d6	; 0x14d6 <isIn>
    2a8e:	88 23       	and	r24, r24
    2a90:	59 f0       	breq	.+22     	; 0x2aa8 <main+0x37e>
    2a92:	a7 e1       	ldi	r26, 0x17	; 23
    2a94:	b1 e0       	ldi	r27, 0x01	; 1
    2a96:	b0 93 7e 01 	sts	0x017E, r27
    2a9a:	a0 93 7d 01 	sts	0x017D, r26
    2a9e:	80 e0       	ldi	r24, 0x00	; 0
    2aa0:	90 e0       	ldi	r25, 0x00	; 0
    2aa2:	a0 e9       	ldi	r26, 0x90	; 144
    2aa4:	b1 e4       	ldi	r27, 0x41	; 65
    2aa6:	11 c0       	rjmp	.+34     	; 0x2aca <main+0x3a0>
    2aa8:	c7 01       	movw	r24, r14
    2aaa:	6b e3       	ldi	r22, 0x3B	; 59
    2aac:	71 e0       	ldi	r23, 0x01	; 1
    2aae:	0e 94 6b 0a 	call	0x14d6	; 0x14d6 <isIn>
    2ab2:	88 23       	and	r24, r24
    2ab4:	d1 f0       	breq	.+52     	; 0x2aea <main+0x3c0>
    2ab6:	ad e1       	ldi	r26, 0x1D	; 29
    2ab8:	b1 e0       	ldi	r27, 0x01	; 1
    2aba:	b0 93 7e 01 	sts	0x017E, r27
    2abe:	a0 93 7d 01 	sts	0x017D, r26
    2ac2:	80 e0       	ldi	r24, 0x00	; 0
    2ac4:	90 e0       	ldi	r25, 0x00	; 0
    2ac6:	a0 e5       	ldi	r26, 0x50	; 80
    2ac8:	b1 e4       	ldi	r27, 0x41	; 65
    2aca:	80 93 60 01 	sts	0x0160, r24
    2ace:	90 93 61 01 	sts	0x0161, r25
    2ad2:	a0 93 62 01 	sts	0x0162, r26
    2ad6:	b0 93 63 01 	sts	0x0163, r27
    2ada:	0e 94 3f 0a 	call	0x147e	; 0x147e <closePresetDrawer>
    2ade:	0e 94 4e 0a 	call	0x149c	; 0x149c <drawPresetActive>
    2ae2:	03 c0       	rjmp	.+6      	; 0x2aea <main+0x3c0>
    2ae4:	80 e0       	ldi	r24, 0x00	; 0
    2ae6:	0e 94 1d 0b 	call	0x163a	; 0x163a <drawMainScreenButtons>
    2aea:	10 92 7b 01 	sts	0x017B, r1
    2aee:	d1 01       	movw	r26, r2
    2af0:	f7 01       	movw	r30, r14
    2af2:	83 e0       	ldi	r24, 0x03	; 3
    2af4:	01 90       	ld	r0, Z+
    2af6:	0d 92       	st	X+, r0
    2af8:	81 50       	subi	r24, 0x01	; 1
    2afa:	e1 f7       	brne	.-8      	; 0x2af4 <main+0x3ca>
    2afc:	a0 90 60 01 	lds	r10, 0x0160
    2b00:	b0 90 61 01 	lds	r11, 0x0161
    2b04:	c0 90 62 01 	lds	r12, 0x0162
    2b08:	d0 90 63 01 	lds	r13, 0x0163
    2b0c:	6c 8d       	ldd	r22, Y+28	; 0x1c
    2b0e:	7d 8d       	ldd	r23, Y+29	; 0x1d
    2b10:	8e 8d       	ldd	r24, Y+30	; 0x1e
    2b12:	9f 8d       	ldd	r25, Y+31	; 0x1f
    2b14:	a6 01       	movw	r20, r12
    2b16:	95 01       	movw	r18, r10
    2b18:	0e 94 20 17 	call	0x2e40	; 0x2e40 <__cmpsf2>
    2b1c:	88 23       	and	r24, r24
    2b1e:	b1 f0       	breq	.+44     	; 0x2b4c <main+0x422>
    2b20:	c6 01       	movw	r24, r12
    2b22:	b5 01       	movw	r22, r10
    2b24:	41 e0       	ldi	r20, 0x01	; 1
    2b26:	21 e0       	ldi	r18, 0x01	; 1
    2b28:	09 e6       	ldi	r16, 0x69	; 105
    2b2a:	11 e0       	ldi	r17, 0x01	; 1
    2b2c:	0e 94 a1 18 	call	0x3142	; 0x3142 <dtostrf>
    2b30:	80 91 60 01 	lds	r24, 0x0160
    2b34:	90 91 61 01 	lds	r25, 0x0161
    2b38:	a0 91 62 01 	lds	r26, 0x0162
    2b3c:	b0 91 63 01 	lds	r27, 0x0163
    2b40:	8c 8f       	std	Y+28, r24	; 0x1c
    2b42:	9d 8f       	std	Y+29, r25	; 0x1d
    2b44:	ae 8f       	std	Y+30, r26	; 0x1e
    2b46:	bf 8f       	std	Y+31, r27	; 0x1f
    2b48:	0e 94 bf 0a 	call	0x157e	; 0x157e <drawValues>
    2b4c:	80 91 7a 01 	lds	r24, 0x017A
    2b50:	82 ff       	sbrs	r24, 2
    2b52:	2f c0       	rjmp	.+94     	; 0x2bb2 <main+0x488>
    2b54:	8b 7f       	andi	r24, 0xFB	; 251
    2b56:	80 93 7a 01 	sts	0x017A, r24
    2b5a:	81 ff       	sbrs	r24, 1
    2b5c:	06 c0       	rjmp	.+12     	; 0x2b6a <main+0x440>
    2b5e:	80 91 7b 01 	lds	r24, 0x017B
    2b62:	84 31       	cpi	r24, 0x14	; 20
    2b64:	11 f4       	brne	.+4      	; 0x2b6a <main+0x440>
    2b66:	0e 94 e1 0b 	call	0x17c2	; 0x17c2 <turnLcdOff>
    2b6a:	80 91 7a 01 	lds	r24, 0x017A
    2b6e:	84 ff       	sbrs	r24, 4
    2b70:	1d c0       	rjmp	.+58     	; 0x2bac <main+0x482>
    2b72:	8f 7e       	andi	r24, 0xEF	; 239
    2b74:	80 93 7a 01 	sts	0x017A, r24
    2b78:	80 91 59 01 	lds	r24, 0x0159
    2b7c:	8f 5f       	subi	r24, 0xFF	; 255
    2b7e:	80 93 59 01 	sts	0x0159, r24
    2b82:	8c 33       	cpi	r24, 0x3C	; 60
    2b84:	81 f4       	brne	.+32     	; 0x2ba6 <main+0x47c>
    2b86:	10 92 59 01 	sts	0x0159, r1
    2b8a:	80 91 5a 01 	lds	r24, 0x015A
    2b8e:	8f 5f       	subi	r24, 0xFF	; 255
    2b90:	80 93 5a 01 	sts	0x015A, r24
    2b94:	8c 33       	cpi	r24, 0x3C	; 60
    2b96:	39 f4       	brne	.+14     	; 0x2ba6 <main+0x47c>
    2b98:	10 92 5a 01 	sts	0x015A, r1
    2b9c:	80 91 5b 01 	lds	r24, 0x015B
    2ba0:	8f 5f       	subi	r24, 0xFF	; 255
    2ba2:	80 93 5b 01 	sts	0x015B, r24
    2ba6:	0e 94 4f 09 	call	0x129e	; 0x129e <drawTime>
    2baa:	03 c0       	rjmp	.+6      	; 0x2bb2 <main+0x488>
    2bac:	80 61       	ori	r24, 0x10	; 16
    2bae:	80 93 7a 01 	sts	0x017A, r24
    2bb2:	20 91 7a 01 	lds	r18, 0x017A
    2bb6:	23 ff       	sbrs	r18, 3
    2bb8:	da ce       	rjmp	.-588    	; 0x296e <main+0x244>
    2bba:	27 7f       	andi	r18, 0xF7	; 247
    2bbc:	20 93 7a 01 	sts	0x017A, r18
    2bc0:	85 2d       	mov	r24, r5
    2bc2:	90 e0       	ldi	r25, 0x00	; 0
    2bc4:	8a 3c       	cpi	r24, 0xCA	; 202
    2bc6:	91 05       	cpc	r25, r1
    2bc8:	1c f4       	brge	.+6      	; 0x2bd0 <main+0x4a6>
    2bca:	87 3c       	cpi	r24, 0xC7	; 199
    2bcc:	91 05       	cpc	r25, r1
    2bce:	4c f4       	brge	.+18     	; 0x2be2 <main+0x4b8>
    2bd0:	21 ff       	sbrs	r18, 1
    2bd2:	05 c0       	rjmp	.+10     	; 0x2bde <main+0x4b4>
    2bd4:	84 2d       	mov	r24, r4
    2bd6:	9b 8d       	ldd	r25, Y+27	; 0x1b
    2bd8:	68 ec       	ldi	r22, 0xC8	; 200
    2bda:	0e 94 4a 13 	call	0x2694	; 0x2694 <updateBar>
    2bde:	88 ec       	ldi	r24, 0xC8	; 200
    2be0:	58 2e       	mov	r5, r24
    2be2:	a0 90 6e 01 	lds	r10, 0x016E
    2be6:	b0 90 6f 01 	lds	r11, 0x016F
    2bea:	c0 90 70 01 	lds	r12, 0x0170
    2bee:	d0 90 71 01 	lds	r13, 0x0171
    2bf2:	60 90 60 01 	lds	r6, 0x0160
    2bf6:	70 90 61 01 	lds	r7, 0x0161
    2bfa:	80 90 62 01 	lds	r8, 0x0162
    2bfe:	90 90 63 01 	lds	r9, 0x0163
    2c02:	c4 01       	movw	r24, r8
    2c04:	b3 01       	movw	r22, r6
    2c06:	20 e0       	ldi	r18, 0x00	; 0
    2c08:	30 e0       	ldi	r19, 0x00	; 0
    2c0a:	40 e0       	ldi	r20, 0x00	; 0
    2c0c:	5f e3       	ldi	r21, 0x3F	; 63
    2c0e:	0e 94 bb 16 	call	0x2d76	; 0x2d76 <__subsf3>
    2c12:	9b 01       	movw	r18, r22
    2c14:	ac 01       	movw	r20, r24
    2c16:	c6 01       	movw	r24, r12
    2c18:	b5 01       	movw	r22, r10
    2c1a:	0e 94 20 17 	call	0x2e40	; 0x2e40 <__cmpsf2>
    2c1e:	18 16       	cp	r1, r24
    2c20:	84 f0       	brlt	.+32     	; 0x2c42 <main+0x518>
    2c22:	80 91 7a 01 	lds	r24, 0x017A
    2c26:	80 fd       	sbrc	r24, 0
    2c28:	0c c0       	rjmp	.+24     	; 0x2c42 <main+0x518>
    2c2a:	81 60       	ori	r24, 0x01	; 1
    2c2c:	80 93 7a 01 	sts	0x017A, r24
    2c30:	81 ff       	sbrs	r24, 1
    2c32:	9d ce       	rjmp	.-710    	; 0x296e <main+0x244>
    2c34:	88 e7       	ldi	r24, 0x78	; 120
    2c36:	65 e3       	ldi	r22, 0x35	; 53
    2c38:	44 eb       	ldi	r20, 0xB4	; 180
    2c3a:	5f e0       	ldi	r21, 0x0F	; 15
    2c3c:	0e 94 92 08 	call	0x1124	; 0x1124 <loadImage>
    2c40:	96 ce       	rjmp	.-724    	; 0x296e <main+0x244>
    2c42:	c6 01       	movw	r24, r12
    2c44:	b5 01       	movw	r22, r10
    2c46:	a4 01       	movw	r20, r8
    2c48:	93 01       	movw	r18, r6
    2c4a:	0e 94 6a 18 	call	0x30d4	; 0x30d4 <__gesf2>
    2c4e:	87 fd       	sbrc	r24, 7
    2c50:	8e ce       	rjmp	.-740    	; 0x296e <main+0x244>
    2c52:	80 91 7a 01 	lds	r24, 0x017A
    2c56:	80 ff       	sbrs	r24, 0
    2c58:	8a ce       	rjmp	.-748    	; 0x296e <main+0x244>
    2c5a:	8e 7f       	andi	r24, 0xFE	; 254
    2c5c:	80 93 7a 01 	sts	0x017A, r24
    2c60:	81 ff       	sbrs	r24, 1
    2c62:	85 ce       	rjmp	.-758    	; 0x296e <main+0x244>
    2c64:	88 e7       	ldi	r24, 0x78	; 120
    2c66:	65 e3       	ldi	r22, 0x35	; 53
    2c68:	47 ef       	ldi	r20, 0xF7	; 247
    2c6a:	24 ef       	ldi	r18, 0xF4	; 244
    2c6c:	00 e0       	ldi	r16, 0x00	; 0
    2c6e:	0e 94 44 10 	call	0x2088	; 0x2088 <ks0108FillRect>
    2c72:	7d ce       	rjmp	.-774    	; 0x296e <main+0x244>

00002c74 <__vector_16>:
    2c74:	1f 92       	push	r1
    2c76:	0f 92       	push	r0
    2c78:	0f b6       	in	r0, 0x3f	; 63
    2c7a:	0f 92       	push	r0
    2c7c:	11 24       	eor	r1, r1
    2c7e:	2f 93       	push	r18
    2c80:	8f 93       	push	r24
    2c82:	9f 93       	push	r25
    2c84:	83 e8       	ldi	r24, 0x83	; 131
    2c86:	86 bd       	out	0x26, r24	; 38
    2c88:	80 91 4f 01 	lds	r24, 0x014F
    2c8c:	90 91 50 01 	lds	r25, 0x0150
    2c90:	01 96       	adiw	r24, 0x01	; 1
    2c92:	90 93 50 01 	sts	0x0150, r25
    2c96:	80 93 4f 01 	sts	0x014F, r24
    2c9a:	84 36       	cpi	r24, 0x64	; 100
    2c9c:	91 05       	cpc	r25, r1
    2c9e:	31 f4       	brne	.+12     	; 0x2cac <__vector_16+0x38>
    2ca0:	80 91 7a 01 	lds	r24, 0x017A
    2ca4:	88 60       	ori	r24, 0x08	; 8
    2ca6:	80 93 7a 01 	sts	0x017A, r24
    2caa:	0d c0       	rjmp	.+26     	; 0x2cc6 <__vector_16+0x52>
    2cac:	21 e0       	ldi	r18, 0x01	; 1
    2cae:	84 3f       	cpi	r24, 0xF4	; 244
    2cb0:	92 07       	cpc	r25, r18
    2cb2:	49 f4       	brne	.+18     	; 0x2cc6 <__vector_16+0x52>
    2cb4:	80 91 7a 01 	lds	r24, 0x017A
    2cb8:	84 60       	ori	r24, 0x04	; 4
    2cba:	80 93 7a 01 	sts	0x017A, r24
    2cbe:	10 92 50 01 	sts	0x0150, r1
    2cc2:	10 92 4f 01 	sts	0x014F, r1
    2cc6:	9f 91       	pop	r25
    2cc8:	8f 91       	pop	r24
    2cca:	2f 91       	pop	r18
    2ccc:	0f 90       	pop	r0
    2cce:	0f be       	out	0x3f, r0	; 63
    2cd0:	0f 90       	pop	r0
    2cd2:	1f 90       	pop	r1
    2cd4:	18 95       	reti

00002cd6 <uart_init>:
    2cd6:	83 e3       	ldi	r24, 0x33	; 51
    2cd8:	80 93 c4 00 	sts	0x00C4, r24
    2cdc:	88 e0       	ldi	r24, 0x08	; 8
    2cde:	80 93 c1 00 	sts	0x00C1, r24
    2ce2:	08 95       	ret

00002ce4 <uart_putchar>:
    2ce4:	90 91 c0 00 	lds	r25, 0x00C0
    2ce8:	95 ff       	sbrs	r25, 5
    2cea:	fc cf       	rjmp	.-8      	; 0x2ce4 <uart_putchar>
    2cec:	80 93 c6 00 	sts	0x00C6, r24
    2cf0:	80 e0       	ldi	r24, 0x00	; 0
    2cf2:	90 e0       	ldi	r25, 0x00	; 0
    2cf4:	08 95       	ret

00002cf6 <uart_putB>:
    2cf6:	90 91 c0 00 	lds	r25, 0x00C0
    2cfa:	95 ff       	sbrs	r25, 5
    2cfc:	fc cf       	rjmp	.-8      	; 0x2cf6 <uart_putB>
    2cfe:	80 93 c6 00 	sts	0x00C6, r24
    2d02:	08 95       	ret

00002d04 <uart_getchar>:
    2d04:	80 e0       	ldi	r24, 0x00	; 0
    2d06:	90 e0       	ldi	r25, 0x00	; 0
    2d08:	08 95       	ret

00002d0a <bufferContainsData>:
    2d0a:	80 91 a7 01 	lds	r24, 0x01A7
    2d0e:	08 95       	ret

00002d10 <readBuffer>:
    2d10:	20 91 a7 01 	lds	r18, 0x01A7
    2d14:	30 91 a8 01 	lds	r19, 0x01A8
    2d18:	82 17       	cp	r24, r18
    2d1a:	93 07       	cpc	r25, r19
    2d1c:	21 f4       	brne	.+8      	; 0x2d26 <readBuffer+0x16>
    2d1e:	10 92 a8 01 	sts	0x01A8, r1
    2d22:	10 92 a7 01 	sts	0x01A7, r1
    2d26:	81 58       	subi	r24, 0x81	; 129
    2d28:	9e 4f       	sbci	r25, 0xFE	; 254
    2d2a:	fc 01       	movw	r30, r24
    2d2c:	80 81       	ld	r24, Z
    2d2e:	08 95       	ret

00002d30 <__vector_18>:
    2d30:	1f 92       	push	r1
    2d32:	0f 92       	push	r0
    2d34:	0f b6       	in	r0, 0x3f	; 63
    2d36:	0f 92       	push	r0
    2d38:	11 24       	eor	r1, r1
    2d3a:	2f 93       	push	r18
    2d3c:	8f 93       	push	r24
    2d3e:	9f 93       	push	r25
    2d40:	ef 93       	push	r30
    2d42:	ff 93       	push	r31
    2d44:	80 91 a7 01 	lds	r24, 0x01A7
    2d48:	90 91 a8 01 	lds	r25, 0x01A8
    2d4c:	01 96       	adiw	r24, 0x01	; 1
    2d4e:	90 93 a8 01 	sts	0x01A8, r25
    2d52:	80 93 a7 01 	sts	0x01A7, r24
    2d56:	20 91 c6 00 	lds	r18, 0x00C6
    2d5a:	81 58       	subi	r24, 0x81	; 129
    2d5c:	9e 4f       	sbci	r25, 0xFE	; 254
    2d5e:	fc 01       	movw	r30, r24
    2d60:	20 83       	st	Z, r18
    2d62:	ff 91       	pop	r31
    2d64:	ef 91       	pop	r30
    2d66:	9f 91       	pop	r25
    2d68:	8f 91       	pop	r24
    2d6a:	2f 91       	pop	r18
    2d6c:	0f 90       	pop	r0
    2d6e:	0f be       	out	0x3f, r0	; 63
    2d70:	0f 90       	pop	r0
    2d72:	1f 90       	pop	r1
    2d74:	18 95       	reti

00002d76 <__subsf3>:
    2d76:	50 58       	subi	r21, 0x80	; 128

00002d78 <__addsf3>:
    2d78:	bb 27       	eor	r27, r27
    2d7a:	aa 27       	eor	r26, r26
    2d7c:	0e d0       	rcall	.+28     	; 0x2d9a <__addsf3x>
    2d7e:	70 c1       	rjmp	.+736    	; 0x3060 <__fp_round>
    2d80:	61 d1       	rcall	.+706    	; 0x3044 <__fp_pscA>
    2d82:	30 f0       	brcs	.+12     	; 0x2d90 <__addsf3+0x18>
    2d84:	66 d1       	rcall	.+716    	; 0x3052 <__fp_pscB>
    2d86:	20 f0       	brcs	.+8      	; 0x2d90 <__addsf3+0x18>
    2d88:	31 f4       	brne	.+12     	; 0x2d96 <__addsf3+0x1e>
    2d8a:	9f 3f       	cpi	r25, 0xFF	; 255
    2d8c:	11 f4       	brne	.+4      	; 0x2d92 <__addsf3+0x1a>
    2d8e:	1e f4       	brtc	.+6      	; 0x2d96 <__addsf3+0x1e>
    2d90:	56 c1       	rjmp	.+684    	; 0x303e <__fp_nan>
    2d92:	0e f4       	brtc	.+2      	; 0x2d96 <__addsf3+0x1e>
    2d94:	e0 95       	com	r30
    2d96:	e7 fb       	bst	r30, 7
    2d98:	4c c1       	rjmp	.+664    	; 0x3032 <__fp_inf>

00002d9a <__addsf3x>:
    2d9a:	e9 2f       	mov	r30, r25
    2d9c:	72 d1       	rcall	.+740    	; 0x3082 <__fp_split3>
    2d9e:	80 f3       	brcs	.-32     	; 0x2d80 <__addsf3+0x8>
    2da0:	ba 17       	cp	r27, r26
    2da2:	62 07       	cpc	r22, r18
    2da4:	73 07       	cpc	r23, r19
    2da6:	84 07       	cpc	r24, r20
    2da8:	95 07       	cpc	r25, r21
    2daa:	18 f0       	brcs	.+6      	; 0x2db2 <__addsf3x+0x18>
    2dac:	71 f4       	brne	.+28     	; 0x2dca <__addsf3x+0x30>
    2dae:	9e f5       	brtc	.+102    	; 0x2e16 <__addsf3x+0x7c>
    2db0:	8a c1       	rjmp	.+788    	; 0x30c6 <__fp_zero>
    2db2:	0e f4       	brtc	.+2      	; 0x2db6 <__addsf3x+0x1c>
    2db4:	e0 95       	com	r30
    2db6:	0b 2e       	mov	r0, r27
    2db8:	ba 2f       	mov	r27, r26
    2dba:	a0 2d       	mov	r26, r0
    2dbc:	0b 01       	movw	r0, r22
    2dbe:	b9 01       	movw	r22, r18
    2dc0:	90 01       	movw	r18, r0
    2dc2:	0c 01       	movw	r0, r24
    2dc4:	ca 01       	movw	r24, r20
    2dc6:	a0 01       	movw	r20, r0
    2dc8:	11 24       	eor	r1, r1
    2dca:	ff 27       	eor	r31, r31
    2dcc:	59 1b       	sub	r21, r25
    2dce:	99 f0       	breq	.+38     	; 0x2df6 <__addsf3x+0x5c>
    2dd0:	59 3f       	cpi	r21, 0xF9	; 249
    2dd2:	50 f4       	brcc	.+20     	; 0x2de8 <__addsf3x+0x4e>
    2dd4:	50 3e       	cpi	r21, 0xE0	; 224
    2dd6:	68 f1       	brcs	.+90     	; 0x2e32 <__addsf3x+0x98>
    2dd8:	1a 16       	cp	r1, r26
    2dda:	f0 40       	sbci	r31, 0x00	; 0
    2ddc:	a2 2f       	mov	r26, r18
    2dde:	23 2f       	mov	r18, r19
    2de0:	34 2f       	mov	r19, r20
    2de2:	44 27       	eor	r20, r20
    2de4:	58 5f       	subi	r21, 0xF8	; 248
    2de6:	f3 cf       	rjmp	.-26     	; 0x2dce <__addsf3x+0x34>
    2de8:	46 95       	lsr	r20
    2dea:	37 95       	ror	r19
    2dec:	27 95       	ror	r18
    2dee:	a7 95       	ror	r26
    2df0:	f0 40       	sbci	r31, 0x00	; 0
    2df2:	53 95       	inc	r21
    2df4:	c9 f7       	brne	.-14     	; 0x2de8 <__addsf3x+0x4e>
    2df6:	7e f4       	brtc	.+30     	; 0x2e16 <__addsf3x+0x7c>
    2df8:	1f 16       	cp	r1, r31
    2dfa:	ba 0b       	sbc	r27, r26
    2dfc:	62 0b       	sbc	r22, r18
    2dfe:	73 0b       	sbc	r23, r19
    2e00:	84 0b       	sbc	r24, r20
    2e02:	ba f0       	brmi	.+46     	; 0x2e32 <__addsf3x+0x98>
    2e04:	91 50       	subi	r25, 0x01	; 1
    2e06:	a1 f0       	breq	.+40     	; 0x2e30 <__addsf3x+0x96>
    2e08:	ff 0f       	add	r31, r31
    2e0a:	bb 1f       	adc	r27, r27
    2e0c:	66 1f       	adc	r22, r22
    2e0e:	77 1f       	adc	r23, r23
    2e10:	88 1f       	adc	r24, r24
    2e12:	c2 f7       	brpl	.-16     	; 0x2e04 <__addsf3x+0x6a>
    2e14:	0e c0       	rjmp	.+28     	; 0x2e32 <__addsf3x+0x98>
    2e16:	ba 0f       	add	r27, r26
    2e18:	62 1f       	adc	r22, r18
    2e1a:	73 1f       	adc	r23, r19
    2e1c:	84 1f       	adc	r24, r20
    2e1e:	48 f4       	brcc	.+18     	; 0x2e32 <__addsf3x+0x98>
    2e20:	87 95       	ror	r24
    2e22:	77 95       	ror	r23
    2e24:	67 95       	ror	r22
    2e26:	b7 95       	ror	r27
    2e28:	f7 95       	ror	r31
    2e2a:	9e 3f       	cpi	r25, 0xFE	; 254
    2e2c:	08 f0       	brcs	.+2      	; 0x2e30 <__addsf3x+0x96>
    2e2e:	b3 cf       	rjmp	.-154    	; 0x2d96 <__addsf3+0x1e>
    2e30:	93 95       	inc	r25
    2e32:	88 0f       	add	r24, r24
    2e34:	08 f0       	brcs	.+2      	; 0x2e38 <__addsf3x+0x9e>
    2e36:	99 27       	eor	r25, r25
    2e38:	ee 0f       	add	r30, r30
    2e3a:	97 95       	ror	r25
    2e3c:	87 95       	ror	r24
    2e3e:	08 95       	ret

00002e40 <__cmpsf2>:
    2e40:	d4 d0       	rcall	.+424    	; 0x2fea <__fp_cmp>
    2e42:	08 f4       	brcc	.+2      	; 0x2e46 <__cmpsf2+0x6>
    2e44:	81 e0       	ldi	r24, 0x01	; 1
    2e46:	08 95       	ret

00002e48 <__divsf3>:
    2e48:	0c d0       	rcall	.+24     	; 0x2e62 <__divsf3x>
    2e4a:	0a c1       	rjmp	.+532    	; 0x3060 <__fp_round>
    2e4c:	02 d1       	rcall	.+516    	; 0x3052 <__fp_pscB>
    2e4e:	40 f0       	brcs	.+16     	; 0x2e60 <__divsf3+0x18>
    2e50:	f9 d0       	rcall	.+498    	; 0x3044 <__fp_pscA>
    2e52:	30 f0       	brcs	.+12     	; 0x2e60 <__divsf3+0x18>
    2e54:	21 f4       	brne	.+8      	; 0x2e5e <__divsf3+0x16>
    2e56:	5f 3f       	cpi	r21, 0xFF	; 255
    2e58:	19 f0       	breq	.+6      	; 0x2e60 <__divsf3+0x18>
    2e5a:	eb c0       	rjmp	.+470    	; 0x3032 <__fp_inf>
    2e5c:	51 11       	cpse	r21, r1
    2e5e:	34 c1       	rjmp	.+616    	; 0x30c8 <__fp_szero>
    2e60:	ee c0       	rjmp	.+476    	; 0x303e <__fp_nan>

00002e62 <__divsf3x>:
    2e62:	0f d1       	rcall	.+542    	; 0x3082 <__fp_split3>
    2e64:	98 f3       	brcs	.-26     	; 0x2e4c <__divsf3+0x4>

00002e66 <__divsf3_pse>:
    2e66:	99 23       	and	r25, r25
    2e68:	c9 f3       	breq	.-14     	; 0x2e5c <__divsf3+0x14>
    2e6a:	55 23       	and	r21, r21
    2e6c:	b1 f3       	breq	.-20     	; 0x2e5a <__divsf3+0x12>
    2e6e:	95 1b       	sub	r25, r21
    2e70:	55 0b       	sbc	r21, r21
    2e72:	bb 27       	eor	r27, r27
    2e74:	aa 27       	eor	r26, r26
    2e76:	62 17       	cp	r22, r18
    2e78:	73 07       	cpc	r23, r19
    2e7a:	84 07       	cpc	r24, r20
    2e7c:	38 f0       	brcs	.+14     	; 0x2e8c <__divsf3_pse+0x26>
    2e7e:	9f 5f       	subi	r25, 0xFF	; 255
    2e80:	5f 4f       	sbci	r21, 0xFF	; 255
    2e82:	22 0f       	add	r18, r18
    2e84:	33 1f       	adc	r19, r19
    2e86:	44 1f       	adc	r20, r20
    2e88:	aa 1f       	adc	r26, r26
    2e8a:	a9 f3       	breq	.-22     	; 0x2e76 <__divsf3_pse+0x10>
    2e8c:	33 d0       	rcall	.+102    	; 0x2ef4 <__divsf3_pse+0x8e>
    2e8e:	0e 2e       	mov	r0, r30
    2e90:	3a f0       	brmi	.+14     	; 0x2ea0 <__divsf3_pse+0x3a>
    2e92:	e0 e8       	ldi	r30, 0x80	; 128
    2e94:	30 d0       	rcall	.+96     	; 0x2ef6 <__divsf3_pse+0x90>
    2e96:	91 50       	subi	r25, 0x01	; 1
    2e98:	50 40       	sbci	r21, 0x00	; 0
    2e9a:	e6 95       	lsr	r30
    2e9c:	00 1c       	adc	r0, r0
    2e9e:	ca f7       	brpl	.-14     	; 0x2e92 <__divsf3_pse+0x2c>
    2ea0:	29 d0       	rcall	.+82     	; 0x2ef4 <__divsf3_pse+0x8e>
    2ea2:	fe 2f       	mov	r31, r30
    2ea4:	27 d0       	rcall	.+78     	; 0x2ef4 <__divsf3_pse+0x8e>
    2ea6:	66 0f       	add	r22, r22
    2ea8:	77 1f       	adc	r23, r23
    2eaa:	88 1f       	adc	r24, r24
    2eac:	bb 1f       	adc	r27, r27
    2eae:	26 17       	cp	r18, r22
    2eb0:	37 07       	cpc	r19, r23
    2eb2:	48 07       	cpc	r20, r24
    2eb4:	ab 07       	cpc	r26, r27
    2eb6:	b0 e8       	ldi	r27, 0x80	; 128
    2eb8:	09 f0       	breq	.+2      	; 0x2ebc <__divsf3_pse+0x56>
    2eba:	bb 0b       	sbc	r27, r27
    2ebc:	80 2d       	mov	r24, r0
    2ebe:	bf 01       	movw	r22, r30
    2ec0:	ff 27       	eor	r31, r31
    2ec2:	93 58       	subi	r25, 0x83	; 131
    2ec4:	5f 4f       	sbci	r21, 0xFF	; 255
    2ec6:	2a f0       	brmi	.+10     	; 0x2ed2 <__divsf3_pse+0x6c>
    2ec8:	9e 3f       	cpi	r25, 0xFE	; 254
    2eca:	51 05       	cpc	r21, r1
    2ecc:	68 f0       	brcs	.+26     	; 0x2ee8 <__divsf3_pse+0x82>
    2ece:	b1 c0       	rjmp	.+354    	; 0x3032 <__fp_inf>
    2ed0:	fb c0       	rjmp	.+502    	; 0x30c8 <__fp_szero>
    2ed2:	5f 3f       	cpi	r21, 0xFF	; 255
    2ed4:	ec f3       	brlt	.-6      	; 0x2ed0 <__divsf3_pse+0x6a>
    2ed6:	98 3e       	cpi	r25, 0xE8	; 232
    2ed8:	dc f3       	brlt	.-10     	; 0x2ed0 <__divsf3_pse+0x6a>
    2eda:	86 95       	lsr	r24
    2edc:	77 95       	ror	r23
    2ede:	67 95       	ror	r22
    2ee0:	b7 95       	ror	r27
    2ee2:	f7 95       	ror	r31
    2ee4:	9f 5f       	subi	r25, 0xFF	; 255
    2ee6:	c9 f7       	brne	.-14     	; 0x2eda <__divsf3_pse+0x74>
    2ee8:	88 0f       	add	r24, r24
    2eea:	91 1d       	adc	r25, r1
    2eec:	96 95       	lsr	r25
    2eee:	87 95       	ror	r24
    2ef0:	97 f9       	bld	r25, 7
    2ef2:	08 95       	ret
    2ef4:	e1 e0       	ldi	r30, 0x01	; 1
    2ef6:	66 0f       	add	r22, r22
    2ef8:	77 1f       	adc	r23, r23
    2efa:	88 1f       	adc	r24, r24
    2efc:	bb 1f       	adc	r27, r27
    2efe:	62 17       	cp	r22, r18
    2f00:	73 07       	cpc	r23, r19
    2f02:	84 07       	cpc	r24, r20
    2f04:	ba 07       	cpc	r27, r26
    2f06:	20 f0       	brcs	.+8      	; 0x2f10 <__divsf3_pse+0xaa>
    2f08:	62 1b       	sub	r22, r18
    2f0a:	73 0b       	sbc	r23, r19
    2f0c:	84 0b       	sbc	r24, r20
    2f0e:	ba 0b       	sbc	r27, r26
    2f10:	ee 1f       	adc	r30, r30
    2f12:	88 f7       	brcc	.-30     	; 0x2ef6 <__divsf3_pse+0x90>
    2f14:	e0 95       	com	r30
    2f16:	08 95       	ret

00002f18 <__fixunssfsi>:
    2f18:	bc d0       	rcall	.+376    	; 0x3092 <__fp_splitA>
    2f1a:	88 f0       	brcs	.+34     	; 0x2f3e <__fixunssfsi+0x26>
    2f1c:	9f 57       	subi	r25, 0x7F	; 127
    2f1e:	90 f0       	brcs	.+36     	; 0x2f44 <__fixunssfsi+0x2c>
    2f20:	b9 2f       	mov	r27, r25
    2f22:	99 27       	eor	r25, r25
    2f24:	b7 51       	subi	r27, 0x17	; 23
    2f26:	a0 f0       	brcs	.+40     	; 0x2f50 <__fixunssfsi+0x38>
    2f28:	d1 f0       	breq	.+52     	; 0x2f5e <__fixunssfsi+0x46>
    2f2a:	66 0f       	add	r22, r22
    2f2c:	77 1f       	adc	r23, r23
    2f2e:	88 1f       	adc	r24, r24
    2f30:	99 1f       	adc	r25, r25
    2f32:	1a f0       	brmi	.+6      	; 0x2f3a <__fixunssfsi+0x22>
    2f34:	ba 95       	dec	r27
    2f36:	c9 f7       	brne	.-14     	; 0x2f2a <__fixunssfsi+0x12>
    2f38:	12 c0       	rjmp	.+36     	; 0x2f5e <__fixunssfsi+0x46>
    2f3a:	b1 30       	cpi	r27, 0x01	; 1
    2f3c:	81 f0       	breq	.+32     	; 0x2f5e <__fixunssfsi+0x46>
    2f3e:	c3 d0       	rcall	.+390    	; 0x30c6 <__fp_zero>
    2f40:	b1 e0       	ldi	r27, 0x01	; 1
    2f42:	08 95       	ret
    2f44:	c0 c0       	rjmp	.+384    	; 0x30c6 <__fp_zero>
    2f46:	67 2f       	mov	r22, r23
    2f48:	78 2f       	mov	r23, r24
    2f4a:	88 27       	eor	r24, r24
    2f4c:	b8 5f       	subi	r27, 0xF8	; 248
    2f4e:	39 f0       	breq	.+14     	; 0x2f5e <__fixunssfsi+0x46>
    2f50:	b9 3f       	cpi	r27, 0xF9	; 249
    2f52:	cc f3       	brlt	.-14     	; 0x2f46 <__fixunssfsi+0x2e>
    2f54:	86 95       	lsr	r24
    2f56:	77 95       	ror	r23
    2f58:	67 95       	ror	r22
    2f5a:	b3 95       	inc	r27
    2f5c:	d9 f7       	brne	.-10     	; 0x2f54 <__fixunssfsi+0x3c>
    2f5e:	3e f4       	brtc	.+14     	; 0x2f6e <__fixunssfsi+0x56>
    2f60:	90 95       	com	r25
    2f62:	80 95       	com	r24
    2f64:	70 95       	com	r23
    2f66:	61 95       	neg	r22
    2f68:	7f 4f       	sbci	r23, 0xFF	; 255
    2f6a:	8f 4f       	sbci	r24, 0xFF	; 255
    2f6c:	9f 4f       	sbci	r25, 0xFF	; 255
    2f6e:	08 95       	ret

00002f70 <__floatunsisf>:
    2f70:	e8 94       	clt
    2f72:	09 c0       	rjmp	.+18     	; 0x2f86 <__floatsisf+0x12>

00002f74 <__floatsisf>:
    2f74:	97 fb       	bst	r25, 7
    2f76:	3e f4       	brtc	.+14     	; 0x2f86 <__floatsisf+0x12>
    2f78:	90 95       	com	r25
    2f7a:	80 95       	com	r24
    2f7c:	70 95       	com	r23
    2f7e:	61 95       	neg	r22
    2f80:	7f 4f       	sbci	r23, 0xFF	; 255
    2f82:	8f 4f       	sbci	r24, 0xFF	; 255
    2f84:	9f 4f       	sbci	r25, 0xFF	; 255
    2f86:	99 23       	and	r25, r25
    2f88:	a9 f0       	breq	.+42     	; 0x2fb4 <__floatsisf+0x40>
    2f8a:	f9 2f       	mov	r31, r25
    2f8c:	96 e9       	ldi	r25, 0x96	; 150
    2f8e:	bb 27       	eor	r27, r27
    2f90:	93 95       	inc	r25
    2f92:	f6 95       	lsr	r31
    2f94:	87 95       	ror	r24
    2f96:	77 95       	ror	r23
    2f98:	67 95       	ror	r22
    2f9a:	b7 95       	ror	r27
    2f9c:	f1 11       	cpse	r31, r1
    2f9e:	f8 cf       	rjmp	.-16     	; 0x2f90 <__floatsisf+0x1c>
    2fa0:	fa f4       	brpl	.+62     	; 0x2fe0 <__floatsisf+0x6c>
    2fa2:	bb 0f       	add	r27, r27
    2fa4:	11 f4       	brne	.+4      	; 0x2faa <__floatsisf+0x36>
    2fa6:	60 ff       	sbrs	r22, 0
    2fa8:	1b c0       	rjmp	.+54     	; 0x2fe0 <__floatsisf+0x6c>
    2faa:	6f 5f       	subi	r22, 0xFF	; 255
    2fac:	7f 4f       	sbci	r23, 0xFF	; 255
    2fae:	8f 4f       	sbci	r24, 0xFF	; 255
    2fb0:	9f 4f       	sbci	r25, 0xFF	; 255
    2fb2:	16 c0       	rjmp	.+44     	; 0x2fe0 <__floatsisf+0x6c>
    2fb4:	88 23       	and	r24, r24
    2fb6:	11 f0       	breq	.+4      	; 0x2fbc <__floatsisf+0x48>
    2fb8:	96 e9       	ldi	r25, 0x96	; 150
    2fba:	11 c0       	rjmp	.+34     	; 0x2fde <__floatsisf+0x6a>
    2fbc:	77 23       	and	r23, r23
    2fbe:	21 f0       	breq	.+8      	; 0x2fc8 <__floatsisf+0x54>
    2fc0:	9e e8       	ldi	r25, 0x8E	; 142
    2fc2:	87 2f       	mov	r24, r23
    2fc4:	76 2f       	mov	r23, r22
    2fc6:	05 c0       	rjmp	.+10     	; 0x2fd2 <__floatsisf+0x5e>
    2fc8:	66 23       	and	r22, r22
    2fca:	71 f0       	breq	.+28     	; 0x2fe8 <__floatsisf+0x74>
    2fcc:	96 e8       	ldi	r25, 0x86	; 134
    2fce:	86 2f       	mov	r24, r22
    2fd0:	70 e0       	ldi	r23, 0x00	; 0
    2fd2:	60 e0       	ldi	r22, 0x00	; 0
    2fd4:	2a f0       	brmi	.+10     	; 0x2fe0 <__floatsisf+0x6c>
    2fd6:	9a 95       	dec	r25
    2fd8:	66 0f       	add	r22, r22
    2fda:	77 1f       	adc	r23, r23
    2fdc:	88 1f       	adc	r24, r24
    2fde:	da f7       	brpl	.-10     	; 0x2fd6 <__floatsisf+0x62>
    2fe0:	88 0f       	add	r24, r24
    2fe2:	96 95       	lsr	r25
    2fe4:	87 95       	ror	r24
    2fe6:	97 f9       	bld	r25, 7
    2fe8:	08 95       	ret

00002fea <__fp_cmp>:
    2fea:	99 0f       	add	r25, r25
    2fec:	00 08       	sbc	r0, r0
    2fee:	55 0f       	add	r21, r21
    2ff0:	aa 0b       	sbc	r26, r26
    2ff2:	e0 e8       	ldi	r30, 0x80	; 128
    2ff4:	fe ef       	ldi	r31, 0xFE	; 254
    2ff6:	16 16       	cp	r1, r22
    2ff8:	17 06       	cpc	r1, r23
    2ffa:	e8 07       	cpc	r30, r24
    2ffc:	f9 07       	cpc	r31, r25
    2ffe:	c0 f0       	brcs	.+48     	; 0x3030 <__fp_cmp+0x46>
    3000:	12 16       	cp	r1, r18
    3002:	13 06       	cpc	r1, r19
    3004:	e4 07       	cpc	r30, r20
    3006:	f5 07       	cpc	r31, r21
    3008:	98 f0       	brcs	.+38     	; 0x3030 <__fp_cmp+0x46>
    300a:	62 1b       	sub	r22, r18
    300c:	73 0b       	sbc	r23, r19
    300e:	84 0b       	sbc	r24, r20
    3010:	95 0b       	sbc	r25, r21
    3012:	39 f4       	brne	.+14     	; 0x3022 <__fp_cmp+0x38>
    3014:	0a 26       	eor	r0, r26
    3016:	61 f0       	breq	.+24     	; 0x3030 <__fp_cmp+0x46>
    3018:	23 2b       	or	r18, r19
    301a:	24 2b       	or	r18, r20
    301c:	25 2b       	or	r18, r21
    301e:	21 f4       	brne	.+8      	; 0x3028 <__fp_cmp+0x3e>
    3020:	08 95       	ret
    3022:	0a 26       	eor	r0, r26
    3024:	09 f4       	brne	.+2      	; 0x3028 <__fp_cmp+0x3e>
    3026:	a1 40       	sbci	r26, 0x01	; 1
    3028:	a6 95       	lsr	r26
    302a:	8f ef       	ldi	r24, 0xFF	; 255
    302c:	81 1d       	adc	r24, r1
    302e:	81 1d       	adc	r24, r1
    3030:	08 95       	ret

00003032 <__fp_inf>:
    3032:	97 f9       	bld	r25, 7
    3034:	9f 67       	ori	r25, 0x7F	; 127
    3036:	80 e8       	ldi	r24, 0x80	; 128
    3038:	70 e0       	ldi	r23, 0x00	; 0
    303a:	60 e0       	ldi	r22, 0x00	; 0
    303c:	08 95       	ret

0000303e <__fp_nan>:
    303e:	9f ef       	ldi	r25, 0xFF	; 255
    3040:	80 ec       	ldi	r24, 0xC0	; 192
    3042:	08 95       	ret

00003044 <__fp_pscA>:
    3044:	00 24       	eor	r0, r0
    3046:	0a 94       	dec	r0
    3048:	16 16       	cp	r1, r22
    304a:	17 06       	cpc	r1, r23
    304c:	18 06       	cpc	r1, r24
    304e:	09 06       	cpc	r0, r25
    3050:	08 95       	ret

00003052 <__fp_pscB>:
    3052:	00 24       	eor	r0, r0
    3054:	0a 94       	dec	r0
    3056:	12 16       	cp	r1, r18
    3058:	13 06       	cpc	r1, r19
    305a:	14 06       	cpc	r1, r20
    305c:	05 06       	cpc	r0, r21
    305e:	08 95       	ret

00003060 <__fp_round>:
    3060:	09 2e       	mov	r0, r25
    3062:	03 94       	inc	r0
    3064:	00 0c       	add	r0, r0
    3066:	11 f4       	brne	.+4      	; 0x306c <__fp_round+0xc>
    3068:	88 23       	and	r24, r24
    306a:	52 f0       	brmi	.+20     	; 0x3080 <__fp_round+0x20>
    306c:	bb 0f       	add	r27, r27
    306e:	40 f4       	brcc	.+16     	; 0x3080 <__fp_round+0x20>
    3070:	bf 2b       	or	r27, r31
    3072:	11 f4       	brne	.+4      	; 0x3078 <__fp_round+0x18>
    3074:	60 ff       	sbrs	r22, 0
    3076:	04 c0       	rjmp	.+8      	; 0x3080 <__fp_round+0x20>
    3078:	6f 5f       	subi	r22, 0xFF	; 255
    307a:	7f 4f       	sbci	r23, 0xFF	; 255
    307c:	8f 4f       	sbci	r24, 0xFF	; 255
    307e:	9f 4f       	sbci	r25, 0xFF	; 255
    3080:	08 95       	ret

00003082 <__fp_split3>:
    3082:	57 fd       	sbrc	r21, 7
    3084:	90 58       	subi	r25, 0x80	; 128
    3086:	44 0f       	add	r20, r20
    3088:	55 1f       	adc	r21, r21
    308a:	59 f0       	breq	.+22     	; 0x30a2 <__fp_splitA+0x10>
    308c:	5f 3f       	cpi	r21, 0xFF	; 255
    308e:	71 f0       	breq	.+28     	; 0x30ac <__fp_splitA+0x1a>
    3090:	47 95       	ror	r20

00003092 <__fp_splitA>:
    3092:	88 0f       	add	r24, r24
    3094:	97 fb       	bst	r25, 7
    3096:	99 1f       	adc	r25, r25
    3098:	61 f0       	breq	.+24     	; 0x30b2 <__fp_splitA+0x20>
    309a:	9f 3f       	cpi	r25, 0xFF	; 255
    309c:	79 f0       	breq	.+30     	; 0x30bc <__fp_splitA+0x2a>
    309e:	87 95       	ror	r24
    30a0:	08 95       	ret
    30a2:	12 16       	cp	r1, r18
    30a4:	13 06       	cpc	r1, r19
    30a6:	14 06       	cpc	r1, r20
    30a8:	55 1f       	adc	r21, r21
    30aa:	f2 cf       	rjmp	.-28     	; 0x3090 <__fp_split3+0xe>
    30ac:	46 95       	lsr	r20
    30ae:	f1 df       	rcall	.-30     	; 0x3092 <__fp_splitA>
    30b0:	08 c0       	rjmp	.+16     	; 0x30c2 <__fp_splitA+0x30>
    30b2:	16 16       	cp	r1, r22
    30b4:	17 06       	cpc	r1, r23
    30b6:	18 06       	cpc	r1, r24
    30b8:	99 1f       	adc	r25, r25
    30ba:	f1 cf       	rjmp	.-30     	; 0x309e <__fp_splitA+0xc>
    30bc:	86 95       	lsr	r24
    30be:	71 05       	cpc	r23, r1
    30c0:	61 05       	cpc	r22, r1
    30c2:	08 94       	sec
    30c4:	08 95       	ret

000030c6 <__fp_zero>:
    30c6:	e8 94       	clt

000030c8 <__fp_szero>:
    30c8:	bb 27       	eor	r27, r27
    30ca:	66 27       	eor	r22, r22
    30cc:	77 27       	eor	r23, r23
    30ce:	cb 01       	movw	r24, r22
    30d0:	97 f9       	bld	r25, 7
    30d2:	08 95       	ret

000030d4 <__gesf2>:
    30d4:	8a df       	rcall	.-236    	; 0x2fea <__fp_cmp>
    30d6:	08 f4       	brcc	.+2      	; 0x30da <__gesf2+0x6>
    30d8:	8f ef       	ldi	r24, 0xFF	; 255
    30da:	08 95       	ret

000030dc <__udivmodqi4>:
    30dc:	99 1b       	sub	r25, r25
    30de:	79 e0       	ldi	r23, 0x09	; 9
    30e0:	04 c0       	rjmp	.+8      	; 0x30ea <__udivmodqi4_ep>

000030e2 <__udivmodqi4_loop>:
    30e2:	99 1f       	adc	r25, r25
    30e4:	96 17       	cp	r25, r22
    30e6:	08 f0       	brcs	.+2      	; 0x30ea <__udivmodqi4_ep>
    30e8:	96 1b       	sub	r25, r22

000030ea <__udivmodqi4_ep>:
    30ea:	88 1f       	adc	r24, r24
    30ec:	7a 95       	dec	r23
    30ee:	c9 f7       	brne	.-14     	; 0x30e2 <__udivmodqi4_loop>
    30f0:	80 95       	com	r24
    30f2:	08 95       	ret

000030f4 <__udivmodhi4>:
    30f4:	aa 1b       	sub	r26, r26
    30f6:	bb 1b       	sub	r27, r27
    30f8:	51 e1       	ldi	r21, 0x11	; 17
    30fa:	07 c0       	rjmp	.+14     	; 0x310a <__udivmodhi4_ep>

000030fc <__udivmodhi4_loop>:
    30fc:	aa 1f       	adc	r26, r26
    30fe:	bb 1f       	adc	r27, r27
    3100:	a6 17       	cp	r26, r22
    3102:	b7 07       	cpc	r27, r23
    3104:	10 f0       	brcs	.+4      	; 0x310a <__udivmodhi4_ep>
    3106:	a6 1b       	sub	r26, r22
    3108:	b7 0b       	sbc	r27, r23

0000310a <__udivmodhi4_ep>:
    310a:	88 1f       	adc	r24, r24
    310c:	99 1f       	adc	r25, r25
    310e:	5a 95       	dec	r21
    3110:	a9 f7       	brne	.-22     	; 0x30fc <__udivmodhi4_loop>
    3112:	80 95       	com	r24
    3114:	90 95       	com	r25
    3116:	bc 01       	movw	r22, r24
    3118:	cd 01       	movw	r24, r26
    311a:	08 95       	ret

0000311c <__divmodhi4>:
    311c:	97 fb       	bst	r25, 7
    311e:	09 2e       	mov	r0, r25
    3120:	07 26       	eor	r0, r23
    3122:	0a d0       	rcall	.+20     	; 0x3138 <__divmodhi4_neg1>
    3124:	77 fd       	sbrc	r23, 7
    3126:	04 d0       	rcall	.+8      	; 0x3130 <__divmodhi4_neg2>
    3128:	e5 df       	rcall	.-54     	; 0x30f4 <__udivmodhi4>
    312a:	06 d0       	rcall	.+12     	; 0x3138 <__divmodhi4_neg1>
    312c:	00 20       	and	r0, r0
    312e:	1a f4       	brpl	.+6      	; 0x3136 <__divmodhi4_exit>

00003130 <__divmodhi4_neg2>:
    3130:	70 95       	com	r23
    3132:	61 95       	neg	r22
    3134:	7f 4f       	sbci	r23, 0xFF	; 255

00003136 <__divmodhi4_exit>:
    3136:	08 95       	ret

00003138 <__divmodhi4_neg1>:
    3138:	f6 f7       	brtc	.-4      	; 0x3136 <__divmodhi4_exit>
    313a:	90 95       	com	r25
    313c:	81 95       	neg	r24
    313e:	9f 4f       	sbci	r25, 0xFF	; 255
    3140:	08 95       	ret

00003142 <dtostrf>:
    3142:	ef 92       	push	r14
    3144:	ff 92       	push	r15
    3146:	0f 93       	push	r16
    3148:	1f 93       	push	r17
    314a:	32 2f       	mov	r19, r18
    314c:	f0 2e       	mov	r15, r16
    314e:	47 ff       	sbrs	r20, 7
    3150:	02 c0       	rjmp	.+4      	; 0x3156 <dtostrf+0x14>
    3152:	a4 e1       	ldi	r26, 0x14	; 20
    3154:	01 c0       	rjmp	.+2      	; 0x3158 <dtostrf+0x16>
    3156:	a4 e0       	ldi	r26, 0x04	; 4
    3158:	e4 2f       	mov	r30, r20
    315a:	ff 27       	eor	r31, r31
    315c:	e7 fd       	sbrc	r30, 7
    315e:	f0 95       	com	r31
    3160:	f7 ff       	sbrs	r31, 7
    3162:	03 c0       	rjmp	.+6      	; 0x316a <dtostrf+0x28>
    3164:	f0 95       	com	r31
    3166:	e1 95       	neg	r30
    3168:	ff 4f       	sbci	r31, 0xFF	; 255
    316a:	4f 2d       	mov	r20, r15
    316c:	51 2f       	mov	r21, r17
    316e:	2e 2f       	mov	r18, r30
    3170:	03 2f       	mov	r16, r19
    3172:	ea 2e       	mov	r14, r26
    3174:	0e 94 02 1b 	call	0x3604	; 0x3604 <dtoa_prf>
    3178:	8f 2d       	mov	r24, r15
    317a:	91 2f       	mov	r25, r17
    317c:	1f 91       	pop	r17
    317e:	0f 91       	pop	r16
    3180:	ff 90       	pop	r15
    3182:	ef 90       	pop	r14
    3184:	08 95       	ret

00003186 <puts>:
    3186:	ef 92       	push	r14
    3188:	ff 92       	push	r15
    318a:	0f 93       	push	r16
    318c:	1f 93       	push	r17
    318e:	cf 93       	push	r28
    3190:	df 93       	push	r29
    3192:	8c 01       	movw	r16, r24
    3194:	e0 91 ab 01 	lds	r30, 0x01AB
    3198:	f0 91 ac 01 	lds	r31, 0x01AC
    319c:	83 81       	ldd	r24, Z+3	; 0x03
    319e:	81 ff       	sbrs	r24, 1
    31a0:	1f c0       	rjmp	.+62     	; 0x31e0 <puts+0x5a>
    31a2:	c0 e0       	ldi	r28, 0x00	; 0
    31a4:	d0 e0       	ldi	r29, 0x00	; 0
    31a6:	0a c0       	rjmp	.+20     	; 0x31bc <puts+0x36>
    31a8:	db 01       	movw	r26, r22
    31aa:	18 96       	adiw	r26, 0x08	; 8
    31ac:	ed 91       	ld	r30, X+
    31ae:	fc 91       	ld	r31, X
    31b0:	19 97       	sbiw	r26, 0x09	; 9
    31b2:	09 95       	icall
    31b4:	00 97       	sbiw	r24, 0x00	; 0
    31b6:	11 f0       	breq	.+4      	; 0x31bc <puts+0x36>
    31b8:	cf ef       	ldi	r28, 0xFF	; 255
    31ba:	df ef       	ldi	r29, 0xFF	; 255
    31bc:	f8 01       	movw	r30, r16
    31be:	81 91       	ld	r24, Z+
    31c0:	8f 01       	movw	r16, r30
    31c2:	60 91 ab 01 	lds	r22, 0x01AB
    31c6:	70 91 ac 01 	lds	r23, 0x01AC
    31ca:	88 23       	and	r24, r24
    31cc:	69 f7       	brne	.-38     	; 0x31a8 <puts+0x22>
    31ce:	db 01       	movw	r26, r22
    31d0:	18 96       	adiw	r26, 0x08	; 8
    31d2:	ed 91       	ld	r30, X+
    31d4:	fc 91       	ld	r31, X
    31d6:	19 97       	sbiw	r26, 0x09	; 9
    31d8:	8a e0       	ldi	r24, 0x0A	; 10
    31da:	09 95       	icall
    31dc:	00 97       	sbiw	r24, 0x00	; 0
    31de:	11 f0       	breq	.+4      	; 0x31e4 <puts+0x5e>
    31e0:	cf ef       	ldi	r28, 0xFF	; 255
    31e2:	df ef       	ldi	r29, 0xFF	; 255
    31e4:	ce 01       	movw	r24, r28
    31e6:	cd b7       	in	r28, 0x3d	; 61
    31e8:	de b7       	in	r29, 0x3e	; 62
    31ea:	e6 e0       	ldi	r30, 0x06	; 6
    31ec:	0c 94 f9 1d 	jmp	0x3bf2	; 0x3bf2 <__epilogue_restores__+0x18>

000031f0 <sprintf>:
    31f0:	ae e0       	ldi	r26, 0x0E	; 14
    31f2:	b0 e0       	ldi	r27, 0x00	; 0
    31f4:	ee ef       	ldi	r30, 0xFE	; 254
    31f6:	f8 e1       	ldi	r31, 0x18	; 24
    31f8:	0c 94 df 1d 	jmp	0x3bbe	; 0x3bbe <__prologue_saves__+0x1c>
    31fc:	0d 89       	ldd	r16, Y+21	; 0x15
    31fe:	1e 89       	ldd	r17, Y+22	; 0x16
    3200:	86 e0       	ldi	r24, 0x06	; 6
    3202:	8c 83       	std	Y+4, r24	; 0x04
    3204:	1a 83       	std	Y+2, r17	; 0x02
    3206:	09 83       	std	Y+1, r16	; 0x01
    3208:	8f ef       	ldi	r24, 0xFF	; 255
    320a:	9f e7       	ldi	r25, 0x7F	; 127
    320c:	9e 83       	std	Y+6, r25	; 0x06
    320e:	8d 83       	std	Y+5, r24	; 0x05
    3210:	9e 01       	movw	r18, r28
    3212:	27 5e       	subi	r18, 0xE7	; 231
    3214:	3f 4f       	sbci	r19, 0xFF	; 255
    3216:	ce 01       	movw	r24, r28
    3218:	01 96       	adiw	r24, 0x01	; 1
    321a:	6f 89       	ldd	r22, Y+23	; 0x17
    321c:	78 8d       	ldd	r23, Y+24	; 0x18
    321e:	a9 01       	movw	r20, r18
    3220:	0e 94 1b 19 	call	0x3236	; 0x3236 <vfprintf>
    3224:	ef 81       	ldd	r30, Y+7	; 0x07
    3226:	f8 85       	ldd	r31, Y+8	; 0x08
    3228:	e0 0f       	add	r30, r16
    322a:	f1 1f       	adc	r31, r17
    322c:	10 82       	st	Z, r1
    322e:	2e 96       	adiw	r28, 0x0e	; 14
    3230:	e4 e0       	ldi	r30, 0x04	; 4
    3232:	0c 94 fb 1d 	jmp	0x3bf6	; 0x3bf6 <__epilogue_restores__+0x1c>

00003236 <vfprintf>:
    3236:	ac e0       	ldi	r26, 0x0C	; 12
    3238:	b0 e0       	ldi	r27, 0x00	; 0
    323a:	e1 e2       	ldi	r30, 0x21	; 33
    323c:	f9 e1       	ldi	r31, 0x19	; 25
    323e:	0c 94 d1 1d 	jmp	0x3ba2	; 0x3ba2 <__prologue_saves__>
    3242:	6c 01       	movw	r12, r24
    3244:	1b 01       	movw	r2, r22
    3246:	8a 01       	movw	r16, r20
    3248:	fc 01       	movw	r30, r24
    324a:	17 82       	std	Z+7, r1	; 0x07
    324c:	16 82       	std	Z+6, r1	; 0x06
    324e:	83 81       	ldd	r24, Z+3	; 0x03
    3250:	81 ff       	sbrs	r24, 1
    3252:	d1 c1       	rjmp	.+930    	; 0x35f6 <vfprintf+0x3c0>
    3254:	2e 01       	movw	r4, r28
    3256:	08 94       	sec
    3258:	41 1c       	adc	r4, r1
    325a:	51 1c       	adc	r5, r1
    325c:	f6 01       	movw	r30, r12
    325e:	93 81       	ldd	r25, Z+3	; 0x03
    3260:	f1 01       	movw	r30, r2
    3262:	93 fd       	sbrc	r25, 3
    3264:	85 91       	lpm	r24, Z+
    3266:	93 ff       	sbrs	r25, 3
    3268:	81 91       	ld	r24, Z+
    326a:	1f 01       	movw	r2, r30
    326c:	88 23       	and	r24, r24
    326e:	09 f4       	brne	.+2      	; 0x3272 <vfprintf+0x3c>
    3270:	be c1       	rjmp	.+892    	; 0x35ee <vfprintf+0x3b8>
    3272:	85 32       	cpi	r24, 0x25	; 37
    3274:	39 f4       	brne	.+14     	; 0x3284 <vfprintf+0x4e>
    3276:	93 fd       	sbrc	r25, 3
    3278:	85 91       	lpm	r24, Z+
    327a:	93 ff       	sbrs	r25, 3
    327c:	81 91       	ld	r24, Z+
    327e:	1f 01       	movw	r2, r30
    3280:	85 32       	cpi	r24, 0x25	; 37
    3282:	29 f4       	brne	.+10     	; 0x328e <vfprintf+0x58>
    3284:	90 e0       	ldi	r25, 0x00	; 0
    3286:	b6 01       	movw	r22, r12
    3288:	0e 94 47 1d 	call	0x3a8e	; 0x3a8e <fputc>
    328c:	e7 cf       	rjmp	.-50     	; 0x325c <vfprintf+0x26>
    328e:	ee 24       	eor	r14, r14
    3290:	ff 24       	eor	r15, r15
    3292:	20 e0       	ldi	r18, 0x00	; 0
    3294:	20 32       	cpi	r18, 0x20	; 32
    3296:	b0 f4       	brcc	.+44     	; 0x32c4 <vfprintf+0x8e>
    3298:	8b 32       	cpi	r24, 0x2B	; 43
    329a:	69 f0       	breq	.+26     	; 0x32b6 <vfprintf+0x80>
    329c:	8c 32       	cpi	r24, 0x2C	; 44
    329e:	28 f4       	brcc	.+10     	; 0x32aa <vfprintf+0x74>
    32a0:	80 32       	cpi	r24, 0x20	; 32
    32a2:	51 f0       	breq	.+20     	; 0x32b8 <vfprintf+0x82>
    32a4:	83 32       	cpi	r24, 0x23	; 35
    32a6:	71 f4       	brne	.+28     	; 0x32c4 <vfprintf+0x8e>
    32a8:	0b c0       	rjmp	.+22     	; 0x32c0 <vfprintf+0x8a>
    32aa:	8d 32       	cpi	r24, 0x2D	; 45
    32ac:	39 f0       	breq	.+14     	; 0x32bc <vfprintf+0x86>
    32ae:	80 33       	cpi	r24, 0x30	; 48
    32b0:	49 f4       	brne	.+18     	; 0x32c4 <vfprintf+0x8e>
    32b2:	21 60       	ori	r18, 0x01	; 1
    32b4:	2c c0       	rjmp	.+88     	; 0x330e <vfprintf+0xd8>
    32b6:	22 60       	ori	r18, 0x02	; 2
    32b8:	24 60       	ori	r18, 0x04	; 4
    32ba:	29 c0       	rjmp	.+82     	; 0x330e <vfprintf+0xd8>
    32bc:	28 60       	ori	r18, 0x08	; 8
    32be:	27 c0       	rjmp	.+78     	; 0x330e <vfprintf+0xd8>
    32c0:	20 61       	ori	r18, 0x10	; 16
    32c2:	25 c0       	rjmp	.+74     	; 0x330e <vfprintf+0xd8>
    32c4:	27 fd       	sbrc	r18, 7
    32c6:	2c c0       	rjmp	.+88     	; 0x3320 <vfprintf+0xea>
    32c8:	38 2f       	mov	r19, r24
    32ca:	30 53       	subi	r19, 0x30	; 48
    32cc:	3a 30       	cpi	r19, 0x0A	; 10
    32ce:	98 f4       	brcc	.+38     	; 0x32f6 <vfprintf+0xc0>
    32d0:	26 ff       	sbrs	r18, 6
    32d2:	08 c0       	rjmp	.+16     	; 0x32e4 <vfprintf+0xae>
    32d4:	8e 2d       	mov	r24, r14
    32d6:	88 0f       	add	r24, r24
    32d8:	e8 2e       	mov	r14, r24
    32da:	ee 0c       	add	r14, r14
    32dc:	ee 0c       	add	r14, r14
    32de:	e8 0e       	add	r14, r24
    32e0:	e3 0e       	add	r14, r19
    32e2:	15 c0       	rjmp	.+42     	; 0x330e <vfprintf+0xd8>
    32e4:	8f 2d       	mov	r24, r15
    32e6:	88 0f       	add	r24, r24
    32e8:	f8 2e       	mov	r15, r24
    32ea:	ff 0c       	add	r15, r15
    32ec:	ff 0c       	add	r15, r15
    32ee:	f8 0e       	add	r15, r24
    32f0:	f3 0e       	add	r15, r19
    32f2:	20 62       	ori	r18, 0x20	; 32
    32f4:	0c c0       	rjmp	.+24     	; 0x330e <vfprintf+0xd8>
    32f6:	8e 32       	cpi	r24, 0x2E	; 46
    32f8:	21 f4       	brne	.+8      	; 0x3302 <vfprintf+0xcc>
    32fa:	26 fd       	sbrc	r18, 6
    32fc:	78 c1       	rjmp	.+752    	; 0x35ee <vfprintf+0x3b8>
    32fe:	20 64       	ori	r18, 0x40	; 64
    3300:	06 c0       	rjmp	.+12     	; 0x330e <vfprintf+0xd8>
    3302:	8c 36       	cpi	r24, 0x6C	; 108
    3304:	11 f4       	brne	.+4      	; 0x330a <vfprintf+0xd4>
    3306:	20 68       	ori	r18, 0x80	; 128
    3308:	02 c0       	rjmp	.+4      	; 0x330e <vfprintf+0xd8>
    330a:	88 36       	cpi	r24, 0x68	; 104
    330c:	49 f4       	brne	.+18     	; 0x3320 <vfprintf+0xea>
    330e:	f1 01       	movw	r30, r2
    3310:	93 fd       	sbrc	r25, 3
    3312:	85 91       	lpm	r24, Z+
    3314:	93 ff       	sbrs	r25, 3
    3316:	81 91       	ld	r24, Z+
    3318:	1f 01       	movw	r2, r30
    331a:	88 23       	and	r24, r24
    331c:	09 f0       	breq	.+2      	; 0x3320 <vfprintf+0xea>
    331e:	ba cf       	rjmp	.-140    	; 0x3294 <vfprintf+0x5e>
    3320:	98 2f       	mov	r25, r24
    3322:	95 54       	subi	r25, 0x45	; 69
    3324:	93 30       	cpi	r25, 0x03	; 3
    3326:	18 f0       	brcs	.+6      	; 0x332e <vfprintf+0xf8>
    3328:	90 52       	subi	r25, 0x20	; 32
    332a:	93 30       	cpi	r25, 0x03	; 3
    332c:	28 f4       	brcc	.+10     	; 0x3338 <vfprintf+0x102>
    332e:	0c 5f       	subi	r16, 0xFC	; 252
    3330:	1f 4f       	sbci	r17, 0xFF	; 255
    3332:	ff e3       	ldi	r31, 0x3F	; 63
    3334:	f9 83       	std	Y+1, r31	; 0x01
    3336:	0d c0       	rjmp	.+26     	; 0x3352 <vfprintf+0x11c>
    3338:	83 36       	cpi	r24, 0x63	; 99
    333a:	31 f0       	breq	.+12     	; 0x3348 <vfprintf+0x112>
    333c:	83 37       	cpi	r24, 0x73	; 115
    333e:	71 f0       	breq	.+28     	; 0x335c <vfprintf+0x126>
    3340:	83 35       	cpi	r24, 0x53	; 83
    3342:	09 f0       	breq	.+2      	; 0x3346 <vfprintf+0x110>
    3344:	60 c0       	rjmp	.+192    	; 0x3406 <vfprintf+0x1d0>
    3346:	22 c0       	rjmp	.+68     	; 0x338c <vfprintf+0x156>
    3348:	f8 01       	movw	r30, r16
    334a:	80 81       	ld	r24, Z
    334c:	89 83       	std	Y+1, r24	; 0x01
    334e:	0e 5f       	subi	r16, 0xFE	; 254
    3350:	1f 4f       	sbci	r17, 0xFF	; 255
    3352:	42 01       	movw	r8, r4
    3354:	71 e0       	ldi	r23, 0x01	; 1
    3356:	a7 2e       	mov	r10, r23
    3358:	b1 2c       	mov	r11, r1
    335a:	16 c0       	rjmp	.+44     	; 0x3388 <vfprintf+0x152>
    335c:	62 e0       	ldi	r22, 0x02	; 2
    335e:	66 2e       	mov	r6, r22
    3360:	71 2c       	mov	r7, r1
    3362:	60 0e       	add	r6, r16
    3364:	71 1e       	adc	r7, r17
    3366:	f8 01       	movw	r30, r16
    3368:	80 80       	ld	r8, Z
    336a:	91 80       	ldd	r9, Z+1	; 0x01
    336c:	26 ff       	sbrs	r18, 6
    336e:	03 c0       	rjmp	.+6      	; 0x3376 <vfprintf+0x140>
    3370:	6e 2d       	mov	r22, r14
    3372:	70 e0       	ldi	r23, 0x00	; 0
    3374:	02 c0       	rjmp	.+4      	; 0x337a <vfprintf+0x144>
    3376:	6f ef       	ldi	r22, 0xFF	; 255
    3378:	7f ef       	ldi	r23, 0xFF	; 255
    337a:	c4 01       	movw	r24, r8
    337c:	2c 87       	std	Y+12, r18	; 0x0c
    337e:	0e 94 3c 1d 	call	0x3a78	; 0x3a78 <strnlen>
    3382:	5c 01       	movw	r10, r24
    3384:	83 01       	movw	r16, r6
    3386:	2c 85       	ldd	r18, Y+12	; 0x0c
    3388:	2f 77       	andi	r18, 0x7F	; 127
    338a:	17 c0       	rjmp	.+46     	; 0x33ba <vfprintf+0x184>
    338c:	52 e0       	ldi	r21, 0x02	; 2
    338e:	65 2e       	mov	r6, r21
    3390:	71 2c       	mov	r7, r1
    3392:	60 0e       	add	r6, r16
    3394:	71 1e       	adc	r7, r17
    3396:	f8 01       	movw	r30, r16
    3398:	80 80       	ld	r8, Z
    339a:	91 80       	ldd	r9, Z+1	; 0x01
    339c:	26 ff       	sbrs	r18, 6
    339e:	03 c0       	rjmp	.+6      	; 0x33a6 <vfprintf+0x170>
    33a0:	6e 2d       	mov	r22, r14
    33a2:	70 e0       	ldi	r23, 0x00	; 0
    33a4:	02 c0       	rjmp	.+4      	; 0x33aa <vfprintf+0x174>
    33a6:	6f ef       	ldi	r22, 0xFF	; 255
    33a8:	7f ef       	ldi	r23, 0xFF	; 255
    33aa:	c4 01       	movw	r24, r8
    33ac:	2c 87       	std	Y+12, r18	; 0x0c
    33ae:	0e 94 31 1d 	call	0x3a62	; 0x3a62 <strnlen_P>
    33b2:	5c 01       	movw	r10, r24
    33b4:	2c 85       	ldd	r18, Y+12	; 0x0c
    33b6:	20 68       	ori	r18, 0x80	; 128
    33b8:	83 01       	movw	r16, r6
    33ba:	23 fd       	sbrc	r18, 3
    33bc:	20 c0       	rjmp	.+64     	; 0x33fe <vfprintf+0x1c8>
    33be:	08 c0       	rjmp	.+16     	; 0x33d0 <vfprintf+0x19a>
    33c0:	80 e2       	ldi	r24, 0x20	; 32
    33c2:	90 e0       	ldi	r25, 0x00	; 0
    33c4:	b6 01       	movw	r22, r12
    33c6:	2c 87       	std	Y+12, r18	; 0x0c
    33c8:	0e 94 47 1d 	call	0x3a8e	; 0x3a8e <fputc>
    33cc:	fa 94       	dec	r15
    33ce:	2c 85       	ldd	r18, Y+12	; 0x0c
    33d0:	8f 2d       	mov	r24, r15
    33d2:	90 e0       	ldi	r25, 0x00	; 0
    33d4:	a8 16       	cp	r10, r24
    33d6:	b9 06       	cpc	r11, r25
    33d8:	98 f3       	brcs	.-26     	; 0x33c0 <vfprintf+0x18a>
    33da:	11 c0       	rjmp	.+34     	; 0x33fe <vfprintf+0x1c8>
    33dc:	f4 01       	movw	r30, r8
    33de:	27 fd       	sbrc	r18, 7
    33e0:	85 91       	lpm	r24, Z+
    33e2:	27 ff       	sbrs	r18, 7
    33e4:	81 91       	ld	r24, Z+
    33e6:	4f 01       	movw	r8, r30
    33e8:	90 e0       	ldi	r25, 0x00	; 0
    33ea:	b6 01       	movw	r22, r12
    33ec:	2c 87       	std	Y+12, r18	; 0x0c
    33ee:	0e 94 47 1d 	call	0x3a8e	; 0x3a8e <fputc>
    33f2:	2c 85       	ldd	r18, Y+12	; 0x0c
    33f4:	f1 10       	cpse	r15, r1
    33f6:	fa 94       	dec	r15
    33f8:	08 94       	sec
    33fa:	a1 08       	sbc	r10, r1
    33fc:	b1 08       	sbc	r11, r1
    33fe:	a1 14       	cp	r10, r1
    3400:	b1 04       	cpc	r11, r1
    3402:	61 f7       	brne	.-40     	; 0x33dc <vfprintf+0x1a6>
    3404:	f1 c0       	rjmp	.+482    	; 0x35e8 <vfprintf+0x3b2>
    3406:	84 36       	cpi	r24, 0x64	; 100
    3408:	11 f0       	breq	.+4      	; 0x340e <vfprintf+0x1d8>
    340a:	89 36       	cpi	r24, 0x69	; 105
    340c:	49 f5       	brne	.+82     	; 0x3460 <vfprintf+0x22a>
    340e:	27 ff       	sbrs	r18, 7
    3410:	08 c0       	rjmp	.+16     	; 0x3422 <vfprintf+0x1ec>
    3412:	f8 01       	movw	r30, r16
    3414:	60 81       	ld	r22, Z
    3416:	71 81       	ldd	r23, Z+1	; 0x01
    3418:	82 81       	ldd	r24, Z+2	; 0x02
    341a:	93 81       	ldd	r25, Z+3	; 0x03
    341c:	0c 5f       	subi	r16, 0xFC	; 252
    341e:	1f 4f       	sbci	r17, 0xFF	; 255
    3420:	09 c0       	rjmp	.+18     	; 0x3434 <vfprintf+0x1fe>
    3422:	f8 01       	movw	r30, r16
    3424:	60 81       	ld	r22, Z
    3426:	71 81       	ldd	r23, Z+1	; 0x01
    3428:	88 27       	eor	r24, r24
    342a:	77 fd       	sbrc	r23, 7
    342c:	80 95       	com	r24
    342e:	98 2f       	mov	r25, r24
    3430:	0e 5f       	subi	r16, 0xFE	; 254
    3432:	1f 4f       	sbci	r17, 0xFF	; 255
    3434:	4f e6       	ldi	r20, 0x6F	; 111
    3436:	b4 2e       	mov	r11, r20
    3438:	b2 22       	and	r11, r18
    343a:	97 ff       	sbrs	r25, 7
    343c:	09 c0       	rjmp	.+18     	; 0x3450 <vfprintf+0x21a>
    343e:	90 95       	com	r25
    3440:	80 95       	com	r24
    3442:	70 95       	com	r23
    3444:	61 95       	neg	r22
    3446:	7f 4f       	sbci	r23, 0xFF	; 255
    3448:	8f 4f       	sbci	r24, 0xFF	; 255
    344a:	9f 4f       	sbci	r25, 0xFF	; 255
    344c:	f0 e8       	ldi	r31, 0x80	; 128
    344e:	bf 2a       	or	r11, r31
    3450:	a2 01       	movw	r20, r4
    3452:	2a e0       	ldi	r18, 0x0A	; 10
    3454:	30 e0       	ldi	r19, 0x00	; 0
    3456:	0e 94 73 1d 	call	0x3ae6	; 0x3ae6 <__ultoa_invert>
    345a:	78 2e       	mov	r7, r24
    345c:	74 18       	sub	r7, r4
    345e:	45 c0       	rjmp	.+138    	; 0x34ea <vfprintf+0x2b4>
    3460:	85 37       	cpi	r24, 0x75	; 117
    3462:	31 f4       	brne	.+12     	; 0x3470 <vfprintf+0x23a>
    3464:	3f ee       	ldi	r19, 0xEF	; 239
    3466:	b3 2e       	mov	r11, r19
    3468:	b2 22       	and	r11, r18
    346a:	2a e0       	ldi	r18, 0x0A	; 10
    346c:	30 e0       	ldi	r19, 0x00	; 0
    346e:	25 c0       	rjmp	.+74     	; 0x34ba <vfprintf+0x284>
    3470:	99 ef       	ldi	r25, 0xF9	; 249
    3472:	b9 2e       	mov	r11, r25
    3474:	b2 22       	and	r11, r18
    3476:	8f 36       	cpi	r24, 0x6F	; 111
    3478:	c1 f0       	breq	.+48     	; 0x34aa <vfprintf+0x274>
    347a:	80 37       	cpi	r24, 0x70	; 112
    347c:	20 f4       	brcc	.+8      	; 0x3486 <vfprintf+0x250>
    347e:	88 35       	cpi	r24, 0x58	; 88
    3480:	09 f0       	breq	.+2      	; 0x3484 <vfprintf+0x24e>
    3482:	b5 c0       	rjmp	.+362    	; 0x35ee <vfprintf+0x3b8>
    3484:	0d c0       	rjmp	.+26     	; 0x34a0 <vfprintf+0x26a>
    3486:	80 37       	cpi	r24, 0x70	; 112
    3488:	21 f0       	breq	.+8      	; 0x3492 <vfprintf+0x25c>
    348a:	88 37       	cpi	r24, 0x78	; 120
    348c:	09 f0       	breq	.+2      	; 0x3490 <vfprintf+0x25a>
    348e:	af c0       	rjmp	.+350    	; 0x35ee <vfprintf+0x3b8>
    3490:	02 c0       	rjmp	.+4      	; 0x3496 <vfprintf+0x260>
    3492:	20 e1       	ldi	r18, 0x10	; 16
    3494:	b2 2a       	or	r11, r18
    3496:	b4 fe       	sbrs	r11, 4
    3498:	0b c0       	rjmp	.+22     	; 0x34b0 <vfprintf+0x27a>
    349a:	84 e0       	ldi	r24, 0x04	; 4
    349c:	b8 2a       	or	r11, r24
    349e:	08 c0       	rjmp	.+16     	; 0x34b0 <vfprintf+0x27a>
    34a0:	b4 fe       	sbrs	r11, 4
    34a2:	09 c0       	rjmp	.+18     	; 0x34b6 <vfprintf+0x280>
    34a4:	e6 e0       	ldi	r30, 0x06	; 6
    34a6:	be 2a       	or	r11, r30
    34a8:	06 c0       	rjmp	.+12     	; 0x34b6 <vfprintf+0x280>
    34aa:	28 e0       	ldi	r18, 0x08	; 8
    34ac:	30 e0       	ldi	r19, 0x00	; 0
    34ae:	05 c0       	rjmp	.+10     	; 0x34ba <vfprintf+0x284>
    34b0:	20 e1       	ldi	r18, 0x10	; 16
    34b2:	30 e0       	ldi	r19, 0x00	; 0
    34b4:	02 c0       	rjmp	.+4      	; 0x34ba <vfprintf+0x284>
    34b6:	20 e1       	ldi	r18, 0x10	; 16
    34b8:	32 e0       	ldi	r19, 0x02	; 2
    34ba:	b7 fe       	sbrs	r11, 7
    34bc:	08 c0       	rjmp	.+16     	; 0x34ce <vfprintf+0x298>
    34be:	f8 01       	movw	r30, r16
    34c0:	60 81       	ld	r22, Z
    34c2:	71 81       	ldd	r23, Z+1	; 0x01
    34c4:	82 81       	ldd	r24, Z+2	; 0x02
    34c6:	93 81       	ldd	r25, Z+3	; 0x03
    34c8:	0c 5f       	subi	r16, 0xFC	; 252
    34ca:	1f 4f       	sbci	r17, 0xFF	; 255
    34cc:	07 c0       	rjmp	.+14     	; 0x34dc <vfprintf+0x2a6>
    34ce:	f8 01       	movw	r30, r16
    34d0:	60 81       	ld	r22, Z
    34d2:	71 81       	ldd	r23, Z+1	; 0x01
    34d4:	80 e0       	ldi	r24, 0x00	; 0
    34d6:	90 e0       	ldi	r25, 0x00	; 0
    34d8:	0e 5f       	subi	r16, 0xFE	; 254
    34da:	1f 4f       	sbci	r17, 0xFF	; 255
    34dc:	a2 01       	movw	r20, r4
    34de:	0e 94 73 1d 	call	0x3ae6	; 0x3ae6 <__ultoa_invert>
    34e2:	78 2e       	mov	r7, r24
    34e4:	74 18       	sub	r7, r4
    34e6:	ff e7       	ldi	r31, 0x7F	; 127
    34e8:	bf 22       	and	r11, r31
    34ea:	b6 fe       	sbrs	r11, 6
    34ec:	0b c0       	rjmp	.+22     	; 0x3504 <vfprintf+0x2ce>
    34ee:	2e ef       	ldi	r18, 0xFE	; 254
    34f0:	b2 22       	and	r11, r18
    34f2:	7e 14       	cp	r7, r14
    34f4:	38 f4       	brcc	.+14     	; 0x3504 <vfprintf+0x2ce>
    34f6:	b4 fe       	sbrs	r11, 4
    34f8:	07 c0       	rjmp	.+14     	; 0x3508 <vfprintf+0x2d2>
    34fa:	b2 fc       	sbrc	r11, 2
    34fc:	05 c0       	rjmp	.+10     	; 0x3508 <vfprintf+0x2d2>
    34fe:	8f ee       	ldi	r24, 0xEF	; 239
    3500:	b8 22       	and	r11, r24
    3502:	02 c0       	rjmp	.+4      	; 0x3508 <vfprintf+0x2d2>
    3504:	a7 2c       	mov	r10, r7
    3506:	01 c0       	rjmp	.+2      	; 0x350a <vfprintf+0x2d4>
    3508:	ae 2c       	mov	r10, r14
    350a:	8b 2d       	mov	r24, r11
    350c:	90 e0       	ldi	r25, 0x00	; 0
    350e:	b4 fe       	sbrs	r11, 4
    3510:	0d c0       	rjmp	.+26     	; 0x352c <vfprintf+0x2f6>
    3512:	fe 01       	movw	r30, r28
    3514:	e7 0d       	add	r30, r7
    3516:	f1 1d       	adc	r31, r1
    3518:	20 81       	ld	r18, Z
    351a:	20 33       	cpi	r18, 0x30	; 48
    351c:	19 f4       	brne	.+6      	; 0x3524 <vfprintf+0x2ee>
    351e:	e9 ee       	ldi	r30, 0xE9	; 233
    3520:	be 22       	and	r11, r30
    3522:	09 c0       	rjmp	.+18     	; 0x3536 <vfprintf+0x300>
    3524:	a3 94       	inc	r10
    3526:	b2 fe       	sbrs	r11, 2
    3528:	06 c0       	rjmp	.+12     	; 0x3536 <vfprintf+0x300>
    352a:	04 c0       	rjmp	.+8      	; 0x3534 <vfprintf+0x2fe>
    352c:	86 78       	andi	r24, 0x86	; 134
    352e:	90 70       	andi	r25, 0x00	; 0
    3530:	00 97       	sbiw	r24, 0x00	; 0
    3532:	09 f0       	breq	.+2      	; 0x3536 <vfprintf+0x300>
    3534:	a3 94       	inc	r10
    3536:	8b 2c       	mov	r8, r11
    3538:	99 24       	eor	r9, r9
    353a:	b3 fc       	sbrc	r11, 3
    353c:	14 c0       	rjmp	.+40     	; 0x3566 <vfprintf+0x330>
    353e:	b0 fe       	sbrs	r11, 0
    3540:	0f c0       	rjmp	.+30     	; 0x3560 <vfprintf+0x32a>
    3542:	af 14       	cp	r10, r15
    3544:	28 f4       	brcc	.+10     	; 0x3550 <vfprintf+0x31a>
    3546:	e7 2c       	mov	r14, r7
    3548:	ef 0c       	add	r14, r15
    354a:	ea 18       	sub	r14, r10
    354c:	af 2c       	mov	r10, r15
    354e:	08 c0       	rjmp	.+16     	; 0x3560 <vfprintf+0x32a>
    3550:	e7 2c       	mov	r14, r7
    3552:	06 c0       	rjmp	.+12     	; 0x3560 <vfprintf+0x32a>
    3554:	80 e2       	ldi	r24, 0x20	; 32
    3556:	90 e0       	ldi	r25, 0x00	; 0
    3558:	b6 01       	movw	r22, r12
    355a:	0e 94 47 1d 	call	0x3a8e	; 0x3a8e <fputc>
    355e:	a3 94       	inc	r10
    3560:	af 14       	cp	r10, r15
    3562:	c0 f3       	brcs	.-16     	; 0x3554 <vfprintf+0x31e>
    3564:	04 c0       	rjmp	.+8      	; 0x356e <vfprintf+0x338>
    3566:	af 14       	cp	r10, r15
    3568:	10 f4       	brcc	.+4      	; 0x356e <vfprintf+0x338>
    356a:	fa 18       	sub	r15, r10
    356c:	01 c0       	rjmp	.+2      	; 0x3570 <vfprintf+0x33a>
    356e:	ff 24       	eor	r15, r15
    3570:	84 fe       	sbrs	r8, 4
    3572:	0f c0       	rjmp	.+30     	; 0x3592 <vfprintf+0x35c>
    3574:	80 e3       	ldi	r24, 0x30	; 48
    3576:	90 e0       	ldi	r25, 0x00	; 0
    3578:	b6 01       	movw	r22, r12
    357a:	0e 94 47 1d 	call	0x3a8e	; 0x3a8e <fputc>
    357e:	82 fe       	sbrs	r8, 2
    3580:	1f c0       	rjmp	.+62     	; 0x35c0 <vfprintf+0x38a>
    3582:	81 fe       	sbrs	r8, 1
    3584:	03 c0       	rjmp	.+6      	; 0x358c <vfprintf+0x356>
    3586:	88 e5       	ldi	r24, 0x58	; 88
    3588:	90 e0       	ldi	r25, 0x00	; 0
    358a:	10 c0       	rjmp	.+32     	; 0x35ac <vfprintf+0x376>
    358c:	88 e7       	ldi	r24, 0x78	; 120
    358e:	90 e0       	ldi	r25, 0x00	; 0
    3590:	0d c0       	rjmp	.+26     	; 0x35ac <vfprintf+0x376>
    3592:	c4 01       	movw	r24, r8
    3594:	86 78       	andi	r24, 0x86	; 134
    3596:	90 70       	andi	r25, 0x00	; 0
    3598:	00 97       	sbiw	r24, 0x00	; 0
    359a:	91 f0       	breq	.+36     	; 0x35c0 <vfprintf+0x38a>
    359c:	81 fc       	sbrc	r8, 1
    359e:	02 c0       	rjmp	.+4      	; 0x35a4 <vfprintf+0x36e>
    35a0:	80 e2       	ldi	r24, 0x20	; 32
    35a2:	01 c0       	rjmp	.+2      	; 0x35a6 <vfprintf+0x370>
    35a4:	8b e2       	ldi	r24, 0x2B	; 43
    35a6:	b7 fc       	sbrc	r11, 7
    35a8:	8d e2       	ldi	r24, 0x2D	; 45
    35aa:	90 e0       	ldi	r25, 0x00	; 0
    35ac:	b6 01       	movw	r22, r12
    35ae:	0e 94 47 1d 	call	0x3a8e	; 0x3a8e <fputc>
    35b2:	06 c0       	rjmp	.+12     	; 0x35c0 <vfprintf+0x38a>
    35b4:	80 e3       	ldi	r24, 0x30	; 48
    35b6:	90 e0       	ldi	r25, 0x00	; 0
    35b8:	b6 01       	movw	r22, r12
    35ba:	0e 94 47 1d 	call	0x3a8e	; 0x3a8e <fputc>
    35be:	ea 94       	dec	r14
    35c0:	7e 14       	cp	r7, r14
    35c2:	c0 f3       	brcs	.-16     	; 0x35b4 <vfprintf+0x37e>
    35c4:	7a 94       	dec	r7
    35c6:	f2 01       	movw	r30, r4
    35c8:	e7 0d       	add	r30, r7
    35ca:	f1 1d       	adc	r31, r1
    35cc:	80 81       	ld	r24, Z
    35ce:	90 e0       	ldi	r25, 0x00	; 0
    35d0:	b6 01       	movw	r22, r12
    35d2:	0e 94 47 1d 	call	0x3a8e	; 0x3a8e <fputc>
    35d6:	77 20       	and	r7, r7
    35d8:	a9 f7       	brne	.-22     	; 0x35c4 <vfprintf+0x38e>
    35da:	06 c0       	rjmp	.+12     	; 0x35e8 <vfprintf+0x3b2>
    35dc:	80 e2       	ldi	r24, 0x20	; 32
    35de:	90 e0       	ldi	r25, 0x00	; 0
    35e0:	b6 01       	movw	r22, r12
    35e2:	0e 94 47 1d 	call	0x3a8e	; 0x3a8e <fputc>
    35e6:	fa 94       	dec	r15
    35e8:	ff 20       	and	r15, r15
    35ea:	c1 f7       	brne	.-16     	; 0x35dc <vfprintf+0x3a6>
    35ec:	37 ce       	rjmp	.-914    	; 0x325c <vfprintf+0x26>
    35ee:	f6 01       	movw	r30, r12
    35f0:	26 81       	ldd	r18, Z+6	; 0x06
    35f2:	37 81       	ldd	r19, Z+7	; 0x07
    35f4:	02 c0       	rjmp	.+4      	; 0x35fa <vfprintf+0x3c4>
    35f6:	2f ef       	ldi	r18, 0xFF	; 255
    35f8:	3f ef       	ldi	r19, 0xFF	; 255
    35fa:	c9 01       	movw	r24, r18
    35fc:	2c 96       	adiw	r28, 0x0c	; 12
    35fe:	e2 e1       	ldi	r30, 0x12	; 18
    3600:	0c 94 ed 1d 	jmp	0x3bda	; 0x3bda <__epilogue_restores__>

00003604 <dtoa_prf>:
    3604:	a9 e0       	ldi	r26, 0x09	; 9
    3606:	b0 e0       	ldi	r27, 0x00	; 0
    3608:	e8 e0       	ldi	r30, 0x08	; 8
    360a:	fb e1       	ldi	r31, 0x1B	; 27
    360c:	0c 94 d9 1d 	jmp	0x3bb2	; 0x3bb2 <__prologue_saves__+0x10>
    3610:	6a 01       	movw	r12, r20
    3612:	f2 2e       	mov	r15, r18
    3614:	10 2f       	mov	r17, r16
    3616:	0c 33       	cpi	r16, 0x3C	; 60
    3618:	18 f4       	brcc	.+6      	; 0x3620 <dtoa_prf+0x1c>
    361a:	b0 2e       	mov	r11, r16
    361c:	b3 94       	inc	r11
    361e:	02 c0       	rjmp	.+4      	; 0x3624 <dtoa_prf+0x20>
    3620:	ec e3       	ldi	r30, 0x3C	; 60
    3622:	be 2e       	mov	r11, r30
    3624:	ae 01       	movw	r20, r28
    3626:	4f 5f       	subi	r20, 0xFF	; 255
    3628:	5f 4f       	sbci	r21, 0xFF	; 255
    362a:	27 e0       	ldi	r18, 0x07	; 7
    362c:	0b 2d       	mov	r16, r11
    362e:	0e 94 59 1c 	call	0x38b2	; 0x38b2 <__ftoa_engine>
    3632:	29 81       	ldd	r18, Y+1	; 0x01
    3634:	30 e0       	ldi	r19, 0x00	; 0
    3636:	a9 01       	movw	r20, r18
    3638:	49 70       	andi	r20, 0x09	; 9
    363a:	50 70       	andi	r21, 0x00	; 0
    363c:	41 30       	cpi	r20, 0x01	; 1
    363e:	51 05       	cpc	r21, r1
    3640:	31 f0       	breq	.+12     	; 0x364e <dtoa_prf+0x4a>
    3642:	e1 fc       	sbrc	r14, 1
    3644:	06 c0       	rjmp	.+12     	; 0x3652 <dtoa_prf+0x4e>
    3646:	e0 fe       	sbrs	r14, 0
    3648:	06 c0       	rjmp	.+12     	; 0x3656 <dtoa_prf+0x52>
    364a:	e0 e2       	ldi	r30, 0x20	; 32
    364c:	05 c0       	rjmp	.+10     	; 0x3658 <dtoa_prf+0x54>
    364e:	ed e2       	ldi	r30, 0x2D	; 45
    3650:	03 c0       	rjmp	.+6      	; 0x3658 <dtoa_prf+0x54>
    3652:	eb e2       	ldi	r30, 0x2B	; 43
    3654:	01 c0       	rjmp	.+2      	; 0x3658 <dtoa_prf+0x54>
    3656:	e0 e0       	ldi	r30, 0x00	; 0
    3658:	23 ff       	sbrs	r18, 3
    365a:	37 c0       	rjmp	.+110    	; 0x36ca <dtoa_prf+0xc6>
    365c:	ee 23       	and	r30, r30
    365e:	11 f0       	breq	.+4      	; 0x3664 <dtoa_prf+0x60>
    3660:	84 e0       	ldi	r24, 0x04	; 4
    3662:	01 c0       	rjmp	.+2      	; 0x3666 <dtoa_prf+0x62>
    3664:	83 e0       	ldi	r24, 0x03	; 3
    3666:	8f 15       	cp	r24, r15
    3668:	18 f4       	brcc	.+6      	; 0x3670 <dtoa_prf+0x6c>
    366a:	f8 1a       	sub	r15, r24
    366c:	8f 2d       	mov	r24, r15
    366e:	01 c0       	rjmp	.+2      	; 0x3672 <dtoa_prf+0x6e>
    3670:	80 e0       	ldi	r24, 0x00	; 0
    3672:	e4 fc       	sbrc	r14, 4
    3674:	0b c0       	rjmp	.+22     	; 0x368c <dtoa_prf+0x88>
    3676:	98 2f       	mov	r25, r24
    3678:	d6 01       	movw	r26, r12
    367a:	20 e2       	ldi	r18, 0x20	; 32
    367c:	02 c0       	rjmp	.+4      	; 0x3682 <dtoa_prf+0x7e>
    367e:	2d 93       	st	X+, r18
    3680:	91 50       	subi	r25, 0x01	; 1
    3682:	99 23       	and	r25, r25
    3684:	e1 f7       	brne	.-8      	; 0x367e <dtoa_prf+0x7a>
    3686:	c8 0e       	add	r12, r24
    3688:	d1 1c       	adc	r13, r1
    368a:	80 e0       	ldi	r24, 0x00	; 0
    368c:	ee 23       	and	r30, r30
    368e:	19 f0       	breq	.+6      	; 0x3696 <dtoa_prf+0x92>
    3690:	d6 01       	movw	r26, r12
    3692:	ed 93       	st	X+, r30
    3694:	6d 01       	movw	r12, r26
    3696:	f6 01       	movw	r30, r12
    3698:	31 96       	adiw	r30, 0x01	; 1
    369a:	e2 fe       	sbrs	r14, 2
    369c:	05 c0       	rjmp	.+10     	; 0x36a8 <dtoa_prf+0xa4>
    369e:	9e e4       	ldi	r25, 0x4E	; 78
    36a0:	d6 01       	movw	r26, r12
    36a2:	9c 93       	st	X, r25
    36a4:	21 e4       	ldi	r18, 0x41	; 65
    36a6:	04 c0       	rjmp	.+8      	; 0x36b0 <dtoa_prf+0xac>
    36a8:	9e e6       	ldi	r25, 0x6E	; 110
    36aa:	d6 01       	movw	r26, r12
    36ac:	9c 93       	st	X, r25
    36ae:	21 e6       	ldi	r18, 0x61	; 97
    36b0:	11 96       	adiw	r26, 0x01	; 1
    36b2:	2c 93       	st	X, r18
    36b4:	91 83       	std	Z+1, r25	; 0x01
    36b6:	32 96       	adiw	r30, 0x02	; 2
    36b8:	98 2f       	mov	r25, r24
    36ba:	df 01       	movw	r26, r30
    36bc:	20 e2       	ldi	r18, 0x20	; 32
    36be:	02 c0       	rjmp	.+4      	; 0x36c4 <dtoa_prf+0xc0>
    36c0:	2d 93       	st	X+, r18
    36c2:	91 50       	subi	r25, 0x01	; 1
    36c4:	99 23       	and	r25, r25
    36c6:	e1 f7       	brne	.-8      	; 0x36c0 <dtoa_prf+0xbc>
    36c8:	3d c0       	rjmp	.+122    	; 0x3744 <dtoa_prf+0x140>
    36ca:	22 ff       	sbrs	r18, 2
    36cc:	41 c0       	rjmp	.+130    	; 0x3750 <dtoa_prf+0x14c>
    36ce:	ee 23       	and	r30, r30
    36d0:	11 f0       	breq	.+4      	; 0x36d6 <dtoa_prf+0xd2>
    36d2:	84 e0       	ldi	r24, 0x04	; 4
    36d4:	01 c0       	rjmp	.+2      	; 0x36d8 <dtoa_prf+0xd4>
    36d6:	83 e0       	ldi	r24, 0x03	; 3
    36d8:	8f 15       	cp	r24, r15
    36da:	18 f4       	brcc	.+6      	; 0x36e2 <dtoa_prf+0xde>
    36dc:	f8 1a       	sub	r15, r24
    36de:	8f 2d       	mov	r24, r15
    36e0:	01 c0       	rjmp	.+2      	; 0x36e4 <dtoa_prf+0xe0>
    36e2:	80 e0       	ldi	r24, 0x00	; 0
    36e4:	e4 fc       	sbrc	r14, 4
    36e6:	0b c0       	rjmp	.+22     	; 0x36fe <dtoa_prf+0xfa>
    36e8:	98 2f       	mov	r25, r24
    36ea:	d6 01       	movw	r26, r12
    36ec:	20 e2       	ldi	r18, 0x20	; 32
    36ee:	02 c0       	rjmp	.+4      	; 0x36f4 <dtoa_prf+0xf0>
    36f0:	2d 93       	st	X+, r18
    36f2:	91 50       	subi	r25, 0x01	; 1
    36f4:	99 23       	and	r25, r25
    36f6:	e1 f7       	brne	.-8      	; 0x36f0 <dtoa_prf+0xec>
    36f8:	c8 0e       	add	r12, r24
    36fa:	d1 1c       	adc	r13, r1
    36fc:	80 e0       	ldi	r24, 0x00	; 0
    36fe:	ee 23       	and	r30, r30
    3700:	19 f0       	breq	.+6      	; 0x3708 <dtoa_prf+0x104>
    3702:	d6 01       	movw	r26, r12
    3704:	ed 93       	st	X+, r30
    3706:	6d 01       	movw	r12, r26
    3708:	f6 01       	movw	r30, r12
    370a:	31 96       	adiw	r30, 0x01	; 1
    370c:	e2 fe       	sbrs	r14, 2
    370e:	09 c0       	rjmp	.+18     	; 0x3722 <dtoa_prf+0x11e>
    3710:	99 e4       	ldi	r25, 0x49	; 73
    3712:	d6 01       	movw	r26, r12
    3714:	9c 93       	st	X, r25
    3716:	9e e4       	ldi	r25, 0x4E	; 78
    3718:	11 96       	adiw	r26, 0x01	; 1
    371a:	9c 93       	st	X, r25
    371c:	11 97       	sbiw	r26, 0x01	; 1
    371e:	96 e4       	ldi	r25, 0x46	; 70
    3720:	07 c0       	rjmp	.+14     	; 0x3730 <dtoa_prf+0x12c>
    3722:	99 e6       	ldi	r25, 0x69	; 105
    3724:	d6 01       	movw	r26, r12
    3726:	9c 93       	st	X, r25
    3728:	9e e6       	ldi	r25, 0x6E	; 110
    372a:	11 96       	adiw	r26, 0x01	; 1
    372c:	9c 93       	st	X, r25
    372e:	96 e6       	ldi	r25, 0x66	; 102
    3730:	91 83       	std	Z+1, r25	; 0x01
    3732:	32 96       	adiw	r30, 0x02	; 2
    3734:	98 2f       	mov	r25, r24
    3736:	df 01       	movw	r26, r30
    3738:	20 e2       	ldi	r18, 0x20	; 32
    373a:	02 c0       	rjmp	.+4      	; 0x3740 <dtoa_prf+0x13c>
    373c:	2d 93       	st	X+, r18
    373e:	91 50       	subi	r25, 0x01	; 1
    3740:	99 23       	and	r25, r25
    3742:	e1 f7       	brne	.-8      	; 0x373c <dtoa_prf+0x138>
    3744:	e8 0f       	add	r30, r24
    3746:	f1 1d       	adc	r31, r1
    3748:	10 82       	st	Z, r1
    374a:	2e ef       	ldi	r18, 0xFE	; 254
    374c:	3f ef       	ldi	r19, 0xFF	; 255
    374e:	ac c0       	rjmp	.+344    	; 0x38a8 <dtoa_prf+0x2a4>
    3750:	41 e0       	ldi	r20, 0x01	; 1
    3752:	50 e0       	ldi	r21, 0x00	; 0
    3754:	ee 23       	and	r30, r30
    3756:	11 f4       	brne	.+4      	; 0x375c <dtoa_prf+0x158>
    3758:	40 e0       	ldi	r20, 0x00	; 0
    375a:	50 e0       	ldi	r21, 0x00	; 0
    375c:	18 16       	cp	r1, r24
    375e:	19 06       	cpc	r1, r25
    3760:	24 f4       	brge	.+8      	; 0x376a <dtoa_prf+0x166>
    3762:	bc 01       	movw	r22, r24
    3764:	6f 5f       	subi	r22, 0xFF	; 255
    3766:	7f 4f       	sbci	r23, 0xFF	; 255
    3768:	02 c0       	rjmp	.+4      	; 0x376e <dtoa_prf+0x16a>
    376a:	61 e0       	ldi	r22, 0x01	; 1
    376c:	70 e0       	ldi	r23, 0x00	; 0
    376e:	64 0f       	add	r22, r20
    3770:	75 1f       	adc	r23, r21
    3772:	11 23       	and	r17, r17
    3774:	29 f0       	breq	.+10     	; 0x3780 <dtoa_prf+0x17c>
    3776:	41 2f       	mov	r20, r17
    3778:	50 e0       	ldi	r21, 0x00	; 0
    377a:	4f 5f       	subi	r20, 0xFF	; 255
    377c:	5f 4f       	sbci	r21, 0xFF	; 255
    377e:	02 c0       	rjmp	.+4      	; 0x3784 <dtoa_prf+0x180>
    3780:	40 e0       	ldi	r20, 0x00	; 0
    3782:	50 e0       	ldi	r21, 0x00	; 0
    3784:	46 0f       	add	r20, r22
    3786:	57 1f       	adc	r21, r23
    3788:	6f 2d       	mov	r22, r15
    378a:	70 e0       	ldi	r23, 0x00	; 0
    378c:	46 17       	cp	r20, r22
    378e:	57 07       	cpc	r21, r23
    3790:	1c f4       	brge	.+6      	; 0x3798 <dtoa_prf+0x194>
    3792:	0f 2d       	mov	r16, r15
    3794:	04 1b       	sub	r16, r20
    3796:	01 c0       	rjmp	.+2      	; 0x379a <dtoa_prf+0x196>
    3798:	00 e0       	ldi	r16, 0x00	; 0
    379a:	ff 24       	eor	r15, r15
    379c:	a7 01       	movw	r20, r14
    379e:	40 71       	andi	r20, 0x10	; 16
    37a0:	50 70       	andi	r21, 0x00	; 0
    37a2:	e4 fc       	sbrc	r14, 4
    37a4:	0d c0       	rjmp	.+26     	; 0x37c0 <dtoa_prf+0x1bc>
    37a6:	e3 fc       	sbrc	r14, 3
    37a8:	0b c0       	rjmp	.+22     	; 0x37c0 <dtoa_prf+0x1bc>
    37aa:	60 2f       	mov	r22, r16
    37ac:	d6 01       	movw	r26, r12
    37ae:	70 e2       	ldi	r23, 0x20	; 32
    37b0:	02 c0       	rjmp	.+4      	; 0x37b6 <dtoa_prf+0x1b2>
    37b2:	7d 93       	st	X+, r23
    37b4:	61 50       	subi	r22, 0x01	; 1
    37b6:	66 23       	and	r22, r22
    37b8:	e1 f7       	brne	.-8      	; 0x37b2 <dtoa_prf+0x1ae>
    37ba:	c0 0e       	add	r12, r16
    37bc:	d1 1c       	adc	r13, r1
    37be:	00 e0       	ldi	r16, 0x00	; 0
    37c0:	ee 23       	and	r30, r30
    37c2:	19 f0       	breq	.+6      	; 0x37ca <dtoa_prf+0x1c6>
    37c4:	d6 01       	movw	r26, r12
    37c6:	ed 93       	st	X+, r30
    37c8:	6d 01       	movw	r12, r26
    37ca:	41 15       	cp	r20, r1
    37cc:	51 05       	cpc	r21, r1
    37ce:	59 f4       	brne	.+22     	; 0x37e6 <dtoa_prf+0x1e2>
    37d0:	40 2f       	mov	r20, r16
    37d2:	f6 01       	movw	r30, r12
    37d4:	50 e3       	ldi	r21, 0x30	; 48
    37d6:	02 c0       	rjmp	.+4      	; 0x37dc <dtoa_prf+0x1d8>
    37d8:	51 93       	st	Z+, r21
    37da:	41 50       	subi	r20, 0x01	; 1
    37dc:	44 23       	and	r20, r20
    37de:	e1 f7       	brne	.-8      	; 0x37d8 <dtoa_prf+0x1d4>
    37e0:	c0 0e       	add	r12, r16
    37e2:	d1 1c       	adc	r13, r1
    37e4:	00 e0       	ldi	r16, 0x00	; 0
    37e6:	b8 0e       	add	r11, r24
    37e8:	fa 80       	ldd	r15, Y+2	; 0x02
    37ea:	a9 01       	movw	r20, r18
    37ec:	40 71       	andi	r20, 0x10	; 16
    37ee:	50 70       	andi	r21, 0x00	; 0
    37f0:	24 ff       	sbrs	r18, 4
    37f2:	04 c0       	rjmp	.+8      	; 0x37fc <dtoa_prf+0x1f8>
    37f4:	bf 2d       	mov	r27, r15
    37f6:	b1 33       	cpi	r27, 0x31	; 49
    37f8:	09 f4       	brne	.+2      	; 0x37fc <dtoa_prf+0x1f8>
    37fa:	ba 94       	dec	r11
    37fc:	1b 14       	cp	r1, r11
    37fe:	2c f4       	brge	.+10     	; 0x380a <dtoa_prf+0x206>
    3800:	ab 2d       	mov	r26, r11
    3802:	a9 30       	cpi	r26, 0x09	; 9
    3804:	18 f0       	brcs	.+6      	; 0x380c <dtoa_prf+0x208>
    3806:	a8 e0       	ldi	r26, 0x08	; 8
    3808:	01 c0       	rjmp	.+2      	; 0x380c <dtoa_prf+0x208>
    380a:	a1 e0       	ldi	r26, 0x01	; 1
    380c:	9c 01       	movw	r18, r24
    380e:	97 ff       	sbrs	r25, 7
    3810:	02 c0       	rjmp	.+4      	; 0x3816 <dtoa_prf+0x212>
    3812:	20 e0       	ldi	r18, 0x00	; 0
    3814:	30 e0       	ldi	r19, 0x00	; 0
    3816:	bc 01       	movw	r22, r24
    3818:	6f 5f       	subi	r22, 0xFF	; 255
    381a:	7f 4f       	sbci	r23, 0xFF	; 255
    381c:	62 1b       	sub	r22, r18
    381e:	73 0b       	sbc	r23, r19
    3820:	fe 01       	movw	r30, r28
    3822:	31 96       	adiw	r30, 0x01	; 1
    3824:	e6 0f       	add	r30, r22
    3826:	f7 1f       	adc	r31, r23
    3828:	6e e2       	ldi	r22, 0x2E	; 46
    382a:	e6 2e       	mov	r14, r22
    382c:	bc 01       	movw	r22, r24
    382e:	6a 1b       	sub	r22, r26
    3830:	71 09       	sbc	r23, r1
    3832:	a1 2f       	mov	r26, r17
    3834:	b0 e0       	ldi	r27, 0x00	; 0
    3836:	aa 24       	eor	r10, r10
    3838:	bb 24       	eor	r11, r11
    383a:	aa 1a       	sub	r10, r26
    383c:	bb 0a       	sbc	r11, r27
    383e:	1f ef       	ldi	r17, 0xFF	; 255
    3840:	2f 3f       	cpi	r18, 0xFF	; 255
    3842:	31 07       	cpc	r19, r17
    3844:	19 f4       	brne	.+6      	; 0x384c <dtoa_prf+0x248>
    3846:	d6 01       	movw	r26, r12
    3848:	ed 92       	st	X+, r14
    384a:	6d 01       	movw	r12, r26
    384c:	82 17       	cp	r24, r18
    384e:	93 07       	cpc	r25, r19
    3850:	2c f0       	brlt	.+10     	; 0x385c <dtoa_prf+0x258>
    3852:	62 17       	cp	r22, r18
    3854:	73 07       	cpc	r23, r19
    3856:	14 f4       	brge	.+4      	; 0x385c <dtoa_prf+0x258>
    3858:	10 81       	ld	r17, Z
    385a:	01 c0       	rjmp	.+2      	; 0x385e <dtoa_prf+0x25a>
    385c:	10 e3       	ldi	r17, 0x30	; 48
    385e:	21 50       	subi	r18, 0x01	; 1
    3860:	30 40       	sbci	r19, 0x00	; 0
    3862:	31 96       	adiw	r30, 0x01	; 1
    3864:	2a 15       	cp	r18, r10
    3866:	3b 05       	cpc	r19, r11
    3868:	24 f0       	brlt	.+8      	; 0x3872 <dtoa_prf+0x26e>
    386a:	d6 01       	movw	r26, r12
    386c:	1d 93       	st	X+, r17
    386e:	6d 01       	movw	r12, r26
    3870:	e6 cf       	rjmp	.-52     	; 0x383e <dtoa_prf+0x23a>
    3872:	28 17       	cp	r18, r24
    3874:	39 07       	cpc	r19, r25
    3876:	49 f4       	brne	.+18     	; 0x388a <dtoa_prf+0x286>
    3878:	bf 2d       	mov	r27, r15
    387a:	b6 33       	cpi	r27, 0x36	; 54
    387c:	28 f4       	brcc	.+10     	; 0x3888 <dtoa_prf+0x284>
    387e:	b5 33       	cpi	r27, 0x35	; 53
    3880:	21 f4       	brne	.+8      	; 0x388a <dtoa_prf+0x286>
    3882:	41 15       	cp	r20, r1
    3884:	51 05       	cpc	r21, r1
    3886:	09 f4       	brne	.+2      	; 0x388a <dtoa_prf+0x286>
    3888:	11 e3       	ldi	r17, 0x31	; 49
    388a:	f6 01       	movw	r30, r12
    388c:	11 93       	st	Z+, r17
    388e:	80 2f       	mov	r24, r16
    3890:	df 01       	movw	r26, r30
    3892:	90 e2       	ldi	r25, 0x20	; 32
    3894:	02 c0       	rjmp	.+4      	; 0x389a <dtoa_prf+0x296>
    3896:	9d 93       	st	X+, r25
    3898:	81 50       	subi	r24, 0x01	; 1
    389a:	88 23       	and	r24, r24
    389c:	e1 f7       	brne	.-8      	; 0x3896 <dtoa_prf+0x292>
    389e:	e0 0f       	add	r30, r16
    38a0:	f1 1d       	adc	r31, r1
    38a2:	10 82       	st	Z, r1
    38a4:	20 e0       	ldi	r18, 0x00	; 0
    38a6:	30 e0       	ldi	r19, 0x00	; 0
    38a8:	c9 01       	movw	r24, r18
    38aa:	29 96       	adiw	r28, 0x09	; 9
    38ac:	ea e0       	ldi	r30, 0x0A	; 10
    38ae:	0c 94 f5 1d 	jmp	0x3bea	; 0x3bea <__epilogue_restores__+0x10>

000038b2 <__ftoa_engine>:
    38b2:	28 30       	cpi	r18, 0x08	; 8
    38b4:	08 f0       	brcs	.+2      	; 0x38b8 <__ftoa_engine+0x6>
    38b6:	27 e0       	ldi	r18, 0x07	; 7
    38b8:	33 27       	eor	r19, r19
    38ba:	da 01       	movw	r26, r20
    38bc:	99 0f       	add	r25, r25
    38be:	31 1d       	adc	r19, r1
    38c0:	87 fd       	sbrc	r24, 7
    38c2:	91 60       	ori	r25, 0x01	; 1
    38c4:	00 96       	adiw	r24, 0x00	; 0
    38c6:	61 05       	cpc	r22, r1
    38c8:	71 05       	cpc	r23, r1
    38ca:	39 f4       	brne	.+14     	; 0x38da <__ftoa_engine+0x28>
    38cc:	32 60       	ori	r19, 0x02	; 2
    38ce:	2e 5f       	subi	r18, 0xFE	; 254
    38d0:	3d 93       	st	X+, r19
    38d2:	30 e3       	ldi	r19, 0x30	; 48
    38d4:	2a 95       	dec	r18
    38d6:	e1 f7       	brne	.-8      	; 0x38d0 <__ftoa_engine+0x1e>
    38d8:	08 95       	ret
    38da:	9f 3f       	cpi	r25, 0xFF	; 255
    38dc:	30 f0       	brcs	.+12     	; 0x38ea <__ftoa_engine+0x38>
    38de:	80 38       	cpi	r24, 0x80	; 128
    38e0:	71 05       	cpc	r23, r1
    38e2:	61 05       	cpc	r22, r1
    38e4:	09 f0       	breq	.+2      	; 0x38e8 <__ftoa_engine+0x36>
    38e6:	3c 5f       	subi	r19, 0xFC	; 252
    38e8:	3c 5f       	subi	r19, 0xFC	; 252
    38ea:	3d 93       	st	X+, r19
    38ec:	91 30       	cpi	r25, 0x01	; 1
    38ee:	08 f0       	brcs	.+2      	; 0x38f2 <__ftoa_engine+0x40>
    38f0:	80 68       	ori	r24, 0x80	; 128
    38f2:	91 1d       	adc	r25, r1
    38f4:	df 93       	push	r29
    38f6:	cf 93       	push	r28
    38f8:	1f 93       	push	r17
    38fa:	0f 93       	push	r16
    38fc:	ff 92       	push	r15
    38fe:	ef 92       	push	r14
    3900:	19 2f       	mov	r17, r25
    3902:	98 7f       	andi	r25, 0xF8	; 248
    3904:	96 95       	lsr	r25
    3906:	e9 2f       	mov	r30, r25
    3908:	96 95       	lsr	r25
    390a:	96 95       	lsr	r25
    390c:	e9 0f       	add	r30, r25
    390e:	ff 27       	eor	r31, r31
    3910:	ea 5b       	subi	r30, 0xBA	; 186
    3912:	ff 4e       	sbci	r31, 0xEF	; 239
    3914:	99 27       	eor	r25, r25
    3916:	33 27       	eor	r19, r19
    3918:	ee 24       	eor	r14, r14
    391a:	ff 24       	eor	r15, r15
    391c:	a7 01       	movw	r20, r14
    391e:	e7 01       	movw	r28, r14
    3920:	05 90       	lpm	r0, Z+
    3922:	08 94       	sec
    3924:	07 94       	ror	r0
    3926:	28 f4       	brcc	.+10     	; 0x3932 <__ftoa_engine+0x80>
    3928:	36 0f       	add	r19, r22
    392a:	e7 1e       	adc	r14, r23
    392c:	f8 1e       	adc	r15, r24
    392e:	49 1f       	adc	r20, r25
    3930:	51 1d       	adc	r21, r1
    3932:	66 0f       	add	r22, r22
    3934:	77 1f       	adc	r23, r23
    3936:	88 1f       	adc	r24, r24
    3938:	99 1f       	adc	r25, r25
    393a:	06 94       	lsr	r0
    393c:	a1 f7       	brne	.-24     	; 0x3926 <__ftoa_engine+0x74>
    393e:	05 90       	lpm	r0, Z+
    3940:	07 94       	ror	r0
    3942:	28 f4       	brcc	.+10     	; 0x394e <__ftoa_engine+0x9c>
    3944:	e7 0e       	add	r14, r23
    3946:	f8 1e       	adc	r15, r24
    3948:	49 1f       	adc	r20, r25
    394a:	56 1f       	adc	r21, r22
    394c:	c1 1d       	adc	r28, r1
    394e:	77 0f       	add	r23, r23
    3950:	88 1f       	adc	r24, r24
    3952:	99 1f       	adc	r25, r25
    3954:	66 1f       	adc	r22, r22
    3956:	06 94       	lsr	r0
    3958:	a1 f7       	brne	.-24     	; 0x3942 <__ftoa_engine+0x90>
    395a:	05 90       	lpm	r0, Z+
    395c:	07 94       	ror	r0
    395e:	28 f4       	brcc	.+10     	; 0x396a <__ftoa_engine+0xb8>
    3960:	f8 0e       	add	r15, r24
    3962:	49 1f       	adc	r20, r25
    3964:	56 1f       	adc	r21, r22
    3966:	c7 1f       	adc	r28, r23
    3968:	d1 1d       	adc	r29, r1
    396a:	88 0f       	add	r24, r24
    396c:	99 1f       	adc	r25, r25
    396e:	66 1f       	adc	r22, r22
    3970:	77 1f       	adc	r23, r23
    3972:	06 94       	lsr	r0
    3974:	a1 f7       	brne	.-24     	; 0x395e <__ftoa_engine+0xac>
    3976:	05 90       	lpm	r0, Z+
    3978:	07 94       	ror	r0
    397a:	20 f4       	brcc	.+8      	; 0x3984 <__ftoa_engine+0xd2>
    397c:	49 0f       	add	r20, r25
    397e:	56 1f       	adc	r21, r22
    3980:	c7 1f       	adc	r28, r23
    3982:	d8 1f       	adc	r29, r24
    3984:	99 0f       	add	r25, r25
    3986:	66 1f       	adc	r22, r22
    3988:	77 1f       	adc	r23, r23
    398a:	88 1f       	adc	r24, r24
    398c:	06 94       	lsr	r0
    398e:	a9 f7       	brne	.-22     	; 0x397a <__ftoa_engine+0xc8>
    3990:	84 91       	lpm	r24, Z+
    3992:	10 95       	com	r17
    3994:	17 70       	andi	r17, 0x07	; 7
    3996:	41 f0       	breq	.+16     	; 0x39a8 <__ftoa_engine+0xf6>
    3998:	d6 95       	lsr	r29
    399a:	c7 95       	ror	r28
    399c:	57 95       	ror	r21
    399e:	47 95       	ror	r20
    39a0:	f7 94       	ror	r15
    39a2:	e7 94       	ror	r14
    39a4:	1a 95       	dec	r17
    39a6:	c1 f7       	brne	.-16     	; 0x3998 <__ftoa_engine+0xe6>
    39a8:	ec ee       	ldi	r30, 0xEC	; 236
    39aa:	ff e0       	ldi	r31, 0x0F	; 15
    39ac:	68 94       	set
    39ae:	15 90       	lpm	r1, Z+
    39b0:	15 91       	lpm	r17, Z+
    39b2:	35 91       	lpm	r19, Z+
    39b4:	65 91       	lpm	r22, Z+
    39b6:	95 91       	lpm	r25, Z+
    39b8:	05 90       	lpm	r0, Z+
    39ba:	7f e2       	ldi	r23, 0x2F	; 47
    39bc:	73 95       	inc	r23
    39be:	e1 18       	sub	r14, r1
    39c0:	f1 0a       	sbc	r15, r17
    39c2:	43 0b       	sbc	r20, r19
    39c4:	56 0b       	sbc	r21, r22
    39c6:	c9 0b       	sbc	r28, r25
    39c8:	d0 09       	sbc	r29, r0
    39ca:	c0 f7       	brcc	.-16     	; 0x39bc <__ftoa_engine+0x10a>
    39cc:	e1 0c       	add	r14, r1
    39ce:	f1 1e       	adc	r15, r17
    39d0:	43 1f       	adc	r20, r19
    39d2:	56 1f       	adc	r21, r22
    39d4:	c9 1f       	adc	r28, r25
    39d6:	d0 1d       	adc	r29, r0
    39d8:	7e f4       	brtc	.+30     	; 0x39f8 <__ftoa_engine+0x146>
    39da:	70 33       	cpi	r23, 0x30	; 48
    39dc:	11 f4       	brne	.+4      	; 0x39e2 <__ftoa_engine+0x130>
    39de:	8a 95       	dec	r24
    39e0:	e6 cf       	rjmp	.-52     	; 0x39ae <__ftoa_engine+0xfc>
    39e2:	e8 94       	clt
    39e4:	01 50       	subi	r16, 0x01	; 1
    39e6:	30 f0       	brcs	.+12     	; 0x39f4 <__ftoa_engine+0x142>
    39e8:	08 0f       	add	r16, r24
    39ea:	0a f4       	brpl	.+2      	; 0x39ee <__ftoa_engine+0x13c>
    39ec:	00 27       	eor	r16, r16
    39ee:	02 17       	cp	r16, r18
    39f0:	08 f4       	brcc	.+2      	; 0x39f4 <__ftoa_engine+0x142>
    39f2:	20 2f       	mov	r18, r16
    39f4:	23 95       	inc	r18
    39f6:	02 2f       	mov	r16, r18
    39f8:	7a 33       	cpi	r23, 0x3A	; 58
    39fa:	28 f0       	brcs	.+10     	; 0x3a06 <__ftoa_engine+0x154>
    39fc:	79 e3       	ldi	r23, 0x39	; 57
    39fe:	7d 93       	st	X+, r23
    3a00:	2a 95       	dec	r18
    3a02:	e9 f7       	brne	.-6      	; 0x39fe <__ftoa_engine+0x14c>
    3a04:	10 c0       	rjmp	.+32     	; 0x3a26 <__ftoa_engine+0x174>
    3a06:	7d 93       	st	X+, r23
    3a08:	2a 95       	dec	r18
    3a0a:	89 f6       	brne	.-94     	; 0x39ae <__ftoa_engine+0xfc>
    3a0c:	06 94       	lsr	r0
    3a0e:	97 95       	ror	r25
    3a10:	67 95       	ror	r22
    3a12:	37 95       	ror	r19
    3a14:	17 95       	ror	r17
    3a16:	17 94       	ror	r1
    3a18:	e1 18       	sub	r14, r1
    3a1a:	f1 0a       	sbc	r15, r17
    3a1c:	43 0b       	sbc	r20, r19
    3a1e:	56 0b       	sbc	r21, r22
    3a20:	c9 0b       	sbc	r28, r25
    3a22:	d0 09       	sbc	r29, r0
    3a24:	98 f0       	brcs	.+38     	; 0x3a4c <__ftoa_engine+0x19a>
    3a26:	23 95       	inc	r18
    3a28:	7e 91       	ld	r23, -X
    3a2a:	73 95       	inc	r23
    3a2c:	7a 33       	cpi	r23, 0x3A	; 58
    3a2e:	08 f0       	brcs	.+2      	; 0x3a32 <__ftoa_engine+0x180>
    3a30:	70 e3       	ldi	r23, 0x30	; 48
    3a32:	7c 93       	st	X, r23
    3a34:	20 13       	cpse	r18, r16
    3a36:	b8 f7       	brcc	.-18     	; 0x3a26 <__ftoa_engine+0x174>
    3a38:	7e 91       	ld	r23, -X
    3a3a:	70 61       	ori	r23, 0x10	; 16
    3a3c:	7d 93       	st	X+, r23
    3a3e:	30 f0       	brcs	.+12     	; 0x3a4c <__ftoa_engine+0x19a>
    3a40:	83 95       	inc	r24
    3a42:	71 e3       	ldi	r23, 0x31	; 49
    3a44:	7d 93       	st	X+, r23
    3a46:	70 e3       	ldi	r23, 0x30	; 48
    3a48:	2a 95       	dec	r18
    3a4a:	e1 f7       	brne	.-8      	; 0x3a44 <__ftoa_engine+0x192>
    3a4c:	11 24       	eor	r1, r1
    3a4e:	ef 90       	pop	r14
    3a50:	ff 90       	pop	r15
    3a52:	0f 91       	pop	r16
    3a54:	1f 91       	pop	r17
    3a56:	cf 91       	pop	r28
    3a58:	df 91       	pop	r29
    3a5a:	99 27       	eor	r25, r25
    3a5c:	87 fd       	sbrc	r24, 7
    3a5e:	90 95       	com	r25
    3a60:	08 95       	ret

00003a62 <strnlen_P>:
    3a62:	fc 01       	movw	r30, r24
    3a64:	05 90       	lpm	r0, Z+
    3a66:	61 50       	subi	r22, 0x01	; 1
    3a68:	70 40       	sbci	r23, 0x00	; 0
    3a6a:	01 10       	cpse	r0, r1
    3a6c:	d8 f7       	brcc	.-10     	; 0x3a64 <strnlen_P+0x2>
    3a6e:	80 95       	com	r24
    3a70:	90 95       	com	r25
    3a72:	8e 0f       	add	r24, r30
    3a74:	9f 1f       	adc	r25, r31
    3a76:	08 95       	ret

00003a78 <strnlen>:
    3a78:	fc 01       	movw	r30, r24
    3a7a:	61 50       	subi	r22, 0x01	; 1
    3a7c:	70 40       	sbci	r23, 0x00	; 0
    3a7e:	01 90       	ld	r0, Z+
    3a80:	01 10       	cpse	r0, r1
    3a82:	d8 f7       	brcc	.-10     	; 0x3a7a <strnlen+0x2>
    3a84:	80 95       	com	r24
    3a86:	90 95       	com	r25
    3a88:	8e 0f       	add	r24, r30
    3a8a:	9f 1f       	adc	r25, r31
    3a8c:	08 95       	ret

00003a8e <fputc>:
    3a8e:	0f 93       	push	r16
    3a90:	1f 93       	push	r17
    3a92:	cf 93       	push	r28
    3a94:	df 93       	push	r29
    3a96:	8c 01       	movw	r16, r24
    3a98:	eb 01       	movw	r28, r22
    3a9a:	8b 81       	ldd	r24, Y+3	; 0x03
    3a9c:	81 ff       	sbrs	r24, 1
    3a9e:	1b c0       	rjmp	.+54     	; 0x3ad6 <fputc+0x48>
    3aa0:	82 ff       	sbrs	r24, 2
    3aa2:	0d c0       	rjmp	.+26     	; 0x3abe <fputc+0x30>
    3aa4:	2e 81       	ldd	r18, Y+6	; 0x06
    3aa6:	3f 81       	ldd	r19, Y+7	; 0x07
    3aa8:	8c 81       	ldd	r24, Y+4	; 0x04
    3aaa:	9d 81       	ldd	r25, Y+5	; 0x05
    3aac:	28 17       	cp	r18, r24
    3aae:	39 07       	cpc	r19, r25
    3ab0:	64 f4       	brge	.+24     	; 0x3aca <fputc+0x3c>
    3ab2:	e8 81       	ld	r30, Y
    3ab4:	f9 81       	ldd	r31, Y+1	; 0x01
    3ab6:	01 93       	st	Z+, r16
    3ab8:	f9 83       	std	Y+1, r31	; 0x01
    3aba:	e8 83       	st	Y, r30
    3abc:	06 c0       	rjmp	.+12     	; 0x3aca <fputc+0x3c>
    3abe:	e8 85       	ldd	r30, Y+8	; 0x08
    3ac0:	f9 85       	ldd	r31, Y+9	; 0x09
    3ac2:	80 2f       	mov	r24, r16
    3ac4:	09 95       	icall
    3ac6:	00 97       	sbiw	r24, 0x00	; 0
    3ac8:	31 f4       	brne	.+12     	; 0x3ad6 <fputc+0x48>
    3aca:	8e 81       	ldd	r24, Y+6	; 0x06
    3acc:	9f 81       	ldd	r25, Y+7	; 0x07
    3ace:	01 96       	adiw	r24, 0x01	; 1
    3ad0:	9f 83       	std	Y+7, r25	; 0x07
    3ad2:	8e 83       	std	Y+6, r24	; 0x06
    3ad4:	02 c0       	rjmp	.+4      	; 0x3ada <fputc+0x4c>
    3ad6:	0f ef       	ldi	r16, 0xFF	; 255
    3ad8:	1f ef       	ldi	r17, 0xFF	; 255
    3ada:	c8 01       	movw	r24, r16
    3adc:	df 91       	pop	r29
    3ade:	cf 91       	pop	r28
    3ae0:	1f 91       	pop	r17
    3ae2:	0f 91       	pop	r16
    3ae4:	08 95       	ret

00003ae6 <__ultoa_invert>:
    3ae6:	fa 01       	movw	r30, r20
    3ae8:	aa 27       	eor	r26, r26
    3aea:	28 30       	cpi	r18, 0x08	; 8
    3aec:	51 f1       	breq	.+84     	; 0x3b42 <__ultoa_invert+0x5c>
    3aee:	20 31       	cpi	r18, 0x10	; 16
    3af0:	81 f1       	breq	.+96     	; 0x3b52 <__ultoa_invert+0x6c>
    3af2:	e8 94       	clt
    3af4:	6f 93       	push	r22
    3af6:	6e 7f       	andi	r22, 0xFE	; 254
    3af8:	6e 5f       	subi	r22, 0xFE	; 254
    3afa:	7f 4f       	sbci	r23, 0xFF	; 255
    3afc:	8f 4f       	sbci	r24, 0xFF	; 255
    3afe:	9f 4f       	sbci	r25, 0xFF	; 255
    3b00:	af 4f       	sbci	r26, 0xFF	; 255
    3b02:	b1 e0       	ldi	r27, 0x01	; 1
    3b04:	3e d0       	rcall	.+124    	; 0x3b82 <__ultoa_invert+0x9c>
    3b06:	b4 e0       	ldi	r27, 0x04	; 4
    3b08:	3c d0       	rcall	.+120    	; 0x3b82 <__ultoa_invert+0x9c>
    3b0a:	67 0f       	add	r22, r23
    3b0c:	78 1f       	adc	r23, r24
    3b0e:	89 1f       	adc	r24, r25
    3b10:	9a 1f       	adc	r25, r26
    3b12:	a1 1d       	adc	r26, r1
    3b14:	68 0f       	add	r22, r24
    3b16:	79 1f       	adc	r23, r25
    3b18:	8a 1f       	adc	r24, r26
    3b1a:	91 1d       	adc	r25, r1
    3b1c:	a1 1d       	adc	r26, r1
    3b1e:	6a 0f       	add	r22, r26
    3b20:	71 1d       	adc	r23, r1
    3b22:	81 1d       	adc	r24, r1
    3b24:	91 1d       	adc	r25, r1
    3b26:	a1 1d       	adc	r26, r1
    3b28:	20 d0       	rcall	.+64     	; 0x3b6a <__ultoa_invert+0x84>
    3b2a:	09 f4       	brne	.+2      	; 0x3b2e <__ultoa_invert+0x48>
    3b2c:	68 94       	set
    3b2e:	3f 91       	pop	r19
    3b30:	2a e0       	ldi	r18, 0x0A	; 10
    3b32:	26 9f       	mul	r18, r22
    3b34:	11 24       	eor	r1, r1
    3b36:	30 19       	sub	r19, r0
    3b38:	30 5d       	subi	r19, 0xD0	; 208
    3b3a:	31 93       	st	Z+, r19
    3b3c:	de f6       	brtc	.-74     	; 0x3af4 <__ultoa_invert+0xe>
    3b3e:	cf 01       	movw	r24, r30
    3b40:	08 95       	ret
    3b42:	46 2f       	mov	r20, r22
    3b44:	47 70       	andi	r20, 0x07	; 7
    3b46:	40 5d       	subi	r20, 0xD0	; 208
    3b48:	41 93       	st	Z+, r20
    3b4a:	b3 e0       	ldi	r27, 0x03	; 3
    3b4c:	0f d0       	rcall	.+30     	; 0x3b6c <__ultoa_invert+0x86>
    3b4e:	c9 f7       	brne	.-14     	; 0x3b42 <__ultoa_invert+0x5c>
    3b50:	f6 cf       	rjmp	.-20     	; 0x3b3e <__ultoa_invert+0x58>
    3b52:	46 2f       	mov	r20, r22
    3b54:	4f 70       	andi	r20, 0x0F	; 15
    3b56:	40 5d       	subi	r20, 0xD0	; 208
    3b58:	4a 33       	cpi	r20, 0x3A	; 58
    3b5a:	18 f0       	brcs	.+6      	; 0x3b62 <__ultoa_invert+0x7c>
    3b5c:	49 5d       	subi	r20, 0xD9	; 217
    3b5e:	31 fd       	sbrc	r19, 1
    3b60:	40 52       	subi	r20, 0x20	; 32
    3b62:	41 93       	st	Z+, r20
    3b64:	02 d0       	rcall	.+4      	; 0x3b6a <__ultoa_invert+0x84>
    3b66:	a9 f7       	brne	.-22     	; 0x3b52 <__ultoa_invert+0x6c>
    3b68:	ea cf       	rjmp	.-44     	; 0x3b3e <__ultoa_invert+0x58>
    3b6a:	b4 e0       	ldi	r27, 0x04	; 4
    3b6c:	a6 95       	lsr	r26
    3b6e:	97 95       	ror	r25
    3b70:	87 95       	ror	r24
    3b72:	77 95       	ror	r23
    3b74:	67 95       	ror	r22
    3b76:	ba 95       	dec	r27
    3b78:	c9 f7       	brne	.-14     	; 0x3b6c <__ultoa_invert+0x86>
    3b7a:	00 97       	sbiw	r24, 0x00	; 0
    3b7c:	61 05       	cpc	r22, r1
    3b7e:	71 05       	cpc	r23, r1
    3b80:	08 95       	ret
    3b82:	9b 01       	movw	r18, r22
    3b84:	ac 01       	movw	r20, r24
    3b86:	0a 2e       	mov	r0, r26
    3b88:	06 94       	lsr	r0
    3b8a:	57 95       	ror	r21
    3b8c:	47 95       	ror	r20
    3b8e:	37 95       	ror	r19
    3b90:	27 95       	ror	r18
    3b92:	ba 95       	dec	r27
    3b94:	c9 f7       	brne	.-14     	; 0x3b88 <__ultoa_invert+0xa2>
    3b96:	62 0f       	add	r22, r18
    3b98:	73 1f       	adc	r23, r19
    3b9a:	84 1f       	adc	r24, r20
    3b9c:	95 1f       	adc	r25, r21
    3b9e:	a0 1d       	adc	r26, r0
    3ba0:	08 95       	ret

00003ba2 <__prologue_saves__>:
    3ba2:	2f 92       	push	r2
    3ba4:	3f 92       	push	r3
    3ba6:	4f 92       	push	r4
    3ba8:	5f 92       	push	r5
    3baa:	6f 92       	push	r6
    3bac:	7f 92       	push	r7
    3bae:	8f 92       	push	r8
    3bb0:	9f 92       	push	r9
    3bb2:	af 92       	push	r10
    3bb4:	bf 92       	push	r11
    3bb6:	cf 92       	push	r12
    3bb8:	df 92       	push	r13
    3bba:	ef 92       	push	r14
    3bbc:	ff 92       	push	r15
    3bbe:	0f 93       	push	r16
    3bc0:	1f 93       	push	r17
    3bc2:	cf 93       	push	r28
    3bc4:	df 93       	push	r29
    3bc6:	cd b7       	in	r28, 0x3d	; 61
    3bc8:	de b7       	in	r29, 0x3e	; 62
    3bca:	ca 1b       	sub	r28, r26
    3bcc:	db 0b       	sbc	r29, r27
    3bce:	0f b6       	in	r0, 0x3f	; 63
    3bd0:	f8 94       	cli
    3bd2:	de bf       	out	0x3e, r29	; 62
    3bd4:	0f be       	out	0x3f, r0	; 63
    3bd6:	cd bf       	out	0x3d, r28	; 61
    3bd8:	09 94       	ijmp

00003bda <__epilogue_restores__>:
    3bda:	2a 88       	ldd	r2, Y+18	; 0x12
    3bdc:	39 88       	ldd	r3, Y+17	; 0x11
    3bde:	48 88       	ldd	r4, Y+16	; 0x10
    3be0:	5f 84       	ldd	r5, Y+15	; 0x0f
    3be2:	6e 84       	ldd	r6, Y+14	; 0x0e
    3be4:	7d 84       	ldd	r7, Y+13	; 0x0d
    3be6:	8c 84       	ldd	r8, Y+12	; 0x0c
    3be8:	9b 84       	ldd	r9, Y+11	; 0x0b
    3bea:	aa 84       	ldd	r10, Y+10	; 0x0a
    3bec:	b9 84       	ldd	r11, Y+9	; 0x09
    3bee:	c8 84       	ldd	r12, Y+8	; 0x08
    3bf0:	df 80       	ldd	r13, Y+7	; 0x07
    3bf2:	ee 80       	ldd	r14, Y+6	; 0x06
    3bf4:	fd 80       	ldd	r15, Y+5	; 0x05
    3bf6:	0c 81       	ldd	r16, Y+4	; 0x04
    3bf8:	1b 81       	ldd	r17, Y+3	; 0x03
    3bfa:	aa 81       	ldd	r26, Y+2	; 0x02
    3bfc:	b9 81       	ldd	r27, Y+1	; 0x01
    3bfe:	ce 0f       	add	r28, r30
    3c00:	d1 1d       	adc	r29, r1
    3c02:	0f b6       	in	r0, 0x3f	; 63
    3c04:	f8 94       	cli
    3c06:	de bf       	out	0x3e, r29	; 62
    3c08:	0f be       	out	0x3f, r0	; 63
    3c0a:	cd bf       	out	0x3d, r28	; 61
    3c0c:	ed 01       	movw	r28, r26
    3c0e:	08 95       	ret

00003c10 <_exit>:
    3c10:	f8 94       	cli

00003c12 <__stop_program>:
    3c12:	ff cf       	rjmp	.-2      	; 0x3c12 <__stop_program>
